
FinalProjectF2025.elf:     file format elf32-littlearm

Sections:
Idx Name          Size      VMA       LMA       File off  Algn
  0 .isr_vector   00000198  08000000  08000000  00001000  2**0
                  CONTENTS, ALLOC, LOAD, READONLY, DATA
  1 .text         0000a1d0  080001a0  080001a0  000011a0  2**4
                  CONTENTS, ALLOC, LOAD, READONLY, CODE
  2 .rodata       000393b0  0800a370  0800a370  0000b370  2**2
                  CONTENTS, ALLOC, LOAD, READONLY, DATA
  3 .ARM.extab    00000000  08043720  08043720  000455f4  2**0
                  CONTENTS, READONLY
  4 .ARM          00000008  08043720  08043720  00044720  2**2
                  CONTENTS, ALLOC, LOAD, READONLY, DATA
  5 .preinit_array 00000000  08043728  08043728  000455f4  2**0
                  CONTENTS, ALLOC, LOAD, DATA
  6 .init_array   00000004  08043728  08043728  00044728  2**2
                  CONTENTS, ALLOC, LOAD, READONLY, DATA
  7 .fini_array   00000004  0804372c  0804372c  0004472c  2**2
                  CONTENTS, ALLOC, LOAD, READONLY, DATA
  8 .data         000005f4  20000000  08043730  00045000  2**2
                  CONTENTS, ALLOC, LOAD, DATA
  9 .bss          00002400  200005f4  08043d24  000455f4  2**2
                  ALLOC
 10 ._user_heap_stack 00000604  200029f4  08043d24  000459f4  2**0
                  ALLOC
 11 .ARM.attributes 00000030  00000000  00000000  000455f4  2**0
                  CONTENTS, READONLY
 12 .debug_info   00009c3b  00000000  00000000  00045624  2**0
                  CONTENTS, READONLY, DEBUGGING, OCTETS
 13 .debug_abbrev 0000254f  00000000  00000000  0004f25f  2**0
                  CONTENTS, READONLY, DEBUGGING, OCTETS
 14 .debug_aranges 00000908  00000000  00000000  000517b0  2**3
                  CONTENTS, READONLY, DEBUGGING, OCTETS
 15 .debug_rnglists 000006e2  00000000  00000000  000520b8  2**0
                  CONTENTS, READONLY, DEBUGGING, OCTETS
 16 .debug_macro  00017dd6  00000000  00000000  0005279a  2**0
                  CONTENTS, READONLY, DEBUGGING, OCTETS
 17 .debug_line   0000ee59  00000000  00000000  0006a570  2**0
                  CONTENTS, READONLY, DEBUGGING, OCTETS
 18 .debug_str    00086fd9  00000000  00000000  000793c9  2**0
                  CONTENTS, READONLY, DEBUGGING, OCTETS
 19 .comment      00000043  00000000  00000000  001003a2  2**0
                  CONTENTS, READONLY
 20 .debug_frame  00002a70  00000000  00000000  001003e8  2**2
                  CONTENTS, READONLY, DEBUGGING, OCTETS
 21 .debug_line_str 0000006d  00000000  00000000  00102e58  2**0
                  CONTENTS, READONLY, DEBUGGING, OCTETS

Disassembly of section .text:

080001a0 <__do_global_dtors_aux>:
 80001a0:	b510      	push	{r4, lr}
 80001a2:	4c05      	ldr	r4, [pc, #20]	@ (80001b8 <__do_global_dtors_aux+0x18>)
 80001a4:	7823      	ldrb	r3, [r4, #0]
 80001a6:	b933      	cbnz	r3, 80001b6 <__do_global_dtors_aux+0x16>
 80001a8:	4b04      	ldr	r3, [pc, #16]	@ (80001bc <__do_global_dtors_aux+0x1c>)
 80001aa:	b113      	cbz	r3, 80001b2 <__do_global_dtors_aux+0x12>
 80001ac:	4804      	ldr	r0, [pc, #16]	@ (80001c0 <__do_global_dtors_aux+0x20>)
 80001ae:	f3af 8000 	nop.w
 80001b2:	2301      	movs	r3, #1
 80001b4:	7023      	strb	r3, [r4, #0]
 80001b6:	bd10      	pop	{r4, pc}
 80001b8:	200005f4 	.word	0x200005f4
 80001bc:	00000000 	.word	0x00000000
 80001c0:	0800a358 	.word	0x0800a358

080001c4 <frame_dummy>:
 80001c4:	b508      	push	{r3, lr}
 80001c6:	4b03      	ldr	r3, [pc, #12]	@ (80001d4 <frame_dummy+0x10>)
 80001c8:	b11b      	cbz	r3, 80001d2 <frame_dummy+0xe>
 80001ca:	4903      	ldr	r1, [pc, #12]	@ (80001d8 <frame_dummy+0x14>)
 80001cc:	4803      	ldr	r0, [pc, #12]	@ (80001dc <frame_dummy+0x18>)
 80001ce:	f3af 8000 	nop.w
 80001d2:	bd08      	pop	{r3, pc}
 80001d4:	00000000 	.word	0x00000000
 80001d8:	200005f8 	.word	0x200005f8
 80001dc:	0800a358 	.word	0x0800a358

080001e0 <strlen>:
 80001e0:	4603      	mov	r3, r0
 80001e2:	f813 2b01 	ldrb.w	r2, [r3], #1
 80001e6:	2a00      	cmp	r2, #0
 80001e8:	d1fb      	bne.n	80001e2 <strlen+0x2>
 80001ea:	1a18      	subs	r0, r3, r0
 80001ec:	3801      	subs	r0, #1
 80001ee:	4770      	bx	lr

080001f0 <memchr>:
 80001f0:	f001 01ff 	and.w	r1, r1, #255	@ 0xff
 80001f4:	2a10      	cmp	r2, #16
 80001f6:	db2b      	blt.n	8000250 <memchr+0x60>
 80001f8:	f010 0f07 	tst.w	r0, #7
 80001fc:	d008      	beq.n	8000210 <memchr+0x20>
 80001fe:	f810 3b01 	ldrb.w	r3, [r0], #1
 8000202:	3a01      	subs	r2, #1
 8000204:	428b      	cmp	r3, r1
 8000206:	d02d      	beq.n	8000264 <memchr+0x74>
 8000208:	f010 0f07 	tst.w	r0, #7
 800020c:	b342      	cbz	r2, 8000260 <memchr+0x70>
 800020e:	d1f6      	bne.n	80001fe <memchr+0xe>
 8000210:	b4f0      	push	{r4, r5, r6, r7}
 8000212:	ea41 2101 	orr.w	r1, r1, r1, lsl #8
 8000216:	ea41 4101 	orr.w	r1, r1, r1, lsl #16
 800021a:	f022 0407 	bic.w	r4, r2, #7
 800021e:	f07f 0700 	mvns.w	r7, #0
 8000222:	2300      	movs	r3, #0
 8000224:	e8f0 5602 	ldrd	r5, r6, [r0], #8
 8000228:	3c08      	subs	r4, #8
 800022a:	ea85 0501 	eor.w	r5, r5, r1
 800022e:	ea86 0601 	eor.w	r6, r6, r1
 8000232:	fa85 f547 	uadd8	r5, r5, r7
 8000236:	faa3 f587 	sel	r5, r3, r7
 800023a:	fa86 f647 	uadd8	r6, r6, r7
 800023e:	faa5 f687 	sel	r6, r5, r7
 8000242:	b98e      	cbnz	r6, 8000268 <memchr+0x78>
 8000244:	d1ee      	bne.n	8000224 <memchr+0x34>
 8000246:	bcf0      	pop	{r4, r5, r6, r7}
 8000248:	f001 01ff 	and.w	r1, r1, #255	@ 0xff
 800024c:	f002 0207 	and.w	r2, r2, #7
 8000250:	b132      	cbz	r2, 8000260 <memchr+0x70>
 8000252:	f810 3b01 	ldrb.w	r3, [r0], #1
 8000256:	3a01      	subs	r2, #1
 8000258:	ea83 0301 	eor.w	r3, r3, r1
 800025c:	b113      	cbz	r3, 8000264 <memchr+0x74>
 800025e:	d1f8      	bne.n	8000252 <memchr+0x62>
 8000260:	2000      	movs	r0, #0
 8000262:	4770      	bx	lr
 8000264:	3801      	subs	r0, #1
 8000266:	4770      	bx	lr
 8000268:	2d00      	cmp	r5, #0
 800026a:	bf06      	itte	eq
 800026c:	4635      	moveq	r5, r6
 800026e:	3803      	subeq	r0, #3
 8000270:	3807      	subne	r0, #7
 8000272:	f015 0f01 	tst.w	r5, #1
 8000276:	d107      	bne.n	8000288 <memchr+0x98>
 8000278:	3001      	adds	r0, #1
 800027a:	f415 7f80 	tst.w	r5, #256	@ 0x100
 800027e:	bf02      	ittt	eq
 8000280:	3001      	addeq	r0, #1
 8000282:	f415 3fc0 	tsteq.w	r5, #98304	@ 0x18000
 8000286:	3001      	addeq	r0, #1
 8000288:	bcf0      	pop	{r4, r5, r6, r7}
 800028a:	3801      	subs	r0, #1
 800028c:	4770      	bx	lr
 800028e:	bf00      	nop

08000290 <__aeabi_uldivmod>:
 8000290:	b953      	cbnz	r3, 80002a8 <__aeabi_uldivmod+0x18>
 8000292:	b94a      	cbnz	r2, 80002a8 <__aeabi_uldivmod+0x18>
 8000294:	2900      	cmp	r1, #0
 8000296:	bf08      	it	eq
 8000298:	2800      	cmpeq	r0, #0
 800029a:	bf1c      	itt	ne
 800029c:	f04f 31ff 	movne.w	r1, #4294967295
 80002a0:	f04f 30ff 	movne.w	r0, #4294967295
 80002a4:	f000 b988 	b.w	80005b8 <__aeabi_idiv0>
 80002a8:	f1ad 0c08 	sub.w	ip, sp, #8
 80002ac:	e96d ce04 	strd	ip, lr, [sp, #-16]!
 80002b0:	f000 f806 	bl	80002c0 <__udivmoddi4>
 80002b4:	f8dd e004 	ldr.w	lr, [sp, #4]
 80002b8:	e9dd 2302 	ldrd	r2, r3, [sp, #8]
 80002bc:	b004      	add	sp, #16
 80002be:	4770      	bx	lr

080002c0 <__udivmoddi4>:
 80002c0:	e92d 47f0 	stmdb	sp!, {r4, r5, r6, r7, r8, r9, sl, lr}
 80002c4:	9d08      	ldr	r5, [sp, #32]
 80002c6:	468e      	mov	lr, r1
 80002c8:	4604      	mov	r4, r0
 80002ca:	4688      	mov	r8, r1
 80002cc:	2b00      	cmp	r3, #0
 80002ce:	d14a      	bne.n	8000366 <__udivmoddi4+0xa6>
 80002d0:	428a      	cmp	r2, r1
 80002d2:	4617      	mov	r7, r2
 80002d4:	d962      	bls.n	800039c <__udivmoddi4+0xdc>
 80002d6:	fab2 f682 	clz	r6, r2
 80002da:	b14e      	cbz	r6, 80002f0 <__udivmoddi4+0x30>
 80002dc:	f1c6 0320 	rsb	r3, r6, #32
 80002e0:	fa01 f806 	lsl.w	r8, r1, r6
 80002e4:	fa20 f303 	lsr.w	r3, r0, r3
 80002e8:	40b7      	lsls	r7, r6
 80002ea:	ea43 0808 	orr.w	r8, r3, r8
 80002ee:	40b4      	lsls	r4, r6
 80002f0:	ea4f 4e17 	mov.w	lr, r7, lsr #16
 80002f4:	fa1f fc87 	uxth.w	ip, r7
 80002f8:	fbb8 f1fe 	udiv	r1, r8, lr
 80002fc:	0c23      	lsrs	r3, r4, #16
 80002fe:	fb0e 8811 	mls	r8, lr, r1, r8
 8000302:	ea43 4308 	orr.w	r3, r3, r8, lsl #16
 8000306:	fb01 f20c 	mul.w	r2, r1, ip
 800030a:	429a      	cmp	r2, r3
 800030c:	d909      	bls.n	8000322 <__udivmoddi4+0x62>
 800030e:	18fb      	adds	r3, r7, r3
 8000310:	f101 30ff 	add.w	r0, r1, #4294967295
 8000314:	f080 80ea 	bcs.w	80004ec <__udivmoddi4+0x22c>
 8000318:	429a      	cmp	r2, r3
 800031a:	f240 80e7 	bls.w	80004ec <__udivmoddi4+0x22c>
 800031e:	3902      	subs	r1, #2
 8000320:	443b      	add	r3, r7
 8000322:	1a9a      	subs	r2, r3, r2
 8000324:	b2a3      	uxth	r3, r4
 8000326:	fbb2 f0fe 	udiv	r0, r2, lr
 800032a:	fb0e 2210 	mls	r2, lr, r0, r2
 800032e:	ea43 4302 	orr.w	r3, r3, r2, lsl #16
 8000332:	fb00 fc0c 	mul.w	ip, r0, ip
 8000336:	459c      	cmp	ip, r3
 8000338:	d909      	bls.n	800034e <__udivmoddi4+0x8e>
 800033a:	18fb      	adds	r3, r7, r3
 800033c:	f100 32ff 	add.w	r2, r0, #4294967295
 8000340:	f080 80d6 	bcs.w	80004f0 <__udivmoddi4+0x230>
 8000344:	459c      	cmp	ip, r3
 8000346:	f240 80d3 	bls.w	80004f0 <__udivmoddi4+0x230>
 800034a:	443b      	add	r3, r7
 800034c:	3802      	subs	r0, #2
 800034e:	ea40 4001 	orr.w	r0, r0, r1, lsl #16
 8000352:	eba3 030c 	sub.w	r3, r3, ip
 8000356:	2100      	movs	r1, #0
 8000358:	b11d      	cbz	r5, 8000362 <__udivmoddi4+0xa2>
 800035a:	40f3      	lsrs	r3, r6
 800035c:	2200      	movs	r2, #0
 800035e:	e9c5 3200 	strd	r3, r2, [r5]
 8000362:	e8bd 87f0 	ldmia.w	sp!, {r4, r5, r6, r7, r8, r9, sl, pc}
 8000366:	428b      	cmp	r3, r1
 8000368:	d905      	bls.n	8000376 <__udivmoddi4+0xb6>
 800036a:	b10d      	cbz	r5, 8000370 <__udivmoddi4+0xb0>
 800036c:	e9c5 0100 	strd	r0, r1, [r5]
 8000370:	2100      	movs	r1, #0
 8000372:	4608      	mov	r0, r1
 8000374:	e7f5      	b.n	8000362 <__udivmoddi4+0xa2>
 8000376:	fab3 f183 	clz	r1, r3
 800037a:	2900      	cmp	r1, #0
 800037c:	d146      	bne.n	800040c <__udivmoddi4+0x14c>
 800037e:	4573      	cmp	r3, lr
 8000380:	d302      	bcc.n	8000388 <__udivmoddi4+0xc8>
 8000382:	4282      	cmp	r2, r0
 8000384:	f200 8105 	bhi.w	8000592 <__udivmoddi4+0x2d2>
 8000388:	1a84      	subs	r4, r0, r2
 800038a:	eb6e 0203 	sbc.w	r2, lr, r3
 800038e:	2001      	movs	r0, #1
 8000390:	4690      	mov	r8, r2
 8000392:	2d00      	cmp	r5, #0
 8000394:	d0e5      	beq.n	8000362 <__udivmoddi4+0xa2>
 8000396:	e9c5 4800 	strd	r4, r8, [r5]
 800039a:	e7e2      	b.n	8000362 <__udivmoddi4+0xa2>
 800039c:	2a00      	cmp	r2, #0
 800039e:	f000 8090 	beq.w	80004c2 <__udivmoddi4+0x202>
 80003a2:	fab2 f682 	clz	r6, r2
 80003a6:	2e00      	cmp	r6, #0
 80003a8:	f040 80a4 	bne.w	80004f4 <__udivmoddi4+0x234>
 80003ac:	1a8a      	subs	r2, r1, r2
 80003ae:	0c03      	lsrs	r3, r0, #16
 80003b0:	ea4f 4e17 	mov.w	lr, r7, lsr #16
 80003b4:	b280      	uxth	r0, r0
 80003b6:	b2bc      	uxth	r4, r7
 80003b8:	2101      	movs	r1, #1
 80003ba:	fbb2 fcfe 	udiv	ip, r2, lr
 80003be:	fb0e 221c 	mls	r2, lr, ip, r2
 80003c2:	ea43 4302 	orr.w	r3, r3, r2, lsl #16
 80003c6:	fb04 f20c 	mul.w	r2, r4, ip
 80003ca:	429a      	cmp	r2, r3
 80003cc:	d907      	bls.n	80003de <__udivmoddi4+0x11e>
 80003ce:	18fb      	adds	r3, r7, r3
 80003d0:	f10c 38ff 	add.w	r8, ip, #4294967295
 80003d4:	d202      	bcs.n	80003dc <__udivmoddi4+0x11c>
 80003d6:	429a      	cmp	r2, r3
 80003d8:	f200 80e0 	bhi.w	800059c <__udivmoddi4+0x2dc>
 80003dc:	46c4      	mov	ip, r8
 80003de:	1a9b      	subs	r3, r3, r2
 80003e0:	fbb3 f2fe 	udiv	r2, r3, lr
 80003e4:	fb0e 3312 	mls	r3, lr, r2, r3
 80003e8:	ea40 4303 	orr.w	r3, r0, r3, lsl #16
 80003ec:	fb02 f404 	mul.w	r4, r2, r4
 80003f0:	429c      	cmp	r4, r3
 80003f2:	d907      	bls.n	8000404 <__udivmoddi4+0x144>
 80003f4:	18fb      	adds	r3, r7, r3
 80003f6:	f102 30ff 	add.w	r0, r2, #4294967295
 80003fa:	d202      	bcs.n	8000402 <__udivmoddi4+0x142>
 80003fc:	429c      	cmp	r4, r3
 80003fe:	f200 80ca 	bhi.w	8000596 <__udivmoddi4+0x2d6>
 8000402:	4602      	mov	r2, r0
 8000404:	1b1b      	subs	r3, r3, r4
 8000406:	ea42 400c 	orr.w	r0, r2, ip, lsl #16
 800040a:	e7a5      	b.n	8000358 <__udivmoddi4+0x98>
 800040c:	f1c1 0620 	rsb	r6, r1, #32
 8000410:	408b      	lsls	r3, r1
 8000412:	fa22 f706 	lsr.w	r7, r2, r6
 8000416:	431f      	orrs	r7, r3
 8000418:	fa0e f401 	lsl.w	r4, lr, r1
 800041c:	fa20 f306 	lsr.w	r3, r0, r6
 8000420:	fa2e fe06 	lsr.w	lr, lr, r6
 8000424:	ea4f 4917 	mov.w	r9, r7, lsr #16
 8000428:	4323      	orrs	r3, r4
 800042a:	fa00 f801 	lsl.w	r8, r0, r1
 800042e:	fa1f fc87 	uxth.w	ip, r7
 8000432:	fbbe f0f9 	udiv	r0, lr, r9
 8000436:	0c1c      	lsrs	r4, r3, #16
 8000438:	fb09 ee10 	mls	lr, r9, r0, lr
 800043c:	ea44 440e 	orr.w	r4, r4, lr, lsl #16
 8000440:	fb00 fe0c 	mul.w	lr, r0, ip
 8000444:	45a6      	cmp	lr, r4
 8000446:	fa02 f201 	lsl.w	r2, r2, r1
 800044a:	d909      	bls.n	8000460 <__udivmoddi4+0x1a0>
 800044c:	193c      	adds	r4, r7, r4
 800044e:	f100 3aff 	add.w	sl, r0, #4294967295
 8000452:	f080 809c 	bcs.w	800058e <__udivmoddi4+0x2ce>
 8000456:	45a6      	cmp	lr, r4
 8000458:	f240 8099 	bls.w	800058e <__udivmoddi4+0x2ce>
 800045c:	3802      	subs	r0, #2
 800045e:	443c      	add	r4, r7
 8000460:	eba4 040e 	sub.w	r4, r4, lr
 8000464:	fa1f fe83 	uxth.w	lr, r3
 8000468:	fbb4 f3f9 	udiv	r3, r4, r9
 800046c:	fb09 4413 	mls	r4, r9, r3, r4
 8000470:	ea4e 4404 	orr.w	r4, lr, r4, lsl #16
 8000474:	fb03 fc0c 	mul.w	ip, r3, ip
 8000478:	45a4      	cmp	ip, r4
 800047a:	d908      	bls.n	800048e <__udivmoddi4+0x1ce>
 800047c:	193c      	adds	r4, r7, r4
 800047e:	f103 3eff 	add.w	lr, r3, #4294967295
 8000482:	f080 8082 	bcs.w	800058a <__udivmoddi4+0x2ca>
 8000486:	45a4      	cmp	ip, r4
 8000488:	d97f      	bls.n	800058a <__udivmoddi4+0x2ca>
 800048a:	3b02      	subs	r3, #2
 800048c:	443c      	add	r4, r7
 800048e:	ea43 4000 	orr.w	r0, r3, r0, lsl #16
 8000492:	eba4 040c 	sub.w	r4, r4, ip
 8000496:	fba0 ec02 	umull	lr, ip, r0, r2
 800049a:	4564      	cmp	r4, ip
 800049c:	4673      	mov	r3, lr
 800049e:	46e1      	mov	r9, ip
 80004a0:	d362      	bcc.n	8000568 <__udivmoddi4+0x2a8>
 80004a2:	d05f      	beq.n	8000564 <__udivmoddi4+0x2a4>
 80004a4:	b15d      	cbz	r5, 80004be <__udivmoddi4+0x1fe>
 80004a6:	ebb8 0203 	subs.w	r2, r8, r3
 80004aa:	eb64 0409 	sbc.w	r4, r4, r9
 80004ae:	fa04 f606 	lsl.w	r6, r4, r6
 80004b2:	fa22 f301 	lsr.w	r3, r2, r1
 80004b6:	431e      	orrs	r6, r3
 80004b8:	40cc      	lsrs	r4, r1
 80004ba:	e9c5 6400 	strd	r6, r4, [r5]
 80004be:	2100      	movs	r1, #0
 80004c0:	e74f      	b.n	8000362 <__udivmoddi4+0xa2>
 80004c2:	fbb1 fcf2 	udiv	ip, r1, r2
 80004c6:	0c01      	lsrs	r1, r0, #16
 80004c8:	ea41 410e 	orr.w	r1, r1, lr, lsl #16
 80004cc:	b280      	uxth	r0, r0
 80004ce:	ea40 4201 	orr.w	r2, r0, r1, lsl #16
 80004d2:	463b      	mov	r3, r7
 80004d4:	4638      	mov	r0, r7
 80004d6:	463c      	mov	r4, r7
 80004d8:	46b8      	mov	r8, r7
 80004da:	46be      	mov	lr, r7
 80004dc:	2620      	movs	r6, #32
 80004de:	fbb1 f1f7 	udiv	r1, r1, r7
 80004e2:	eba2 0208 	sub.w	r2, r2, r8
 80004e6:	ea41 410c 	orr.w	r1, r1, ip, lsl #16
 80004ea:	e766      	b.n	80003ba <__udivmoddi4+0xfa>
 80004ec:	4601      	mov	r1, r0
 80004ee:	e718      	b.n	8000322 <__udivmoddi4+0x62>
 80004f0:	4610      	mov	r0, r2
 80004f2:	e72c      	b.n	800034e <__udivmoddi4+0x8e>
 80004f4:	f1c6 0220 	rsb	r2, r6, #32
 80004f8:	fa2e f302 	lsr.w	r3, lr, r2
 80004fc:	40b7      	lsls	r7, r6
 80004fe:	40b1      	lsls	r1, r6
 8000500:	fa20 f202 	lsr.w	r2, r0, r2
 8000504:	ea4f 4e17 	mov.w	lr, r7, lsr #16
 8000508:	430a      	orrs	r2, r1
 800050a:	fbb3 f8fe 	udiv	r8, r3, lr
 800050e:	b2bc      	uxth	r4, r7
 8000510:	fb0e 3318 	mls	r3, lr, r8, r3
 8000514:	0c11      	lsrs	r1, r2, #16
 8000516:	ea41 4103 	orr.w	r1, r1, r3, lsl #16
 800051a:	fb08 f904 	mul.w	r9, r8, r4
 800051e:	40b0      	lsls	r0, r6
 8000520:	4589      	cmp	r9, r1
 8000522:	ea4f 4310 	mov.w	r3, r0, lsr #16
 8000526:	b280      	uxth	r0, r0
 8000528:	d93e      	bls.n	80005a8 <__udivmoddi4+0x2e8>
 800052a:	1879      	adds	r1, r7, r1
 800052c:	f108 3cff 	add.w	ip, r8, #4294967295
 8000530:	d201      	bcs.n	8000536 <__udivmoddi4+0x276>
 8000532:	4589      	cmp	r9, r1
 8000534:	d81f      	bhi.n	8000576 <__udivmoddi4+0x2b6>
 8000536:	eba1 0109 	sub.w	r1, r1, r9
 800053a:	fbb1 f9fe 	udiv	r9, r1, lr
 800053e:	fb09 f804 	mul.w	r8, r9, r4
 8000542:	fb0e 1119 	mls	r1, lr, r9, r1
 8000546:	b292      	uxth	r2, r2
 8000548:	ea42 4201 	orr.w	r2, r2, r1, lsl #16
 800054c:	4542      	cmp	r2, r8
 800054e:	d229      	bcs.n	80005a4 <__udivmoddi4+0x2e4>
 8000550:	18ba      	adds	r2, r7, r2
 8000552:	f109 31ff 	add.w	r1, r9, #4294967295
 8000556:	d2c4      	bcs.n	80004e2 <__udivmoddi4+0x222>
 8000558:	4542      	cmp	r2, r8
 800055a:	d2c2      	bcs.n	80004e2 <__udivmoddi4+0x222>
 800055c:	f1a9 0102 	sub.w	r1, r9, #2
 8000560:	443a      	add	r2, r7
 8000562:	e7be      	b.n	80004e2 <__udivmoddi4+0x222>
 8000564:	45f0      	cmp	r8, lr
 8000566:	d29d      	bcs.n	80004a4 <__udivmoddi4+0x1e4>
 8000568:	ebbe 0302 	subs.w	r3, lr, r2
 800056c:	eb6c 0c07 	sbc.w	ip, ip, r7
 8000570:	3801      	subs	r0, #1
 8000572:	46e1      	mov	r9, ip
 8000574:	e796      	b.n	80004a4 <__udivmoddi4+0x1e4>
 8000576:	eba7 0909 	sub.w	r9, r7, r9
 800057a:	4449      	add	r1, r9
 800057c:	f1a8 0c02 	sub.w	ip, r8, #2
 8000580:	fbb1 f9fe 	udiv	r9, r1, lr
 8000584:	fb09 f804 	mul.w	r8, r9, r4
 8000588:	e7db      	b.n	8000542 <__udivmoddi4+0x282>
 800058a:	4673      	mov	r3, lr
 800058c:	e77f      	b.n	800048e <__udivmoddi4+0x1ce>
 800058e:	4650      	mov	r0, sl
 8000590:	e766      	b.n	8000460 <__udivmoddi4+0x1a0>
 8000592:	4608      	mov	r0, r1
 8000594:	e6fd      	b.n	8000392 <__udivmoddi4+0xd2>
 8000596:	443b      	add	r3, r7
 8000598:	3a02      	subs	r2, #2
 800059a:	e733      	b.n	8000404 <__udivmoddi4+0x144>
 800059c:	f1ac 0c02 	sub.w	ip, ip, #2
 80005a0:	443b      	add	r3, r7
 80005a2:	e71c      	b.n	80003de <__udivmoddi4+0x11e>
 80005a4:	4649      	mov	r1, r9
 80005a6:	e79c      	b.n	80004e2 <__udivmoddi4+0x222>
 80005a8:	eba1 0109 	sub.w	r1, r1, r9
 80005ac:	46c4      	mov	ip, r8
 80005ae:	fbb1 f9fe 	udiv	r9, r1, lr
 80005b2:	fb09 f804 	mul.w	r8, r9, r4
 80005b6:	e7c4      	b.n	8000542 <__udivmoddi4+0x282>

080005b8 <__aeabi_idiv0>:
 80005b8:	4770      	bx	lr
 80005ba:	bf00      	nop

080005bc <EEPROM_ReadByte>:
 * Original Author: original author: Husamuldeen <https://github.com/hussamaldean>
 * Modified the read sequence as per 24LC16B EEPROM : Likhita Jonnakuti
 *
 */
void EEPROM_ReadByte(uint16_t address, uint8_t *data)
{
 80005bc:	b480      	push	{r7}
 80005be:	b085      	sub	sp, #20
 80005c0:	af00      	add	r7, sp, #0
 80005c2:	4603      	mov	r3, r0
 80005c4:	6039      	str	r1, [r7, #0]
 80005c6:	80fb      	strh	r3, [r7, #6]
	while (I2C1->SR2 & I2C_SR2_BUSY);           //wait until bus not busy
 80005c8:	bf00      	nop
 80005ca:	4b3a      	ldr	r3, [pc, #232]	@ (80006b4 <EEPROM_ReadByte+0xf8>)
 80005cc:	699b      	ldr	r3, [r3, #24]
 80005ce:	f003 0302 	and.w	r3, r3, #2
 80005d2:	2b00      	cmp	r3, #0
 80005d4:	d1f9      	bne.n	80005ca <EEPROM_ReadByte+0xe>
    uint8_t block = (address >> 8) & 0x07;
 80005d6:	88fb      	ldrh	r3, [r7, #6]
 80005d8:	0a1b      	lsrs	r3, r3, #8
 80005da:	b29b      	uxth	r3, r3
 80005dc:	b2db      	uxtb	r3, r3
 80005de:	f003 0307 	and.w	r3, r3, #7
 80005e2:	73fb      	strb	r3, [r7, #15]
    uint8_t byte  = address & 0xFF;
 80005e4:	88fb      	ldrh	r3, [r7, #6]
 80005e6:	73bb      	strb	r3, [r7, #14]

    uint8_t devAddrWrite = 0xA0 | (block << 1);
 80005e8:	f997 300f 	ldrsb.w	r3, [r7, #15]
 80005ec:	005b      	lsls	r3, r3, #1
 80005ee:	b25b      	sxtb	r3, r3
 80005f0:	f063 035f 	orn	r3, r3, #95	@ 0x5f
 80005f4:	b25b      	sxtb	r3, r3
 80005f6:	737b      	strb	r3, [r7, #13]
    uint8_t devAddrRead  = devAddrWrite | 1;
 80005f8:	7b7b      	ldrb	r3, [r7, #13]
 80005fa:	f043 0301 	orr.w	r3, r3, #1
 80005fe:	733b      	strb	r3, [r7, #12]

	I2C1->CR1 |= I2C_CR1_START;                 //generate start
 8000600:	4b2c      	ldr	r3, [pc, #176]	@ (80006b4 <EEPROM_ReadByte+0xf8>)
 8000602:	681b      	ldr	r3, [r3, #0]
 8000604:	4a2b      	ldr	r2, [pc, #172]	@ (80006b4 <EEPROM_ReadByte+0xf8>)
 8000606:	f443 7380 	orr.w	r3, r3, #256	@ 0x100
 800060a:	6013      	str	r3, [r2, #0]

	while (!(I2C1->SR1 & I2C_SR1_SB)){;}	    //wait until start is generated
 800060c:	bf00      	nop
 800060e:	4b29      	ldr	r3, [pc, #164]	@ (80006b4 <EEPROM_ReadByte+0xf8>)
 8000610:	695b      	ldr	r3, [r3, #20]
 8000612:	f003 0301 	and.w	r3, r3, #1
 8000616:	2b00      	cmp	r3, #0
 8000618:	d0f9      	beq.n	800060e <EEPROM_ReadByte+0x52>

    I2C1->DR = devAddrWrite;
 800061a:	4a26      	ldr	r2, [pc, #152]	@ (80006b4 <EEPROM_ReadByte+0xf8>)
 800061c:	7b7b      	ldrb	r3, [r7, #13]
 800061e:	6113      	str	r3, [r2, #16]
	while (!(I2C1->SR1 & I2C_SR1_ADDR)){;}        //wait until address flag is set
 8000620:	bf00      	nop
 8000622:	4b24      	ldr	r3, [pc, #144]	@ (80006b4 <EEPROM_ReadByte+0xf8>)
 8000624:	695b      	ldr	r3, [r3, #20]
 8000626:	f003 0302 	and.w	r3, r3, #2
 800062a:	2b00      	cmp	r3, #0
 800062c:	d0f9      	beq.n	8000622 <EEPROM_ReadByte+0x66>

	(void) I2C1->SR2; 						      //Clear SR2
 800062e:	4b21      	ldr	r3, [pc, #132]	@ (80006b4 <EEPROM_ReadByte+0xf8>)
 8000630:	699b      	ldr	r3, [r3, #24]

	while (!(I2C1->SR1 & I2C_SR1_TXE)){;}           //Wait until Data register empty
 8000632:	bf00      	nop
 8000634:	4b1f      	ldr	r3, [pc, #124]	@ (80006b4 <EEPROM_ReadByte+0xf8>)
 8000636:	695b      	ldr	r3, [r3, #20]
 8000638:	f003 0380 	and.w	r3, r3, #128	@ 0x80
 800063c:	2b00      	cmp	r3, #0
 800063e:	d0f9      	beq.n	8000634 <EEPROM_ReadByte+0x78>
	 I2C1->DR = byte;
 8000640:	4a1c      	ldr	r2, [pc, #112]	@ (80006b4 <EEPROM_ReadByte+0xf8>)
 8000642:	7bbb      	ldrb	r3, [r7, #14]
 8000644:	6113      	str	r3, [r2, #16]

	I2C1->CR1 |= I2C_CR1_START;                 //generate start
 8000646:	4b1b      	ldr	r3, [pc, #108]	@ (80006b4 <EEPROM_ReadByte+0xf8>)
 8000648:	681b      	ldr	r3, [r3, #0]
 800064a:	4a1a      	ldr	r2, [pc, #104]	@ (80006b4 <EEPROM_ReadByte+0xf8>)
 800064c:	f443 7380 	orr.w	r3, r3, #256	@ 0x100
 8000650:	6013      	str	r3, [r2, #0]

	while (!(I2C1->SR1 & I2C_SR1_SB)){;}	    //wait until start is generated
 8000652:	bf00      	nop
 8000654:	4b17      	ldr	r3, [pc, #92]	@ (80006b4 <EEPROM_ReadByte+0xf8>)
 8000656:	695b      	ldr	r3, [r3, #20]
 8000658:	f003 0301 	and.w	r3, r3, #1
 800065c:	2b00      	cmp	r3, #0
 800065e:	d0f9      	beq.n	8000654 <EEPROM_ReadByte+0x98>

    I2C1->DR = devAddrRead;
 8000660:	4a14      	ldr	r2, [pc, #80]	@ (80006b4 <EEPROM_ReadByte+0xf8>)
 8000662:	7b3b      	ldrb	r3, [r7, #12]
 8000664:	6113      	str	r3, [r2, #16]

	while(!(I2C1->SR1&I2C_SR1_ADDR)){;}			//Wait for address flag to set
 8000666:	bf00      	nop
 8000668:	4b12      	ldr	r3, [pc, #72]	@ (80006b4 <EEPROM_ReadByte+0xf8>)
 800066a:	695b      	ldr	r3, [r3, #20]
 800066c:	f003 0302 	and.w	r3, r3, #2
 8000670:	2b00      	cmp	r3, #0
 8000672:	d0f9      	beq.n	8000668 <EEPROM_ReadByte+0xac>

	I2C1->CR1&=~I2C_CR1_ACK;					//Disable acknowledgment
 8000674:	4b0f      	ldr	r3, [pc, #60]	@ (80006b4 <EEPROM_ReadByte+0xf8>)
 8000676:	681b      	ldr	r3, [r3, #0]
 8000678:	4a0e      	ldr	r2, [pc, #56]	@ (80006b4 <EEPROM_ReadByte+0xf8>)
 800067a:	f423 6380 	bic.w	r3, r3, #1024	@ 0x400
 800067e:	6013      	str	r3, [r2, #0]

	(void)I2C1->SR2;							// Clear SR2
 8000680:	4b0c      	ldr	r3, [pc, #48]	@ (80006b4 <EEPROM_ReadByte+0xf8>)
 8000682:	699b      	ldr	r3, [r3, #24]

	I2C1->CR1|=I2C_CR1_STOP;					// Generate stop condition
 8000684:	4b0b      	ldr	r3, [pc, #44]	@ (80006b4 <EEPROM_ReadByte+0xf8>)
 8000686:	681b      	ldr	r3, [r3, #0]
 8000688:	4a0a      	ldr	r2, [pc, #40]	@ (80006b4 <EEPROM_ReadByte+0xf8>)
 800068a:	f443 7300 	orr.w	r3, r3, #512	@ 0x200
 800068e:	6013      	str	r3, [r2, #0]

	while(!(I2C1->SR1&I2C_SR1_RXNE)){;}			//Wait for receiver buffer to be filled
 8000690:	bf00      	nop
 8000692:	4b08      	ldr	r3, [pc, #32]	@ (80006b4 <EEPROM_ReadByte+0xf8>)
 8000694:	695b      	ldr	r3, [r3, #20]
 8000696:	f003 0340 	and.w	r3, r3, #64	@ 0x40
 800069a:	2b00      	cmp	r3, #0
 800069c:	d0f9      	beq.n	8000692 <EEPROM_ReadByte+0xd6>

	*data=I2C1->DR;								//Store the I2C bus.
 800069e:	4b05      	ldr	r3, [pc, #20]	@ (80006b4 <EEPROM_ReadByte+0xf8>)
 80006a0:	691b      	ldr	r3, [r3, #16]
 80006a2:	b2da      	uxtb	r2, r3
 80006a4:	683b      	ldr	r3, [r7, #0]
 80006a6:	701a      	strb	r2, [r3, #0]

}
 80006a8:	bf00      	nop
 80006aa:	3714      	adds	r7, #20
 80006ac:	46bd      	mov	sp, r7
 80006ae:	f85d 7b04 	ldr.w	r7, [sp], #4
 80006b2:	4770      	bx	lr
 80006b4:	40005400 	.word	0x40005400

080006b8 <EEPROM_WriteByte>:
 * Original Author: original author: Husamuldeen <https://github.com/hussamaldean>
 * Modified the read sequence as per 24LC16B EEPROM : Likhita Jonnakuti
 *
 */
void EEPROM_WriteByte(uint16_t address, uint8_t data)
{
 80006b8:	b480      	push	{r7}
 80006ba:	b085      	sub	sp, #20
 80006bc:	af00      	add	r7, sp, #0
 80006be:	4603      	mov	r3, r0
 80006c0:	460a      	mov	r2, r1
 80006c2:	80fb      	strh	r3, [r7, #6]
 80006c4:	4613      	mov	r3, r2
 80006c6:	717b      	strb	r3, [r7, #5]
	while (I2C1->SR2 & I2C_SR2_BUSY);           //wait until bus not busy
 80006c8:	bf00      	nop
 80006ca:	4b2b      	ldr	r3, [pc, #172]	@ (8000778 <EEPROM_WriteByte+0xc0>)
 80006cc:	699b      	ldr	r3, [r3, #24]
 80006ce:	f003 0302 	and.w	r3, r3, #2
 80006d2:	2b00      	cmp	r3, #0
 80006d4:	d1f9      	bne.n	80006ca <EEPROM_WriteByte+0x12>

    uint8_t block = (address >> 8) & 0x07;     // A10–A8
 80006d6:	88fb      	ldrh	r3, [r7, #6]
 80006d8:	0a1b      	lsrs	r3, r3, #8
 80006da:	b29b      	uxth	r3, r3
 80006dc:	b2db      	uxtb	r3, r3
 80006de:	f003 0307 	and.w	r3, r3, #7
 80006e2:	73fb      	strb	r3, [r7, #15]
    uint8_t byte  = address & 0xFF;            // A7–A0
 80006e4:	88fb      	ldrh	r3, [r7, #6]
 80006e6:	73bb      	strb	r3, [r7, #14]

    uint8_t devAddr = 0xA0 | (block << 1);
 80006e8:	f997 300f 	ldrsb.w	r3, [r7, #15]
 80006ec:	005b      	lsls	r3, r3, #1
 80006ee:	b25b      	sxtb	r3, r3
 80006f0:	f063 035f 	orn	r3, r3, #95	@ 0x5f
 80006f4:	b25b      	sxtb	r3, r3
 80006f6:	737b      	strb	r3, [r7, #13]

	I2C1->CR1 |= I2C_CR1_START;                 //generate start
 80006f8:	4b1f      	ldr	r3, [pc, #124]	@ (8000778 <EEPROM_WriteByte+0xc0>)
 80006fa:	681b      	ldr	r3, [r3, #0]
 80006fc:	4a1e      	ldr	r2, [pc, #120]	@ (8000778 <EEPROM_WriteByte+0xc0>)
 80006fe:	f443 7380 	orr.w	r3, r3, #256	@ 0x100
 8000702:	6013      	str	r3, [r2, #0]

	while (!(I2C1->SR1 & I2C_SR1_SB)){;}	    //wait until start is generated
 8000704:	bf00      	nop
 8000706:	4b1c      	ldr	r3, [pc, #112]	@ (8000778 <EEPROM_WriteByte+0xc0>)
 8000708:	695b      	ldr	r3, [r3, #20]
 800070a:	f003 0301 	and.w	r3, r3, #1
 800070e:	2b00      	cmp	r3, #0
 8000710:	d0f9      	beq.n	8000706 <EEPROM_WriteByte+0x4e>

	I2C1->DR = devAddr;
 8000712:	4a19      	ldr	r2, [pc, #100]	@ (8000778 <EEPROM_WriteByte+0xc0>)
 8000714:	7b7b      	ldrb	r3, [r7, #13]
 8000716:	6113      	str	r3, [r2, #16]

	while (!(I2C1->SR1 & I2C_SR1_ADDR)){;}        //wait until address flag is set
 8000718:	bf00      	nop
 800071a:	4b17      	ldr	r3, [pc, #92]	@ (8000778 <EEPROM_WriteByte+0xc0>)
 800071c:	695b      	ldr	r3, [r3, #20]
 800071e:	f003 0302 	and.w	r3, r3, #2
 8000722:	2b00      	cmp	r3, #0
 8000724:	d0f9      	beq.n	800071a <EEPROM_WriteByte+0x62>

	(void) I2C1->SR2; 						      //Clear SR2
 8000726:	4b14      	ldr	r3, [pc, #80]	@ (8000778 <EEPROM_WriteByte+0xc0>)
 8000728:	699b      	ldr	r3, [r3, #24]

	while (!(I2C1->SR1 & I2C_SR1_TXE)){;}          //Wait until Data register empty
 800072a:	bf00      	nop
 800072c:	4b12      	ldr	r3, [pc, #72]	@ (8000778 <EEPROM_WriteByte+0xc0>)
 800072e:	695b      	ldr	r3, [r3, #20]
 8000730:	f003 0380 	and.w	r3, r3, #128	@ 0x80
 8000734:	2b00      	cmp	r3, #0
 8000736:	d0f9      	beq.n	800072c <EEPROM_WriteByte+0x74>

	 I2C1->DR = byte;
 8000738:	4a0f      	ldr	r2, [pc, #60]	@ (8000778 <EEPROM_WriteByte+0xc0>)
 800073a:	7bbb      	ldrb	r3, [r7, #14]
 800073c:	6113      	str	r3, [r2, #16]

	while(!(I2C1->SR1&I2C_SR1_TXE)){;}			//Wait until Data register empty
 800073e:	bf00      	nop
 8000740:	4b0d      	ldr	r3, [pc, #52]	@ (8000778 <EEPROM_WriteByte+0xc0>)
 8000742:	695b      	ldr	r3, [r3, #20]
 8000744:	f003 0380 	and.w	r3, r3, #128	@ 0x80
 8000748:	2b00      	cmp	r3, #0
 800074a:	d0f9      	beq.n	8000740 <EEPROM_WriteByte+0x88>

	I2C1->DR = data; 							//Write the data to the EEPROM
 800074c:	4a0a      	ldr	r2, [pc, #40]	@ (8000778 <EEPROM_WriteByte+0xc0>)
 800074e:	797b      	ldrb	r3, [r7, #5]
 8000750:	6113      	str	r3, [r2, #16]

	while (!(I2C1->SR1 & I2C_SR1_BTF));      	//wait until transfer finished
 8000752:	bf00      	nop
 8000754:	4b08      	ldr	r3, [pc, #32]	@ (8000778 <EEPROM_WriteByte+0xc0>)
 8000756:	695b      	ldr	r3, [r3, #20]
 8000758:	f003 0304 	and.w	r3, r3, #4
 800075c:	2b00      	cmp	r3, #0
 800075e:	d0f9      	beq.n	8000754 <EEPROM_WriteByte+0x9c>

	I2C1->CR1 |=I2C_CR1_STOP;					//Generate Stop
 8000760:	4b05      	ldr	r3, [pc, #20]	@ (8000778 <EEPROM_WriteByte+0xc0>)
 8000762:	681b      	ldr	r3, [r3, #0]
 8000764:	4a04      	ldr	r2, [pc, #16]	@ (8000778 <EEPROM_WriteByte+0xc0>)
 8000766:	f443 7300 	orr.w	r3, r3, #512	@ 0x200
 800076a:	6013      	str	r3, [r2, #0]

}
 800076c:	bf00      	nop
 800076e:	3714      	adds	r7, #20
 8000770:	46bd      	mov	sp, r7
 8000772:	f85d 7b04 	ldr.w	r7, [sp], #4
 8000776:	4770      	bx	lr
 8000778:	40005400 	.word	0x40005400

0800077c <ST7789_Fill>:
 800077c:	b580      	push	{r7, lr}
 800077e:	b084      	sub	sp, #16
 8000780:	af00      	add	r7, sp, #0
 8000782:	4603      	mov	r3, r0
 8000784:	80fb      	strh	r3, [r7, #6]
 8000786:	2036      	movs	r0, #54	@ 0x36
 8000788:	f002 fc6c 	bl	8003064 <writecommand>
 800078c:	20a0      	movs	r0, #160	@ 0xa0
 800078e:	f002 fc7c 	bl	800308a <writedata>
 8000792:	202b      	movs	r0, #43	@ 0x2b
 8000794:	f002 fc66 	bl	8003064 <writecommand>
 8000798:	2000      	movs	r0, #0
 800079a:	f002 fc76 	bl	800308a <writedata>
 800079e:	2000      	movs	r0, #0
 80007a0:	f002 fc73 	bl	800308a <writedata>
 80007a4:	2000      	movs	r0, #0
 80007a6:	f002 fc70 	bl	800308a <writedata>
 80007aa:	20ef      	movs	r0, #239	@ 0xef
 80007ac:	f002 fc6d 	bl	800308a <writedata>
 80007b0:	202a      	movs	r0, #42	@ 0x2a
 80007b2:	f002 fc57 	bl	8003064 <writecommand>
 80007b6:	2000      	movs	r0, #0
 80007b8:	f002 fc67 	bl	800308a <writedata>
 80007bc:	2000      	movs	r0, #0
 80007be:	f002 fc64 	bl	800308a <writedata>
 80007c2:	2001      	movs	r0, #1
 80007c4:	f002 fc61 	bl	800308a <writedata>
 80007c8:	203f      	movs	r0, #63	@ 0x3f
 80007ca:	f002 fc5e 	bl	800308a <writedata>
 80007ce:	202c      	movs	r0, #44	@ 0x2c
 80007d0:	f002 fc48 	bl	8003064 <writecommand>
 80007d4:	f002 fc10 	bl	8002ff8 <DC_DATA>
 80007d8:	f002 fbe6 	bl	8002fa8 <CS_LOW>
 80007dc:	88fb      	ldrh	r3, [r7, #6]
 80007de:	0a1b      	lsrs	r3, r3, #8
 80007e0:	b29b      	uxth	r3, r3
 80007e2:	72fb      	strb	r3, [r7, #11]
 80007e4:	88fb      	ldrh	r3, [r7, #6]
 80007e6:	72bb      	strb	r3, [r7, #10]
 80007e8:	2300      	movs	r3, #0
 80007ea:	60fb      	str	r3, [r7, #12]
 80007ec:	e00a      	b.n	8000804 <ST7789_Fill+0x88>
 80007ee:	7afb      	ldrb	r3, [r7, #11]
 80007f0:	4618      	mov	r0, r3
 80007f2:	f002 fc0d 	bl	8003010 <spi1_write>
 80007f6:	7abb      	ldrb	r3, [r7, #10]
 80007f8:	4618      	mov	r0, r3
 80007fa:	f002 fc09 	bl	8003010 <spi1_write>
 80007fe:	68fb      	ldr	r3, [r7, #12]
 8000800:	3301      	adds	r3, #1
 8000802:	60fb      	str	r3, [r7, #12]
 8000804:	68fb      	ldr	r3, [r7, #12]
 8000806:	f5b3 3f96 	cmp.w	r3, #76800	@ 0x12c00
 800080a:	d3f0      	bcc.n	80007ee <ST7789_Fill+0x72>
 800080c:	bf00      	nop
 800080e:	4b06      	ldr	r3, [pc, #24]	@ (8000828 <ST7789_Fill+0xac>)
 8000810:	689b      	ldr	r3, [r3, #8]
 8000812:	f003 0380 	and.w	r3, r3, #128	@ 0x80
 8000816:	2b00      	cmp	r3, #0
 8000818:	d1f9      	bne.n	800080e <ST7789_Fill+0x92>
 800081a:	f002 fbd3 	bl	8002fc4 <CS_HIGH>
 800081e:	bf00      	nop
 8000820:	3710      	adds	r7, #16
 8000822:	46bd      	mov	sp, r7
 8000824:	bd80      	pop	{r7, pc}
 8000826:	bf00      	nop
 8000828:	40013000 	.word	0x40013000

0800082c <ST7789_SetAddressWindow>:
 800082c:	b590      	push	{r4, r7, lr}
 800082e:	b083      	sub	sp, #12
 8000830:	af00      	add	r7, sp, #0
 8000832:	4604      	mov	r4, r0
 8000834:	4608      	mov	r0, r1
 8000836:	4611      	mov	r1, r2
 8000838:	461a      	mov	r2, r3
 800083a:	4623      	mov	r3, r4
 800083c:	80fb      	strh	r3, [r7, #6]
 800083e:	4603      	mov	r3, r0
 8000840:	80bb      	strh	r3, [r7, #4]
 8000842:	460b      	mov	r3, r1
 8000844:	807b      	strh	r3, [r7, #2]
 8000846:	4613      	mov	r3, r2
 8000848:	803b      	strh	r3, [r7, #0]
 800084a:	202a      	movs	r0, #42	@ 0x2a
 800084c:	f002 fc0a 	bl	8003064 <writecommand>
 8000850:	88fb      	ldrh	r3, [r7, #6]
 8000852:	0a1b      	lsrs	r3, r3, #8
 8000854:	b29b      	uxth	r3, r3
 8000856:	b2db      	uxtb	r3, r3
 8000858:	4618      	mov	r0, r3
 800085a:	f002 fc16 	bl	800308a <writedata>
 800085e:	88fb      	ldrh	r3, [r7, #6]
 8000860:	b2db      	uxtb	r3, r3
 8000862:	4618      	mov	r0, r3
 8000864:	f002 fc11 	bl	800308a <writedata>
 8000868:	887b      	ldrh	r3, [r7, #2]
 800086a:	0a1b      	lsrs	r3, r3, #8
 800086c:	b29b      	uxth	r3, r3
 800086e:	b2db      	uxtb	r3, r3
 8000870:	4618      	mov	r0, r3
 8000872:	f002 fc0a 	bl	800308a <writedata>
 8000876:	887b      	ldrh	r3, [r7, #2]
 8000878:	b2db      	uxtb	r3, r3
 800087a:	4618      	mov	r0, r3
 800087c:	f002 fc05 	bl	800308a <writedata>
 8000880:	202b      	movs	r0, #43	@ 0x2b
 8000882:	f002 fbef 	bl	8003064 <writecommand>
 8000886:	88bb      	ldrh	r3, [r7, #4]
 8000888:	0a1b      	lsrs	r3, r3, #8
 800088a:	b29b      	uxth	r3, r3
 800088c:	b2db      	uxtb	r3, r3
 800088e:	4618      	mov	r0, r3
 8000890:	f002 fbfb 	bl	800308a <writedata>
 8000894:	88bb      	ldrh	r3, [r7, #4]
 8000896:	b2db      	uxtb	r3, r3
 8000898:	4618      	mov	r0, r3
 800089a:	f002 fbf6 	bl	800308a <writedata>
 800089e:	883b      	ldrh	r3, [r7, #0]
 80008a0:	0a1b      	lsrs	r3, r3, #8
 80008a2:	b29b      	uxth	r3, r3
 80008a4:	b2db      	uxtb	r3, r3
 80008a6:	4618      	mov	r0, r3
 80008a8:	f002 fbef 	bl	800308a <writedata>
 80008ac:	883b      	ldrh	r3, [r7, #0]
 80008ae:	b2db      	uxtb	r3, r3
 80008b0:	4618      	mov	r0, r3
 80008b2:	f002 fbea 	bl	800308a <writedata>
 80008b6:	202c      	movs	r0, #44	@ 0x2c
 80008b8:	f002 fbd4 	bl	8003064 <writecommand>
 80008bc:	bf00      	nop
 80008be:	370c      	adds	r7, #12
 80008c0:	46bd      	mov	sp, r7
 80008c2:	bd90      	pop	{r4, r7, pc}

080008c4 <ST7789_FillRect>:
 80008c4:	b590      	push	{r4, r7, lr}
 80008c6:	b085      	sub	sp, #20
 80008c8:	af00      	add	r7, sp, #0
 80008ca:	4604      	mov	r4, r0
 80008cc:	4608      	mov	r0, r1
 80008ce:	4611      	mov	r1, r2
 80008d0:	461a      	mov	r2, r3
 80008d2:	4623      	mov	r3, r4
 80008d4:	80fb      	strh	r3, [r7, #6]
 80008d6:	4603      	mov	r3, r0
 80008d8:	80bb      	strh	r3, [r7, #4]
 80008da:	460b      	mov	r3, r1
 80008dc:	807b      	strh	r3, [r7, #2]
 80008de:	4613      	mov	r3, r2
 80008e0:	803b      	strh	r3, [r7, #0]
 80008e2:	88fb      	ldrh	r3, [r7, #6]
 80008e4:	f5b3 7fa0 	cmp.w	r3, #320	@ 0x140
 80008e8:	d246      	bcs.n	8000978 <ST7789_FillRect+0xb4>
 80008ea:	88bb      	ldrh	r3, [r7, #4]
 80008ec:	2bef      	cmp	r3, #239	@ 0xef
 80008ee:	d843      	bhi.n	8000978 <ST7789_FillRect+0xb4>
 80008f0:	88fa      	ldrh	r2, [r7, #6]
 80008f2:	887b      	ldrh	r3, [r7, #2]
 80008f4:	4413      	add	r3, r2
 80008f6:	f5b3 7fa0 	cmp.w	r3, #320	@ 0x140
 80008fa:	dd03      	ble.n	8000904 <ST7789_FillRect+0x40>
 80008fc:	88fb      	ldrh	r3, [r7, #6]
 80008fe:	f5c3 73a0 	rsb	r3, r3, #320	@ 0x140
 8000902:	807b      	strh	r3, [r7, #2]
 8000904:	88ba      	ldrh	r2, [r7, #4]
 8000906:	883b      	ldrh	r3, [r7, #0]
 8000908:	4413      	add	r3, r2
 800090a:	2bf0      	cmp	r3, #240	@ 0xf0
 800090c:	dd03      	ble.n	8000916 <ST7789_FillRect+0x52>
 800090e:	88bb      	ldrh	r3, [r7, #4]
 8000910:	f1c3 03f0 	rsb	r3, r3, #240	@ 0xf0
 8000914:	803b      	strh	r3, [r7, #0]
 8000916:	88fa      	ldrh	r2, [r7, #6]
 8000918:	887b      	ldrh	r3, [r7, #2]
 800091a:	4413      	add	r3, r2
 800091c:	b29b      	uxth	r3, r3
 800091e:	3b01      	subs	r3, #1
 8000920:	b29c      	uxth	r4, r3
 8000922:	88ba      	ldrh	r2, [r7, #4]
 8000924:	883b      	ldrh	r3, [r7, #0]
 8000926:	4413      	add	r3, r2
 8000928:	b29b      	uxth	r3, r3
 800092a:	3b01      	subs	r3, #1
 800092c:	b29b      	uxth	r3, r3
 800092e:	88b9      	ldrh	r1, [r7, #4]
 8000930:	88f8      	ldrh	r0, [r7, #6]
 8000932:	4622      	mov	r2, r4
 8000934:	f7ff ff7a 	bl	800082c <ST7789_SetAddressWindow>
 8000938:	f002 fb5e 	bl	8002ff8 <DC_DATA>
 800093c:	f002 fb34 	bl	8002fa8 <CS_LOW>
 8000940:	8c3b      	ldrh	r3, [r7, #32]
 8000942:	0a1b      	lsrs	r3, r3, #8
 8000944:	b29b      	uxth	r3, r3
 8000946:	72fb      	strb	r3, [r7, #11]
 8000948:	8c3b      	ldrh	r3, [r7, #32]
 800094a:	72bb      	strb	r3, [r7, #10]
 800094c:	887b      	ldrh	r3, [r7, #2]
 800094e:	883a      	ldrh	r2, [r7, #0]
 8000950:	fb02 f303 	mul.w	r3, r2, r3
 8000954:	60fb      	str	r3, [r7, #12]
 8000956:	e007      	b.n	8000968 <ST7789_FillRect+0xa4>
 8000958:	7afb      	ldrb	r3, [r7, #11]
 800095a:	4618      	mov	r0, r3
 800095c:	f002 fb58 	bl	8003010 <spi1_write>
 8000960:	7abb      	ldrb	r3, [r7, #10]
 8000962:	4618      	mov	r0, r3
 8000964:	f002 fb54 	bl	8003010 <spi1_write>
 8000968:	68fb      	ldr	r3, [r7, #12]
 800096a:	1e5a      	subs	r2, r3, #1
 800096c:	60fa      	str	r2, [r7, #12]
 800096e:	2b00      	cmp	r3, #0
 8000970:	d1f2      	bne.n	8000958 <ST7789_FillRect+0x94>
 8000972:	f002 fb27 	bl	8002fc4 <CS_HIGH>
 8000976:	e000      	b.n	800097a <ST7789_FillRect+0xb6>
 8000978:	bf00      	nop
 800097a:	3714      	adds	r7, #20
 800097c:	46bd      	mov	sp, r7
 800097e:	bd90      	pop	{r4, r7, pc}

08000980 <draw_centered_string>:
 8000980:	b580      	push	{r7, lr}
 8000982:	b08a      	sub	sp, #40	@ 0x28
 8000984:	af02      	add	r7, sp, #8
 8000986:	60f8      	str	r0, [r7, #12]
 8000988:	60b9      	str	r1, [r7, #8]
 800098a:	4611      	mov	r1, r2
 800098c:	461a      	mov	r2, r3
 800098e:	460b      	mov	r3, r1
 8000990:	80fb      	strh	r3, [r7, #6]
 8000992:	4613      	mov	r3, r2
 8000994:	717b      	strb	r3, [r7, #5]
 8000996:	797a      	ldrb	r2, [r7, #5]
 8000998:	4613      	mov	r3, r2
 800099a:	009b      	lsls	r3, r3, #2
 800099c:	4413      	add	r3, r2
 800099e:	61bb      	str	r3, [r7, #24]
 80009a0:	68b8      	ldr	r0, [r7, #8]
 80009a2:	f7ff fc1d 	bl	80001e0 <strlen>
 80009a6:	4602      	mov	r2, r0
 80009a8:	69bb      	ldr	r3, [r7, #24]
 80009aa:	fb02 f303 	mul.w	r3, r2, r3
 80009ae:	617b      	str	r3, [r7, #20]
 80009b0:	697b      	ldr	r3, [r7, #20]
 80009b2:	f5c3 73a0 	rsb	r3, r3, #320	@ 0x140
 80009b6:	0fda      	lsrs	r2, r3, #31
 80009b8:	4413      	add	r3, r2
 80009ba:	105b      	asrs	r3, r3, #1
 80009bc:	61fb      	str	r3, [r7, #28]
 80009be:	69fb      	ldr	r3, [r7, #28]
 80009c0:	2b00      	cmp	r3, #0
 80009c2:	da01      	bge.n	80009c8 <draw_centered_string+0x48>
 80009c4:	2300      	movs	r3, #0
 80009c6:	61fb      	str	r3, [r7, #28]
 80009c8:	69fb      	ldr	r3, [r7, #28]
 80009ca:	b298      	uxth	r0, r3
 80009cc:	68fb      	ldr	r3, [r7, #12]
 80009ce:	b299      	uxth	r1, r3
 80009d0:	88fa      	ldrh	r2, [r7, #6]
 80009d2:	797b      	ldrb	r3, [r7, #5]
 80009d4:	9300      	str	r3, [sp, #0]
 80009d6:	4613      	mov	r3, r2
 80009d8:	68ba      	ldr	r2, [r7, #8]
 80009da:	f002 fab7 	bl	8002f4c <ST7789_DrawString>
 80009de:	bf00      	nop
 80009e0:	3720      	adds	r7, #32
 80009e2:	46bd      	mov	sp, r7
 80009e4:	bd80      	pop	{r7, pc}
	...

080009e8 <combat_mode_lcd>:
 80009e8:	b580      	push	{r7, lr}
 80009ea:	b082      	sub	sp, #8
 80009ec:	af02      	add	r7, sp, #8
 80009ee:	f64f 70e0 	movw	r0, #65504	@ 0xffe0
 80009f2:	f7ff fec3 	bl	800077c <ST7789_Fill>
 80009f6:	2304      	movs	r3, #4
 80009f8:	9300      	str	r3, [sp, #0]
 80009fa:	f44f 4378 	mov.w	r3, #63488	@ 0xf800
 80009fe:	4a0a      	ldr	r2, [pc, #40]	@ (8000a28 <combat_mode_lcd+0x40>)
 8000a00:	2158      	movs	r1, #88	@ 0x58
 8000a02:	2058      	movs	r0, #88	@ 0x58
 8000a04:	f002 faa2 	bl	8002f4c <ST7789_DrawString>
 8000a08:	2304      	movs	r3, #4
 8000a0a:	9300      	str	r3, [sp, #0]
 8000a0c:	f44f 4378 	mov.w	r3, #63488	@ 0xf800
 8000a10:	4a06      	ldr	r2, [pc, #24]	@ (8000a2c <combat_mode_lcd+0x44>)
 8000a12:	2178      	movs	r1, #120	@ 0x78
 8000a14:	2070      	movs	r0, #112	@ 0x70
 8000a16:	f002 fa99 	bl	8002f4c <ST7789_DrawString>
 8000a1a:	2008      	movs	r0, #8
 8000a1c:	f007 f95a 	bl	8007cd4 <delay_ms>
 8000a20:	bf00      	nop
 8000a22:	46bd      	mov	sp, r7
 8000a24:	bd80      	pop	{r7, pc}
 8000a26:	bf00      	nop
 8000a28:	0800a370 	.word	0x0800a370
 8000a2c:	0800a378 	.word	0x0800a378

08000a30 <dice_roller_mode_lcd>:
 8000a30:	b580      	push	{r7, lr}
 8000a32:	b082      	sub	sp, #8
 8000a34:	af02      	add	r7, sp, #8
 8000a36:	f64f 70e0 	movw	r0, #65504	@ 0xffe0
 8000a3a:	f7ff fe9f 	bl	800077c <ST7789_Fill>
 8000a3e:	2304      	movs	r3, #4
 8000a40:	9300      	str	r3, [sp, #0]
 8000a42:	f44f 4378 	mov.w	r3, #63488	@ 0xf800
 8000a46:	4a0a      	ldr	r2, [pc, #40]	@ (8000a70 <dice_roller_mode_lcd+0x40>)
 8000a48:	2158      	movs	r1, #88	@ 0x58
 8000a4a:	2012      	movs	r0, #18
 8000a4c:	f002 fa7e 	bl	8002f4c <ST7789_DrawString>
 8000a50:	2304      	movs	r3, #4
 8000a52:	9300      	str	r3, [sp, #0]
 8000a54:	f44f 4378 	mov.w	r3, #63488	@ 0xf800
 8000a58:	4a06      	ldr	r2, [pc, #24]	@ (8000a74 <dice_roller_mode_lcd+0x44>)
 8000a5a:	2178      	movs	r1, #120	@ 0x78
 8000a5c:	2070      	movs	r0, #112	@ 0x70
 8000a5e:	f002 fa75 	bl	8002f4c <ST7789_DrawString>
 8000a62:	2008      	movs	r0, #8
 8000a64:	f007 f936 	bl	8007cd4 <delay_ms>
 8000a68:	bf00      	nop
 8000a6a:	46bd      	mov	sp, r7
 8000a6c:	bd80      	pop	{r7, pc}
 8000a6e:	bf00      	nop
 8000a70:	0800a380 	.word	0x0800a380
 8000a74:	0800a378 	.word	0x0800a378

08000a78 <serial_mode_lcd>:
 8000a78:	b580      	push	{r7, lr}
 8000a7a:	b082      	sub	sp, #8
 8000a7c:	af02      	add	r7, sp, #8
 8000a7e:	f64f 70e0 	movw	r0, #65504	@ 0xffe0
 8000a82:	f7ff fe7b 	bl	800077c <ST7789_Fill>
 8000a86:	2304      	movs	r3, #4
 8000a88:	9300      	str	r3, [sp, #0]
 8000a8a:	f44f 4378 	mov.w	r3, #63488	@ 0xf800
 8000a8e:	4a0a      	ldr	r2, [pc, #40]	@ (8000ab8 <serial_mode_lcd+0x40>)
 8000a90:	2158      	movs	r1, #88	@ 0x58
 8000a92:	2058      	movs	r0, #88	@ 0x58
 8000a94:	f002 fa5a 	bl	8002f4c <ST7789_DrawString>
 8000a98:	2304      	movs	r3, #4
 8000a9a:	9300      	str	r3, [sp, #0]
 8000a9c:	f44f 4378 	mov.w	r3, #63488	@ 0xf800
 8000aa0:	4a06      	ldr	r2, [pc, #24]	@ (8000abc <serial_mode_lcd+0x44>)
 8000aa2:	2178      	movs	r1, #120	@ 0x78
 8000aa4:	2070      	movs	r0, #112	@ 0x70
 8000aa6:	f002 fa51 	bl	8002f4c <ST7789_DrawString>
 8000aaa:	2008      	movs	r0, #8
 8000aac:	f007 f912 	bl	8007cd4 <delay_ms>
 8000ab0:	bf00      	nop
 8000ab2:	46bd      	mov	sp, r7
 8000ab4:	bd80      	pop	{r7, pc}
 8000ab6:	bf00      	nop
 8000ab8:	0800a38c 	.word	0x0800a38c
 8000abc:	0800a378 	.word	0x0800a378

08000ac0 <ability_check_mode_lcd>:
 8000ac0:	b580      	push	{r7, lr}
 8000ac2:	b082      	sub	sp, #8
 8000ac4:	af02      	add	r7, sp, #8
 8000ac6:	f64f 70e0 	movw	r0, #65504	@ 0xffe0
 8000aca:	f7ff fe57 	bl	800077c <ST7789_Fill>
 8000ace:	2304      	movs	r3, #4
 8000ad0:	9300      	str	r3, [sp, #0]
 8000ad2:	f44f 4378 	mov.w	r3, #63488	@ 0xf800
 8000ad6:	4a0a      	ldr	r2, [pc, #40]	@ (8000b00 <ability_check_mode_lcd+0x40>)
 8000ad8:	2158      	movs	r1, #88	@ 0x58
 8000ada:	2012      	movs	r0, #18
 8000adc:	f002 fa36 	bl	8002f4c <ST7789_DrawString>
 8000ae0:	2304      	movs	r3, #4
 8000ae2:	9300      	str	r3, [sp, #0]
 8000ae4:	f44f 4378 	mov.w	r3, #63488	@ 0xf800
 8000ae8:	4a06      	ldr	r2, [pc, #24]	@ (8000b04 <ability_check_mode_lcd+0x44>)
 8000aea:	2178      	movs	r1, #120	@ 0x78
 8000aec:	2070      	movs	r0, #112	@ 0x70
 8000aee:	f002 fa2d 	bl	8002f4c <ST7789_DrawString>
 8000af2:	2008      	movs	r0, #8
 8000af4:	f007 f8ee 	bl	8007cd4 <delay_ms>
 8000af8:	bf00      	nop
 8000afa:	46bd      	mov	sp, r7
 8000afc:	bd80      	pop	{r7, pc}
 8000afe:	bf00      	nop
 8000b00:	0800a394 	.word	0x0800a394
 8000b04:	0800a378 	.word	0x0800a378

08000b08 <program_start_mode_lcd>:
 8000b08:	b580      	push	{r7, lr}
 8000b0a:	b082      	sub	sp, #8
 8000b0c:	af02      	add	r7, sp, #8
 8000b0e:	f64f 70e0 	movw	r0, #65504	@ 0xffe0
 8000b12:	f7ff fe33 	bl	800077c <ST7789_Fill>
 8000b16:	2304      	movs	r3, #4
 8000b18:	9300      	str	r3, [sp, #0]
 8000b1a:	f44f 4378 	mov.w	r3, #63488	@ 0xf800
 8000b1e:	4a05      	ldr	r2, [pc, #20]	@ (8000b34 <program_start_mode_lcd+0x2c>)
 8000b20:	2164      	movs	r1, #100	@ 0x64
 8000b22:	2068      	movs	r0, #104	@ 0x68
 8000b24:	f002 fa12 	bl	8002f4c <ST7789_DrawString>
 8000b28:	2008      	movs	r0, #8
 8000b2a:	f007 f8d3 	bl	8007cd4 <delay_ms>
 8000b2e:	bf00      	nop
 8000b30:	46bd      	mov	sp, r7
 8000b32:	bd80      	pop	{r7, pc}
 8000b34:	0800a3a4 	.word	0x0800a3a4

08000b38 <character_menu>:
 8000b38:	b580      	push	{r7, lr}
 8000b3a:	b08a      	sub	sp, #40	@ 0x28
 8000b3c:	af02      	add	r7, sp, #8
 8000b3e:	6078      	str	r0, [r7, #4]
 8000b40:	6039      	str	r1, [r7, #0]
 8000b42:	f64f 73e0 	movw	r3, #65504	@ 0xffe0
 8000b46:	9300      	str	r3, [sp, #0]
 8000b48:	23c8      	movs	r3, #200	@ 0xc8
 8000b4a:	22f0      	movs	r2, #240	@ 0xf0
 8000b4c:	213c      	movs	r1, #60	@ 0x3c
 8000b4e:	2000      	movs	r0, #0
 8000b50:	f7ff feb8 	bl	80008c4 <ST7789_FillRect>
 8000b54:	2303      	movs	r3, #3
 8000b56:	9300      	str	r3, [sp, #0]
 8000b58:	f44f 4378 	mov.w	r3, #63488	@ 0xf800
 8000b5c:	4a5a      	ldr	r2, [pc, #360]	@ (8000cc8 <character_menu+0x190>)
 8000b5e:	2114      	movs	r1, #20
 8000b60:	200a      	movs	r0, #10
 8000b62:	f002 f9f3 	bl	8002f4c <ST7789_DrawString>
 8000b66:	233c      	movs	r3, #60	@ 0x3c
 8000b68:	61fb      	str	r3, [r7, #28]
 8000b6a:	2301      	movs	r3, #1
 8000b6c:	61bb      	str	r3, [r7, #24]
 8000b6e:	4b57      	ldr	r3, [pc, #348]	@ (8000ccc <character_menu+0x194>)
 8000b70:	681b      	ldr	r3, [r3, #0]
 8000b72:	617b      	str	r3, [r7, #20]
 8000b74:	e078      	b.n	8000c68 <character_menu+0x130>
 8000b76:	4b56      	ldr	r3, [pc, #344]	@ (8000cd0 <character_menu+0x198>)
 8000b78:	681b      	ldr	r3, [r3, #0]
 8000b7a:	697a      	ldr	r2, [r7, #20]
 8000b7c:	429a      	cmp	r2, r3
 8000b7e:	d103      	bne.n	8000b88 <character_menu+0x50>
 8000b80:	f647 73ff 	movw	r3, #32767	@ 0x7fff
 8000b84:	827b      	strh	r3, [r7, #18]
 8000b86:	e010      	b.n	8000baa <character_menu+0x72>
 8000b88:	4b51      	ldr	r3, [pc, #324]	@ (8000cd0 <character_menu+0x198>)
 8000b8a:	681b      	ldr	r3, [r3, #0]
 8000b8c:	f1b3 3fff 	cmp.w	r3, #4294967295
 8000b90:	d108      	bne.n	8000ba4 <character_menu+0x6c>
 8000b92:	4b50      	ldr	r3, [pc, #320]	@ (8000cd4 <character_menu+0x19c>)
 8000b94:	681b      	ldr	r3, [r3, #0]
 8000b96:	697a      	ldr	r2, [r7, #20]
 8000b98:	429a      	cmp	r2, r3
 8000b9a:	d103      	bne.n	8000ba4 <character_menu+0x6c>
 8000b9c:	f44f 4378 	mov.w	r3, #63488	@ 0xf800
 8000ba0:	827b      	strh	r3, [r7, #18]
 8000ba2:	e002      	b.n	8000baa <character_menu+0x72>
 8000ba4:	f64b 4340 	movw	r3, #48192	@ 0xbc40
 8000ba8:	827b      	strh	r3, [r7, #18]
 8000baa:	697b      	ldr	r3, [r7, #20]
 8000bac:	22d3      	movs	r2, #211	@ 0xd3
 8000bae:	fb02 f303 	mul.w	r3, r2, r3
 8000bb2:	687a      	ldr	r2, [r7, #4]
 8000bb4:	4413      	add	r3, r2
 8000bb6:	781b      	ldrb	r3, [r3, #0]
 8000bb8:	2b01      	cmp	r3, #1
 8000bba:	d136      	bne.n	8000c2a <character_menu+0xf2>
 8000bbc:	2345      	movs	r3, #69	@ 0x45
 8000bbe:	723b      	strb	r3, [r7, #8]
 8000bc0:	234e      	movs	r3, #78	@ 0x4e
 8000bc2:	727b      	strb	r3, [r7, #9]
 8000bc4:	2345      	movs	r3, #69	@ 0x45
 8000bc6:	72bb      	strb	r3, [r7, #10]
 8000bc8:	234d      	movs	r3, #77	@ 0x4d
 8000bca:	72fb      	strb	r3, [r7, #11]
 8000bcc:	2359      	movs	r3, #89	@ 0x59
 8000bce:	733b      	strb	r3, [r7, #12]
 8000bd0:	69bb      	ldr	r3, [r7, #24]
 8000bd2:	4a41      	ldr	r2, [pc, #260]	@ (8000cd8 <character_menu+0x1a0>)
 8000bd4:	fb82 1203 	smull	r1, r2, r2, r3
 8000bd8:	1092      	asrs	r2, r2, #2
 8000bda:	17db      	asrs	r3, r3, #31
 8000bdc:	1ad3      	subs	r3, r2, r3
 8000bde:	b2db      	uxtb	r3, r3
 8000be0:	3330      	adds	r3, #48	@ 0x30
 8000be2:	b2db      	uxtb	r3, r3
 8000be4:	737b      	strb	r3, [r7, #13]
 8000be6:	69ba      	ldr	r2, [r7, #24]
 8000be8:	4b3b      	ldr	r3, [pc, #236]	@ (8000cd8 <character_menu+0x1a0>)
 8000bea:	fb83 1302 	smull	r1, r3, r3, r2
 8000bee:	1099      	asrs	r1, r3, #2
 8000bf0:	17d3      	asrs	r3, r2, #31
 8000bf2:	1ac9      	subs	r1, r1, r3
 8000bf4:	460b      	mov	r3, r1
 8000bf6:	009b      	lsls	r3, r3, #2
 8000bf8:	440b      	add	r3, r1
 8000bfa:	005b      	lsls	r3, r3, #1
 8000bfc:	1ad1      	subs	r1, r2, r3
 8000bfe:	b2cb      	uxtb	r3, r1
 8000c00:	3330      	adds	r3, #48	@ 0x30
 8000c02:	b2db      	uxtb	r3, r3
 8000c04:	73bb      	strb	r3, [r7, #14]
 8000c06:	2300      	movs	r3, #0
 8000c08:	73fb      	strb	r3, [r7, #15]
 8000c0a:	69fb      	ldr	r3, [r7, #28]
 8000c0c:	b299      	uxth	r1, r3
 8000c0e:	8a7b      	ldrh	r3, [r7, #18]
 8000c10:	f107 0208 	add.w	r2, r7, #8
 8000c14:	2002      	movs	r0, #2
 8000c16:	9000      	str	r0, [sp, #0]
 8000c18:	200a      	movs	r0, #10
 8000c1a:	f002 f997 	bl	8002f4c <ST7789_DrawString>
 8000c1e:	69fb      	ldr	r3, [r7, #28]
 8000c20:	3314      	adds	r3, #20
 8000c22:	61fb      	str	r3, [r7, #28]
 8000c24:	69bb      	ldr	r3, [r7, #24]
 8000c26:	3301      	adds	r3, #1
 8000c28:	61bb      	str	r3, [r7, #24]
 8000c2a:	697b      	ldr	r3, [r7, #20]
 8000c2c:	22d3      	movs	r2, #211	@ 0xd3
 8000c2e:	fb02 f303 	mul.w	r3, r2, r3
 8000c32:	687a      	ldr	r2, [r7, #4]
 8000c34:	4413      	add	r3, r2
 8000c36:	781b      	ldrb	r3, [r3, #0]
 8000c38:	2b1f      	cmp	r3, #31
 8000c3a:	d912      	bls.n	8000c62 <character_menu+0x12a>
 8000c3c:	69fb      	ldr	r3, [r7, #28]
 8000c3e:	b299      	uxth	r1, r3
 8000c40:	697b      	ldr	r3, [r7, #20]
 8000c42:	22d3      	movs	r2, #211	@ 0xd3
 8000c44:	fb02 f303 	mul.w	r3, r2, r3
 8000c48:	687a      	ldr	r2, [r7, #4]
 8000c4a:	4413      	add	r3, r2
 8000c4c:	4618      	mov	r0, r3
 8000c4e:	8a7b      	ldrh	r3, [r7, #18]
 8000c50:	2202      	movs	r2, #2
 8000c52:	9200      	str	r2, [sp, #0]
 8000c54:	4602      	mov	r2, r0
 8000c56:	200a      	movs	r0, #10
 8000c58:	f002 f978 	bl	8002f4c <ST7789_DrawString>
 8000c5c:	69fb      	ldr	r3, [r7, #28]
 8000c5e:	3314      	adds	r3, #20
 8000c60:	61fb      	str	r3, [r7, #28]
 8000c62:	697b      	ldr	r3, [r7, #20]
 8000c64:	3301      	adds	r3, #1
 8000c66:	617b      	str	r3, [r7, #20]
 8000c68:	4b18      	ldr	r3, [pc, #96]	@ (8000ccc <character_menu+0x194>)
 8000c6a:	681a      	ldr	r2, [r3, #0]
 8000c6c:	4b1b      	ldr	r3, [pc, #108]	@ (8000cdc <character_menu+0x1a4>)
 8000c6e:	681b      	ldr	r3, [r3, #0]
 8000c70:	4413      	add	r3, r2
 8000c72:	697a      	ldr	r2, [r7, #20]
 8000c74:	429a      	cmp	r2, r3
 8000c76:	f6ff af7e 	blt.w	8000b76 <character_menu+0x3e>
 8000c7a:	4b16      	ldr	r3, [pc, #88]	@ (8000cd4 <character_menu+0x19c>)
 8000c7c:	681b      	ldr	r3, [r3, #0]
 8000c7e:	683a      	ldr	r2, [r7, #0]
 8000c80:	429a      	cmp	r2, r3
 8000c82:	d102      	bne.n	8000c8a <character_menu+0x152>
 8000c84:	f64f 73ff 	movw	r3, #65535	@ 0xffff
 8000c88:	e001      	b.n	8000c8e <character_menu+0x156>
 8000c8a:	f64b 4340 	movw	r3, #48192	@ 0xbc40
 8000c8e:	2202      	movs	r2, #2
 8000c90:	9200      	str	r2, [sp, #0]
 8000c92:	4a13      	ldr	r2, [pc, #76]	@ (8000ce0 <character_menu+0x1a8>)
 8000c94:	21c8      	movs	r1, #200	@ 0xc8
 8000c96:	200a      	movs	r0, #10
 8000c98:	f002 f958 	bl	8002f4c <ST7789_DrawString>
 8000c9c:	683b      	ldr	r3, [r7, #0]
 8000c9e:	1c5a      	adds	r2, r3, #1
 8000ca0:	4b0c      	ldr	r3, [pc, #48]	@ (8000cd4 <character_menu+0x19c>)
 8000ca2:	681b      	ldr	r3, [r3, #0]
 8000ca4:	429a      	cmp	r2, r3
 8000ca6:	d102      	bne.n	8000cae <character_menu+0x176>
 8000ca8:	f64f 73ff 	movw	r3, #65535	@ 0xffff
 8000cac:	e001      	b.n	8000cb2 <character_menu+0x17a>
 8000cae:	f64b 4340 	movw	r3, #48192	@ 0xbc40
 8000cb2:	2202      	movs	r2, #2
 8000cb4:	9200      	str	r2, [sp, #0]
 8000cb6:	4a0b      	ldr	r2, [pc, #44]	@ (8000ce4 <character_menu+0x1ac>)
 8000cb8:	21dc      	movs	r1, #220	@ 0xdc
 8000cba:	200a      	movs	r0, #10
 8000cbc:	f002 f946 	bl	8002f4c <ST7789_DrawString>
 8000cc0:	bf00      	nop
 8000cc2:	3720      	adds	r7, #32
 8000cc4:	46bd      	mov	sp, r7
 8000cc6:	bd80      	pop	{r7, pc}
 8000cc8:	0800a3ac 	.word	0x0800a3ac
 8000ccc:	20000614 	.word	0x20000614
 8000cd0:	20000000 	.word	0x20000000
 8000cd4:	20000610 	.word	0x20000610
 8000cd8:	66666667 	.word	0x66666667
 8000cdc:	2000057c 	.word	0x2000057c
 8000ce0:	0800a3b8 	.word	0x0800a3b8
 8000ce4:	0800a3c0 	.word	0x0800a3c0

08000ce8 <action_menu>:
 8000ce8:	b580      	push	{r7, lr}
 8000cea:	b086      	sub	sp, #24
 8000cec:	af02      	add	r7, sp, #8
 8000cee:	f64f 73e0 	movw	r3, #65504	@ 0xffe0
 8000cf2:	9300      	str	r3, [sp, #0]
 8000cf4:	23c8      	movs	r3, #200	@ 0xc8
 8000cf6:	22f0      	movs	r2, #240	@ 0xf0
 8000cf8:	213c      	movs	r1, #60	@ 0x3c
 8000cfa:	2000      	movs	r0, #0
 8000cfc:	f7ff fde2 	bl	80008c4 <ST7789_FillRect>
 8000d00:	233c      	movs	r3, #60	@ 0x3c
 8000d02:	60fb      	str	r3, [r7, #12]
 8000d04:	4b18      	ldr	r3, [pc, #96]	@ (8000d68 <action_menu+0x80>)
 8000d06:	681b      	ldr	r3, [r3, #0]
 8000d08:	60bb      	str	r3, [r7, #8]
 8000d0a:	e020      	b.n	8000d4e <action_menu+0x66>
 8000d0c:	4b17      	ldr	r3, [pc, #92]	@ (8000d6c <action_menu+0x84>)
 8000d0e:	681b      	ldr	r3, [r3, #0]
 8000d10:	68ba      	ldr	r2, [r7, #8]
 8000d12:	429a      	cmp	r2, r3
 8000d14:	d103      	bne.n	8000d1e <action_menu+0x36>
 8000d16:	f44f 4378 	mov.w	r3, #63488	@ 0xf800
 8000d1a:	80fb      	strh	r3, [r7, #6]
 8000d1c:	e002      	b.n	8000d24 <action_menu+0x3c>
 8000d1e:	f64b 4340 	movw	r3, #48192	@ 0xbc40
 8000d22:	80fb      	strh	r3, [r7, #6]
 8000d24:	68fb      	ldr	r3, [r7, #12]
 8000d26:	b299      	uxth	r1, r3
 8000d28:	68ba      	ldr	r2, [r7, #8]
 8000d2a:	4613      	mov	r3, r2
 8000d2c:	009b      	lsls	r3, r3, #2
 8000d2e:	4413      	add	r3, r2
 8000d30:	009b      	lsls	r3, r3, #2
 8000d32:	4a0f      	ldr	r2, [pc, #60]	@ (8000d70 <action_menu+0x88>)
 8000d34:	441a      	add	r2, r3
 8000d36:	88fb      	ldrh	r3, [r7, #6]
 8000d38:	2002      	movs	r0, #2
 8000d3a:	9000      	str	r0, [sp, #0]
 8000d3c:	200a      	movs	r0, #10
 8000d3e:	f002 f905 	bl	8002f4c <ST7789_DrawString>
 8000d42:	68fb      	ldr	r3, [r7, #12]
 8000d44:	3314      	adds	r3, #20
 8000d46:	60fb      	str	r3, [r7, #12]
 8000d48:	68bb      	ldr	r3, [r7, #8]
 8000d4a:	3301      	adds	r3, #1
 8000d4c:	60bb      	str	r3, [r7, #8]
 8000d4e:	4b06      	ldr	r3, [pc, #24]	@ (8000d68 <action_menu+0x80>)
 8000d50:	681a      	ldr	r2, [r3, #0]
 8000d52:	4b08      	ldr	r3, [pc, #32]	@ (8000d74 <action_menu+0x8c>)
 8000d54:	681b      	ldr	r3, [r3, #0]
 8000d56:	4413      	add	r3, r2
 8000d58:	68ba      	ldr	r2, [r7, #8]
 8000d5a:	429a      	cmp	r2, r3
 8000d5c:	dbd6      	blt.n	8000d0c <action_menu+0x24>
 8000d5e:	bf00      	nop
 8000d60:	bf00      	nop
 8000d62:	3710      	adds	r7, #16
 8000d64:	46bd      	mov	sp, r7
 8000d66:	bd80      	pop	{r7, pc}
 8000d68:	20000614 	.word	0x20000614
 8000d6c:	20000610 	.word	0x20000610
 8000d70:	20000004 	.word	0x20000004
 8000d74:	2000057c 	.word	0x2000057c

08000d78 <lcd_weapon_select_prompt_draw>:
 8000d78:	b580      	push	{r7, lr}
 8000d7a:	b08a      	sub	sp, #40	@ 0x28
 8000d7c:	af02      	add	r7, sp, #8
 8000d7e:	6078      	str	r0, [r7, #4]
 8000d80:	2314      	movs	r3, #20
 8000d82:	61fb      	str	r3, [r7, #28]
 8000d84:	2300      	movs	r3, #0
 8000d86:	617b      	str	r3, [r7, #20]
 8000d88:	e080      	b.n	8000e8c <lcd_weapon_select_prompt_draw+0x114>
 8000d8a:	697b      	ldr	r3, [r7, #20]
 8000d8c:	687a      	ldr	r2, [r7, #4]
 8000d8e:	4413      	add	r3, r2
 8000d90:	781b      	ldrb	r3, [r3, #0]
 8000d92:	2b00      	cmp	r3, #0
 8000d94:	d077      	beq.n	8000e86 <lcd_weapon_select_prompt_draw+0x10e>
 8000d96:	69fb      	ldr	r3, [r7, #28]
 8000d98:	3328      	adds	r3, #40	@ 0x28
 8000d9a:	61fb      	str	r3, [r7, #28]
 8000d9c:	4b40      	ldr	r3, [pc, #256]	@ (8000ea0 <lcd_weapon_select_prompt_draw+0x128>)
 8000d9e:	681b      	ldr	r3, [r3, #0]
 8000da0:	697a      	ldr	r2, [r7, #20]
 8000da2:	429a      	cmp	r2, r3
 8000da4:	d103      	bne.n	8000dae <lcd_weapon_select_prompt_draw+0x36>
 8000da6:	f44f 4378 	mov.w	r3, #63488	@ 0xf800
 8000daa:	837b      	strh	r3, [r7, #26]
 8000dac:	e002      	b.n	8000db4 <lcd_weapon_select_prompt_draw+0x3c>
 8000dae:	f647 030f 	movw	r3, #30735	@ 0x780f
 8000db2:	837b      	strh	r3, [r7, #26]
 8000db4:	69fb      	ldr	r3, [r7, #28]
 8000db6:	b299      	uxth	r1, r3
 8000db8:	697b      	ldr	r3, [r7, #20]
 8000dba:	687a      	ldr	r2, [r7, #4]
 8000dbc:	4413      	add	r3, r2
 8000dbe:	781b      	ldrb	r3, [r3, #0]
 8000dc0:	461a      	mov	r2, r3
 8000dc2:	4613      	mov	r3, r2
 8000dc4:	009b      	lsls	r3, r3, #2
 8000dc6:	4413      	add	r3, r2
 8000dc8:	009b      	lsls	r3, r3, #2
 8000dca:	4a36      	ldr	r2, [pc, #216]	@ (8000ea4 <lcd_weapon_select_prompt_draw+0x12c>)
 8000dcc:	441a      	add	r2, r3
 8000dce:	8b7b      	ldrh	r3, [r7, #26]
 8000dd0:	2002      	movs	r0, #2
 8000dd2:	9000      	str	r0, [sp, #0]
 8000dd4:	200a      	movs	r0, #10
 8000dd6:	f002 f8b9 	bl	8002f4c <ST7789_DrawString>
 8000dda:	697b      	ldr	r3, [r7, #20]
 8000ddc:	687a      	ldr	r2, [r7, #4]
 8000dde:	4413      	add	r3, r2
 8000de0:	781b      	ldrb	r3, [r3, #0]
 8000de2:	461a      	mov	r2, r3
 8000de4:	4b30      	ldr	r3, [pc, #192]	@ (8000ea8 <lcd_weapon_select_prompt_draw+0x130>)
 8000de6:	5c9b      	ldrb	r3, [r3, r2]
 8000de8:	091b      	lsrs	r3, r3, #4
 8000dea:	b2db      	uxtb	r3, r3
 8000dec:	613b      	str	r3, [r7, #16]
 8000dee:	693b      	ldr	r3, [r7, #16]
 8000df0:	4a2e      	ldr	r2, [pc, #184]	@ (8000eac <lcd_weapon_select_prompt_draw+0x134>)
 8000df2:	fb82 1203 	smull	r1, r2, r2, r3
 8000df6:	1092      	asrs	r2, r2, #2
 8000df8:	17db      	asrs	r3, r3, #31
 8000dfa:	1ad3      	subs	r3, r2, r3
 8000dfc:	b2db      	uxtb	r3, r3
 8000dfe:	3330      	adds	r3, #48	@ 0x30
 8000e00:	b2db      	uxtb	r3, r3
 8000e02:	723b      	strb	r3, [r7, #8]
 8000e04:	693a      	ldr	r2, [r7, #16]
 8000e06:	4b29      	ldr	r3, [pc, #164]	@ (8000eac <lcd_weapon_select_prompt_draw+0x134>)
 8000e08:	fb83 1302 	smull	r1, r3, r3, r2
 8000e0c:	1099      	asrs	r1, r3, #2
 8000e0e:	17d3      	asrs	r3, r2, #31
 8000e10:	1ac9      	subs	r1, r1, r3
 8000e12:	460b      	mov	r3, r1
 8000e14:	009b      	lsls	r3, r3, #2
 8000e16:	440b      	add	r3, r1
 8000e18:	005b      	lsls	r3, r3, #1
 8000e1a:	1ad1      	subs	r1, r2, r3
 8000e1c:	b2cb      	uxtb	r3, r1
 8000e1e:	3330      	adds	r3, #48	@ 0x30
 8000e20:	b2db      	uxtb	r3, r3
 8000e22:	727b      	strb	r3, [r7, #9]
 8000e24:	2364      	movs	r3, #100	@ 0x64
 8000e26:	72bb      	strb	r3, [r7, #10]
 8000e28:	697b      	ldr	r3, [r7, #20]
 8000e2a:	687a      	ldr	r2, [r7, #4]
 8000e2c:	4413      	add	r3, r2
 8000e2e:	781b      	ldrb	r3, [r3, #0]
 8000e30:	461a      	mov	r2, r3
 8000e32:	4b1d      	ldr	r3, [pc, #116]	@ (8000ea8 <lcd_weapon_select_prompt_draw+0x130>)
 8000e34:	5c9b      	ldrb	r3, [r3, r2]
 8000e36:	f003 030f 	and.w	r3, r3, #15
 8000e3a:	613b      	str	r3, [r7, #16]
 8000e3c:	693b      	ldr	r3, [r7, #16]
 8000e3e:	4a1b      	ldr	r2, [pc, #108]	@ (8000eac <lcd_weapon_select_prompt_draw+0x134>)
 8000e40:	fb82 1203 	smull	r1, r2, r2, r3
 8000e44:	1092      	asrs	r2, r2, #2
 8000e46:	17db      	asrs	r3, r3, #31
 8000e48:	1ad3      	subs	r3, r2, r3
 8000e4a:	b2db      	uxtb	r3, r3
 8000e4c:	3330      	adds	r3, #48	@ 0x30
 8000e4e:	b2db      	uxtb	r3, r3
 8000e50:	72fb      	strb	r3, [r7, #11]
 8000e52:	693a      	ldr	r2, [r7, #16]
 8000e54:	4b15      	ldr	r3, [pc, #84]	@ (8000eac <lcd_weapon_select_prompt_draw+0x134>)
 8000e56:	fb83 1302 	smull	r1, r3, r3, r2
 8000e5a:	1099      	asrs	r1, r3, #2
 8000e5c:	17d3      	asrs	r3, r2, #31
 8000e5e:	1ac9      	subs	r1, r1, r3
 8000e60:	460b      	mov	r3, r1
 8000e62:	009b      	lsls	r3, r3, #2
 8000e64:	440b      	add	r3, r1
 8000e66:	005b      	lsls	r3, r3, #1
 8000e68:	1ad1      	subs	r1, r2, r3
 8000e6a:	b2cb      	uxtb	r3, r1
 8000e6c:	3330      	adds	r3, #48	@ 0x30
 8000e6e:	b2db      	uxtb	r3, r3
 8000e70:	733b      	strb	r3, [r7, #12]
 8000e72:	69fb      	ldr	r3, [r7, #28]
 8000e74:	b299      	uxth	r1, r3
 8000e76:	8b7b      	ldrh	r3, [r7, #26]
 8000e78:	f107 0208 	add.w	r2, r7, #8
 8000e7c:	2002      	movs	r0, #2
 8000e7e:	9000      	str	r0, [sp, #0]
 8000e80:	20b4      	movs	r0, #180	@ 0xb4
 8000e82:	f002 f863 	bl	8002f4c <ST7789_DrawString>
 8000e86:	697b      	ldr	r3, [r7, #20]
 8000e88:	3301      	adds	r3, #1
 8000e8a:	617b      	str	r3, [r7, #20]
 8000e8c:	697b      	ldr	r3, [r7, #20]
 8000e8e:	2b07      	cmp	r3, #7
 8000e90:	f77f af7b 	ble.w	8000d8a <lcd_weapon_select_prompt_draw+0x12>
 8000e94:	bf00      	nop
 8000e96:	bf00      	nop
 8000e98:	3720      	adds	r7, #32
 8000e9a:	46bd      	mov	sp, r7
 8000e9c:	bd80      	pop	{r7, pc}
 8000e9e:	bf00      	nop
 8000ea0:	20001870 	.word	0x20001870
 8000ea4:	20000284 	.word	0x20000284
 8000ea8:	0800c4c4 	.word	0x0800c4c4
 8000eac:	66666667 	.word	0x66666667

08000eb0 <ability_check_menu>:
 8000eb0:	b580      	push	{r7, lr}
 8000eb2:	b086      	sub	sp, #24
 8000eb4:	af02      	add	r7, sp, #8
 8000eb6:	f64f 73e0 	movw	r3, #65504	@ 0xffe0
 8000eba:	9300      	str	r3, [sp, #0]
 8000ebc:	23c8      	movs	r3, #200	@ 0xc8
 8000ebe:	22f0      	movs	r2, #240	@ 0xf0
 8000ec0:	213c      	movs	r1, #60	@ 0x3c
 8000ec2:	2000      	movs	r0, #0
 8000ec4:	f7ff fcfe 	bl	80008c4 <ST7789_FillRect>
 8000ec8:	233c      	movs	r3, #60	@ 0x3c
 8000eca:	60fb      	str	r3, [r7, #12]
 8000ecc:	4b18      	ldr	r3, [pc, #96]	@ (8000f30 <ability_check_menu+0x80>)
 8000ece:	681b      	ldr	r3, [r3, #0]
 8000ed0:	60bb      	str	r3, [r7, #8]
 8000ed2:	e020      	b.n	8000f16 <ability_check_menu+0x66>
 8000ed4:	4b17      	ldr	r3, [pc, #92]	@ (8000f34 <ability_check_menu+0x84>)
 8000ed6:	681b      	ldr	r3, [r3, #0]
 8000ed8:	68ba      	ldr	r2, [r7, #8]
 8000eda:	429a      	cmp	r2, r3
 8000edc:	d103      	bne.n	8000ee6 <ability_check_menu+0x36>
 8000ede:	f44f 4378 	mov.w	r3, #63488	@ 0xf800
 8000ee2:	80fb      	strh	r3, [r7, #6]
 8000ee4:	e002      	b.n	8000eec <ability_check_menu+0x3c>
 8000ee6:	f64b 4340 	movw	r3, #48192	@ 0xbc40
 8000eea:	80fb      	strh	r3, [r7, #6]
 8000eec:	68fb      	ldr	r3, [r7, #12]
 8000eee:	b299      	uxth	r1, r3
 8000ef0:	68ba      	ldr	r2, [r7, #8]
 8000ef2:	4613      	mov	r3, r2
 8000ef4:	009b      	lsls	r3, r3, #2
 8000ef6:	4413      	add	r3, r2
 8000ef8:	009b      	lsls	r3, r3, #2
 8000efa:	4a0f      	ldr	r2, [pc, #60]	@ (8000f38 <ability_check_menu+0x88>)
 8000efc:	441a      	add	r2, r3
 8000efe:	88fb      	ldrh	r3, [r7, #6]
 8000f00:	2002      	movs	r0, #2
 8000f02:	9000      	str	r0, [sp, #0]
 8000f04:	200a      	movs	r0, #10
 8000f06:	f002 f821 	bl	8002f4c <ST7789_DrawString>
 8000f0a:	68fb      	ldr	r3, [r7, #12]
 8000f0c:	3314      	adds	r3, #20
 8000f0e:	60fb      	str	r3, [r7, #12]
 8000f10:	68bb      	ldr	r3, [r7, #8]
 8000f12:	3301      	adds	r3, #1
 8000f14:	60bb      	str	r3, [r7, #8]
 8000f16:	4b06      	ldr	r3, [pc, #24]	@ (8000f30 <ability_check_menu+0x80>)
 8000f18:	681a      	ldr	r2, [r3, #0]
 8000f1a:	4b08      	ldr	r3, [pc, #32]	@ (8000f3c <ability_check_menu+0x8c>)
 8000f1c:	681b      	ldr	r3, [r3, #0]
 8000f1e:	4413      	add	r3, r2
 8000f20:	68ba      	ldr	r2, [r7, #8]
 8000f22:	429a      	cmp	r2, r3
 8000f24:	dbd6      	blt.n	8000ed4 <ability_check_menu+0x24>
 8000f26:	bf00      	nop
 8000f28:	bf00      	nop
 8000f2a:	3710      	adds	r7, #16
 8000f2c:	46bd      	mov	sp, r7
 8000f2e:	bd80      	pop	{r7, pc}
 8000f30:	20000614 	.word	0x20000614
 8000f34:	20000610 	.word	0x20000610
 8000f38:	20000108 	.word	0x20000108
 8000f3c:	2000057c 	.word	0x2000057c

08000f40 <character_check_menu>:
 8000f40:	b580      	push	{r7, lr}
 8000f42:	b088      	sub	sp, #32
 8000f44:	af02      	add	r7, sp, #8
 8000f46:	6078      	str	r0, [r7, #4]
 8000f48:	f64f 73e0 	movw	r3, #65504	@ 0xffe0
 8000f4c:	9300      	str	r3, [sp, #0]
 8000f4e:	23c8      	movs	r3, #200	@ 0xc8
 8000f50:	22f0      	movs	r2, #240	@ 0xf0
 8000f52:	213c      	movs	r1, #60	@ 0x3c
 8000f54:	2000      	movs	r0, #0
 8000f56:	f7ff fcb5 	bl	80008c4 <ST7789_FillRect>
 8000f5a:	233c      	movs	r3, #60	@ 0x3c
 8000f5c:	617b      	str	r3, [r7, #20]
 8000f5e:	2300      	movs	r3, #0
 8000f60:	60fb      	str	r3, [r7, #12]
 8000f62:	e02a      	b.n	8000fba <character_check_menu+0x7a>
 8000f64:	68fb      	ldr	r3, [r7, #12]
 8000f66:	22d3      	movs	r2, #211	@ 0xd3
 8000f68:	fb02 f303 	mul.w	r3, r2, r3
 8000f6c:	687a      	ldr	r2, [r7, #4]
 8000f6e:	4413      	add	r3, r2
 8000f70:	781b      	ldrb	r3, [r3, #0]
 8000f72:	2b00      	cmp	r3, #0
 8000f74:	d01e      	beq.n	8000fb4 <character_check_menu+0x74>
 8000f76:	697b      	ldr	r3, [r7, #20]
 8000f78:	3314      	adds	r3, #20
 8000f7a:	617b      	str	r3, [r7, #20]
 8000f7c:	4b13      	ldr	r3, [pc, #76]	@ (8000fcc <character_check_menu+0x8c>)
 8000f7e:	681b      	ldr	r3, [r3, #0]
 8000f80:	68fa      	ldr	r2, [r7, #12]
 8000f82:	429a      	cmp	r2, r3
 8000f84:	d103      	bne.n	8000f8e <character_check_menu+0x4e>
 8000f86:	f44f 4378 	mov.w	r3, #63488	@ 0xf800
 8000f8a:	827b      	strh	r3, [r7, #18]
 8000f8c:	e002      	b.n	8000f94 <character_check_menu+0x54>
 8000f8e:	f647 030f 	movw	r3, #30735	@ 0x780f
 8000f92:	827b      	strh	r3, [r7, #18]
 8000f94:	697b      	ldr	r3, [r7, #20]
 8000f96:	b299      	uxth	r1, r3
 8000f98:	68fb      	ldr	r3, [r7, #12]
 8000f9a:	22d3      	movs	r2, #211	@ 0xd3
 8000f9c:	fb02 f303 	mul.w	r3, r2, r3
 8000fa0:	687a      	ldr	r2, [r7, #4]
 8000fa2:	4413      	add	r3, r2
 8000fa4:	4618      	mov	r0, r3
 8000fa6:	8a7b      	ldrh	r3, [r7, #18]
 8000fa8:	2202      	movs	r2, #2
 8000faa:	9200      	str	r2, [sp, #0]
 8000fac:	4602      	mov	r2, r0
 8000fae:	200a      	movs	r0, #10
 8000fb0:	f001 ffcc 	bl	8002f4c <ST7789_DrawString>
 8000fb4:	68fb      	ldr	r3, [r7, #12]
 8000fb6:	3301      	adds	r3, #1
 8000fb8:	60fb      	str	r3, [r7, #12]
 8000fba:	68fb      	ldr	r3, [r7, #12]
 8000fbc:	2b05      	cmp	r3, #5
 8000fbe:	ddd1      	ble.n	8000f64 <character_check_menu+0x24>
 8000fc0:	bf00      	nop
 8000fc2:	bf00      	nop
 8000fc4:	3718      	adds	r7, #24
 8000fc6:	46bd      	mov	sp, r7
 8000fc8:	bd80      	pop	{r7, pc}
 8000fca:	bf00      	nop
 8000fcc:	20001870 	.word	0x20001870

08000fd0 <scroll_character_info>:
 8000fd0:	b580      	push	{r7, lr}
 8000fd2:	b094      	sub	sp, #80	@ 0x50
 8000fd4:	af02      	add	r7, sp, #8
 8000fd6:	6078      	str	r0, [r7, #4]
 8000fd8:	6039      	str	r1, [r7, #0]
 8000fda:	2314      	movs	r3, #20
 8000fdc:	62fb      	str	r3, [r7, #44]	@ 0x2c
 8000fde:	6afb      	ldr	r3, [r7, #44]	@ 0x2c
 8000fe0:	62bb      	str	r3, [r7, #40]	@ 0x28
 8000fe2:	231c      	movs	r3, #28
 8000fe4:	627b      	str	r3, [r7, #36]	@ 0x24
 8000fe6:	2300      	movs	r3, #0
 8000fe8:	647b      	str	r3, [r7, #68]	@ 0x44
 8000fea:	e07d      	b.n	80010e8 <scroll_character_info+0x118>
 8000fec:	6c7b      	ldr	r3, [r7, #68]	@ 0x44
 8000fee:	687a      	ldr	r2, [r7, #4]
 8000ff0:	fb02 f303 	mul.w	r3, r2, r3
 8000ff4:	623b      	str	r3, [r7, #32]
 8000ff6:	f64f 73e0 	movw	r3, #65504	@ 0xffe0
 8000ffa:	9300      	str	r3, [sp, #0]
 8000ffc:	23c8      	movs	r3, #200	@ 0xc8
 8000ffe:	22f0      	movs	r2, #240	@ 0xf0
 8001000:	213c      	movs	r1, #60	@ 0x3c
 8001002:	2000      	movs	r0, #0
 8001004:	f7ff fc5e 	bl	80008c4 <ST7789_FillRect>
 8001008:	6a3b      	ldr	r3, [r7, #32]
 800100a:	f1c3 033c 	rsb	r3, r3, #60	@ 0x3c
 800100e:	643b      	str	r3, [r7, #64]	@ 0x40
 8001010:	2300      	movs	r3, #0
 8001012:	63fb      	str	r3, [r7, #60]	@ 0x3c
 8001014:	e05f      	b.n	80010d6 <scroll_character_info+0x106>
 8001016:	4b39      	ldr	r3, [pc, #228]	@ (80010fc <scroll_character_info+0x12c>)
 8001018:	681b      	ldr	r3, [r3, #0]
 800101a:	6bfa      	ldr	r2, [r7, #60]	@ 0x3c
 800101c:	4413      	add	r3, r2
 800101e:	61fb      	str	r3, [r7, #28]
 8001020:	69fb      	ldr	r3, [r7, #28]
 8001022:	2b00      	cmp	r3, #0
 8001024:	db53      	blt.n	80010ce <scroll_character_info+0xfe>
 8001026:	69fb      	ldr	r3, [r7, #28]
 8001028:	2b09      	cmp	r3, #9
 800102a:	dc50      	bgt.n	80010ce <scroll_character_info+0xfe>
 800102c:	4b34      	ldr	r3, [pc, #208]	@ (8001100 <scroll_character_info+0x130>)
 800102e:	681b      	ldr	r3, [r3, #0]
 8001030:	69fa      	ldr	r2, [r7, #28]
 8001032:	429a      	cmp	r2, r3
 8001034:	d103      	bne.n	800103e <scroll_character_info+0x6e>
 8001036:	f647 73ff 	movw	r3, #32767	@ 0x7fff
 800103a:	877b      	strh	r3, [r7, #58]	@ 0x3a
 800103c:	e010      	b.n	8001060 <scroll_character_info+0x90>
 800103e:	4b30      	ldr	r3, [pc, #192]	@ (8001100 <scroll_character_info+0x130>)
 8001040:	681b      	ldr	r3, [r3, #0]
 8001042:	f1b3 3fff 	cmp.w	r3, #4294967295
 8001046:	d108      	bne.n	800105a <scroll_character_info+0x8a>
 8001048:	4b2e      	ldr	r3, [pc, #184]	@ (8001104 <scroll_character_info+0x134>)
 800104a:	681b      	ldr	r3, [r3, #0]
 800104c:	69fa      	ldr	r2, [r7, #28]
 800104e:	429a      	cmp	r2, r3
 8001050:	d103      	bne.n	800105a <scroll_character_info+0x8a>
 8001052:	f44f 4378 	mov.w	r3, #63488	@ 0xf800
 8001056:	877b      	strh	r3, [r7, #58]	@ 0x3a
 8001058:	e002      	b.n	8001060 <scroll_character_info+0x90>
 800105a:	f64b 4340 	movw	r3, #48192	@ 0xbc40
 800105e:	877b      	strh	r3, [r7, #58]	@ 0x3a
 8001060:	2300      	movs	r3, #0
 8001062:	637b      	str	r3, [r7, #52]	@ 0x34
 8001064:	e01a      	b.n	800109c <scroll_character_info+0xcc>
 8001066:	2300      	movs	r3, #0
 8001068:	633b      	str	r3, [r7, #48]	@ 0x30
 800106a:	e011      	b.n	8001090 <scroll_character_info+0xc0>
 800106c:	6b7b      	ldr	r3, [r7, #52]	@ 0x34
 800106e:	22d3      	movs	r2, #211	@ 0xd3
 8001070:	fb02 f303 	mul.w	r3, r2, r3
 8001074:	683a      	ldr	r2, [r7, #0]
 8001076:	441a      	add	r2, r3
 8001078:	6b3b      	ldr	r3, [r7, #48]	@ 0x30
 800107a:	4413      	add	r3, r2
 800107c:	7819      	ldrb	r1, [r3, #0]
 800107e:	f107 0208 	add.w	r2, r7, #8
 8001082:	6b3b      	ldr	r3, [r7, #48]	@ 0x30
 8001084:	4413      	add	r3, r2
 8001086:	460a      	mov	r2, r1
 8001088:	701a      	strb	r2, [r3, #0]
 800108a:	6b3b      	ldr	r3, [r7, #48]	@ 0x30
 800108c:	3301      	adds	r3, #1
 800108e:	633b      	str	r3, [r7, #48]	@ 0x30
 8001090:	6b3b      	ldr	r3, [r7, #48]	@ 0x30
 8001092:	2b13      	cmp	r3, #19
 8001094:	ddea      	ble.n	800106c <scroll_character_info+0x9c>
 8001096:	6b7b      	ldr	r3, [r7, #52]	@ 0x34
 8001098:	3301      	adds	r3, #1
 800109a:	637b      	str	r3, [r7, #52]	@ 0x34
 800109c:	6b7b      	ldr	r3, [r7, #52]	@ 0x34
 800109e:	2b05      	cmp	r3, #5
 80010a0:	dde1      	ble.n	8001066 <scroll_character_info+0x96>
 80010a2:	6c3b      	ldr	r3, [r7, #64]	@ 0x40
 80010a4:	2b3b      	cmp	r3, #59	@ 0x3b
 80010a6:	dd0d      	ble.n	80010c4 <scroll_character_info+0xf4>
 80010a8:	6c3b      	ldr	r3, [r7, #64]	@ 0x40
 80010aa:	f5b3 7f82 	cmp.w	r3, #260	@ 0x104
 80010ae:	dc09      	bgt.n	80010c4 <scroll_character_info+0xf4>
 80010b0:	6c3b      	ldr	r3, [r7, #64]	@ 0x40
 80010b2:	b299      	uxth	r1, r3
 80010b4:	8f7b      	ldrh	r3, [r7, #58]	@ 0x3a
 80010b6:	f107 0208 	add.w	r2, r7, #8
 80010ba:	2002      	movs	r0, #2
 80010bc:	9000      	str	r0, [sp, #0]
 80010be:	200a      	movs	r0, #10
 80010c0:	f001 ff44 	bl	8002f4c <ST7789_DrawString>
 80010c4:	6c3a      	ldr	r2, [r7, #64]	@ 0x40
 80010c6:	6afb      	ldr	r3, [r7, #44]	@ 0x2c
 80010c8:	4413      	add	r3, r2
 80010ca:	643b      	str	r3, [r7, #64]	@ 0x40
 80010cc:	e000      	b.n	80010d0 <scroll_character_info+0x100>
 80010ce:	bf00      	nop
 80010d0:	6bfb      	ldr	r3, [r7, #60]	@ 0x3c
 80010d2:	3301      	adds	r3, #1
 80010d4:	63fb      	str	r3, [r7, #60]	@ 0x3c
 80010d6:	4b0c      	ldr	r3, [pc, #48]	@ (8001108 <scroll_character_info+0x138>)
 80010d8:	681b      	ldr	r3, [r3, #0]
 80010da:	6bfa      	ldr	r2, [r7, #60]	@ 0x3c
 80010dc:	429a      	cmp	r2, r3
 80010de:	dd9a      	ble.n	8001016 <scroll_character_info+0x46>
 80010e0:	6c7a      	ldr	r2, [r7, #68]	@ 0x44
 80010e2:	6a7b      	ldr	r3, [r7, #36]	@ 0x24
 80010e4:	4413      	add	r3, r2
 80010e6:	647b      	str	r3, [r7, #68]	@ 0x44
 80010e8:	6c7a      	ldr	r2, [r7, #68]	@ 0x44
 80010ea:	6abb      	ldr	r3, [r7, #40]	@ 0x28
 80010ec:	429a      	cmp	r2, r3
 80010ee:	f77f af7d 	ble.w	8000fec <scroll_character_info+0x1c>
 80010f2:	bf00      	nop
 80010f4:	bf00      	nop
 80010f6:	3748      	adds	r7, #72	@ 0x48
 80010f8:	46bd      	mov	sp, r7
 80010fa:	bd80      	pop	{r7, pc}
 80010fc:	20000614 	.word	0x20000614
 8001100:	20000000 	.word	0x20000000
 8001104:	20000610 	.word	0x20000610
 8001108:	2000057c 	.word	0x2000057c

0800110c <scroll_actions_info>:
 800110c:	b580      	push	{r7, lr}
 800110e:	b08e      	sub	sp, #56	@ 0x38
 8001110:	af02      	add	r7, sp, #8
 8001112:	6078      	str	r0, [r7, #4]
 8001114:	2314      	movs	r3, #20
 8001116:	61fb      	str	r3, [r7, #28]
 8001118:	69fb      	ldr	r3, [r7, #28]
 800111a:	61bb      	str	r3, [r7, #24]
 800111c:	231c      	movs	r3, #28
 800111e:	617b      	str	r3, [r7, #20]
 8001120:	2300      	movs	r3, #0
 8001122:	62fb      	str	r3, [r7, #44]	@ 0x2c
 8001124:	e061      	b.n	80011ea <scroll_actions_info+0xde>
 8001126:	6afb      	ldr	r3, [r7, #44]	@ 0x2c
 8001128:	687a      	ldr	r2, [r7, #4]
 800112a:	fb02 f303 	mul.w	r3, r2, r3
 800112e:	613b      	str	r3, [r7, #16]
 8001130:	f64f 73e0 	movw	r3, #65504	@ 0xffe0
 8001134:	9300      	str	r3, [sp, #0]
 8001136:	23c8      	movs	r3, #200	@ 0xc8
 8001138:	22f0      	movs	r2, #240	@ 0xf0
 800113a:	213c      	movs	r1, #60	@ 0x3c
 800113c:	2000      	movs	r0, #0
 800113e:	f7ff fbc1 	bl	80008c4 <ST7789_FillRect>
 8001142:	693b      	ldr	r3, [r7, #16]
 8001144:	f1c3 033c 	rsb	r3, r3, #60	@ 0x3c
 8001148:	62bb      	str	r3, [r7, #40]	@ 0x28
 800114a:	2300      	movs	r3, #0
 800114c:	627b      	str	r3, [r7, #36]	@ 0x24
 800114e:	e043      	b.n	80011d8 <scroll_actions_info+0xcc>
 8001150:	4b2a      	ldr	r3, [pc, #168]	@ (80011fc <scroll_actions_info+0xf0>)
 8001152:	681b      	ldr	r3, [r3, #0]
 8001154:	6a7a      	ldr	r2, [r7, #36]	@ 0x24
 8001156:	4413      	add	r3, r2
 8001158:	60fb      	str	r3, [r7, #12]
 800115a:	68fb      	ldr	r3, [r7, #12]
 800115c:	2b00      	cmp	r3, #0
 800115e:	db37      	blt.n	80011d0 <scroll_actions_info+0xc4>
 8001160:	68fb      	ldr	r3, [r7, #12]
 8001162:	2b09      	cmp	r3, #9
 8001164:	dc34      	bgt.n	80011d0 <scroll_actions_info+0xc4>
 8001166:	4b26      	ldr	r3, [pc, #152]	@ (8001200 <scroll_actions_info+0xf4>)
 8001168:	681b      	ldr	r3, [r3, #0]
 800116a:	68fa      	ldr	r2, [r7, #12]
 800116c:	429a      	cmp	r2, r3
 800116e:	d103      	bne.n	8001178 <scroll_actions_info+0x6c>
 8001170:	f647 73ff 	movw	r3, #32767	@ 0x7fff
 8001174:	847b      	strh	r3, [r7, #34]	@ 0x22
 8001176:	e010      	b.n	800119a <scroll_actions_info+0x8e>
 8001178:	4b21      	ldr	r3, [pc, #132]	@ (8001200 <scroll_actions_info+0xf4>)
 800117a:	681b      	ldr	r3, [r3, #0]
 800117c:	f1b3 3fff 	cmp.w	r3, #4294967295
 8001180:	d108      	bne.n	8001194 <scroll_actions_info+0x88>
 8001182:	4b20      	ldr	r3, [pc, #128]	@ (8001204 <scroll_actions_info+0xf8>)
 8001184:	681b      	ldr	r3, [r3, #0]
 8001186:	68fa      	ldr	r2, [r7, #12]
 8001188:	429a      	cmp	r2, r3
 800118a:	d103      	bne.n	8001194 <scroll_actions_info+0x88>
 800118c:	f44f 4378 	mov.w	r3, #63488	@ 0xf800
 8001190:	847b      	strh	r3, [r7, #34]	@ 0x22
 8001192:	e002      	b.n	800119a <scroll_actions_info+0x8e>
 8001194:	f64b 4340 	movw	r3, #48192	@ 0xbc40
 8001198:	847b      	strh	r3, [r7, #34]	@ 0x22
 800119a:	6abb      	ldr	r3, [r7, #40]	@ 0x28
 800119c:	2b3b      	cmp	r3, #59	@ 0x3b
 800119e:	dd12      	ble.n	80011c6 <scroll_actions_info+0xba>
 80011a0:	6abb      	ldr	r3, [r7, #40]	@ 0x28
 80011a2:	f5b3 7f82 	cmp.w	r3, #260	@ 0x104
 80011a6:	dc0e      	bgt.n	80011c6 <scroll_actions_info+0xba>
 80011a8:	6abb      	ldr	r3, [r7, #40]	@ 0x28
 80011aa:	b299      	uxth	r1, r3
 80011ac:	68fa      	ldr	r2, [r7, #12]
 80011ae:	4613      	mov	r3, r2
 80011b0:	009b      	lsls	r3, r3, #2
 80011b2:	4413      	add	r3, r2
 80011b4:	009b      	lsls	r3, r3, #2
 80011b6:	4a14      	ldr	r2, [pc, #80]	@ (8001208 <scroll_actions_info+0xfc>)
 80011b8:	441a      	add	r2, r3
 80011ba:	8c7b      	ldrh	r3, [r7, #34]	@ 0x22
 80011bc:	2002      	movs	r0, #2
 80011be:	9000      	str	r0, [sp, #0]
 80011c0:	200a      	movs	r0, #10
 80011c2:	f001 fec3 	bl	8002f4c <ST7789_DrawString>
 80011c6:	6aba      	ldr	r2, [r7, #40]	@ 0x28
 80011c8:	69fb      	ldr	r3, [r7, #28]
 80011ca:	4413      	add	r3, r2
 80011cc:	62bb      	str	r3, [r7, #40]	@ 0x28
 80011ce:	e000      	b.n	80011d2 <scroll_actions_info+0xc6>
 80011d0:	bf00      	nop
 80011d2:	6a7b      	ldr	r3, [r7, #36]	@ 0x24
 80011d4:	3301      	adds	r3, #1
 80011d6:	627b      	str	r3, [r7, #36]	@ 0x24
 80011d8:	4b0c      	ldr	r3, [pc, #48]	@ (800120c <scroll_actions_info+0x100>)
 80011da:	681b      	ldr	r3, [r3, #0]
 80011dc:	6a7a      	ldr	r2, [r7, #36]	@ 0x24
 80011de:	429a      	cmp	r2, r3
 80011e0:	ddb6      	ble.n	8001150 <scroll_actions_info+0x44>
 80011e2:	6afa      	ldr	r2, [r7, #44]	@ 0x2c
 80011e4:	697b      	ldr	r3, [r7, #20]
 80011e6:	4413      	add	r3, r2
 80011e8:	62fb      	str	r3, [r7, #44]	@ 0x2c
 80011ea:	6afa      	ldr	r2, [r7, #44]	@ 0x2c
 80011ec:	69bb      	ldr	r3, [r7, #24]
 80011ee:	429a      	cmp	r2, r3
 80011f0:	dd99      	ble.n	8001126 <scroll_actions_info+0x1a>
 80011f2:	bf00      	nop
 80011f4:	bf00      	nop
 80011f6:	3730      	adds	r7, #48	@ 0x30
 80011f8:	46bd      	mov	sp, r7
 80011fa:	bd80      	pop	{r7, pc}
 80011fc:	20000614 	.word	0x20000614
 8001200:	20000000 	.word	0x20000000
 8001204:	20000610 	.word	0x20000610
 8001208:	20000004 	.word	0x20000004
 800120c:	2000057c 	.word	0x2000057c

08001210 <scroll_ability_info>:
 8001210:	b580      	push	{r7, lr}
 8001212:	b08e      	sub	sp, #56	@ 0x38
 8001214:	af02      	add	r7, sp, #8
 8001216:	6078      	str	r0, [r7, #4]
 8001218:	2314      	movs	r3, #20
 800121a:	61fb      	str	r3, [r7, #28]
 800121c:	69fb      	ldr	r3, [r7, #28]
 800121e:	61bb      	str	r3, [r7, #24]
 8001220:	231c      	movs	r3, #28
 8001222:	617b      	str	r3, [r7, #20]
 8001224:	2300      	movs	r3, #0
 8001226:	62fb      	str	r3, [r7, #44]	@ 0x2c
 8001228:	e058      	b.n	80012dc <scroll_ability_info+0xcc>
 800122a:	6afb      	ldr	r3, [r7, #44]	@ 0x2c
 800122c:	687a      	ldr	r2, [r7, #4]
 800122e:	fb02 f303 	mul.w	r3, r2, r3
 8001232:	613b      	str	r3, [r7, #16]
 8001234:	f64f 73e0 	movw	r3, #65504	@ 0xffe0
 8001238:	9300      	str	r3, [sp, #0]
 800123a:	23c8      	movs	r3, #200	@ 0xc8
 800123c:	22f0      	movs	r2, #240	@ 0xf0
 800123e:	213c      	movs	r1, #60	@ 0x3c
 8001240:	2000      	movs	r0, #0
 8001242:	f7ff fb3f 	bl	80008c4 <ST7789_FillRect>
 8001246:	693b      	ldr	r3, [r7, #16]
 8001248:	f1c3 033c 	rsb	r3, r3, #60	@ 0x3c
 800124c:	62bb      	str	r3, [r7, #40]	@ 0x28
 800124e:	2300      	movs	r3, #0
 8001250:	627b      	str	r3, [r7, #36]	@ 0x24
 8001252:	e03a      	b.n	80012ca <scroll_ability_info+0xba>
 8001254:	4b26      	ldr	r3, [pc, #152]	@ (80012f0 <scroll_ability_info+0xe0>)
 8001256:	681b      	ldr	r3, [r3, #0]
 8001258:	6a7a      	ldr	r2, [r7, #36]	@ 0x24
 800125a:	4413      	add	r3, r2
 800125c:	60fb      	str	r3, [r7, #12]
 800125e:	68fb      	ldr	r3, [r7, #12]
 8001260:	2b00      	cmp	r3, #0
 8001262:	db2e      	blt.n	80012c2 <scroll_ability_info+0xb2>
 8001264:	68fb      	ldr	r3, [r7, #12]
 8001266:	2b09      	cmp	r3, #9
 8001268:	dc2b      	bgt.n	80012c2 <scroll_ability_info+0xb2>
 800126a:	4b22      	ldr	r3, [pc, #136]	@ (80012f4 <scroll_ability_info+0xe4>)
 800126c:	681b      	ldr	r3, [r3, #0]
 800126e:	f1b3 3fff 	cmp.w	r3, #4294967295
 8001272:	d108      	bne.n	8001286 <scroll_ability_info+0x76>
 8001274:	4b20      	ldr	r3, [pc, #128]	@ (80012f8 <scroll_ability_info+0xe8>)
 8001276:	681b      	ldr	r3, [r3, #0]
 8001278:	68fa      	ldr	r2, [r7, #12]
 800127a:	429a      	cmp	r2, r3
 800127c:	d103      	bne.n	8001286 <scroll_ability_info+0x76>
 800127e:	f44f 4378 	mov.w	r3, #63488	@ 0xf800
 8001282:	847b      	strh	r3, [r7, #34]	@ 0x22
 8001284:	e002      	b.n	800128c <scroll_ability_info+0x7c>
 8001286:	f64b 4340 	movw	r3, #48192	@ 0xbc40
 800128a:	847b      	strh	r3, [r7, #34]	@ 0x22
 800128c:	6abb      	ldr	r3, [r7, #40]	@ 0x28
 800128e:	2b3b      	cmp	r3, #59	@ 0x3b
 8001290:	dd12      	ble.n	80012b8 <scroll_ability_info+0xa8>
 8001292:	6abb      	ldr	r3, [r7, #40]	@ 0x28
 8001294:	f5b3 7f82 	cmp.w	r3, #260	@ 0x104
 8001298:	dc0e      	bgt.n	80012b8 <scroll_ability_info+0xa8>
 800129a:	6abb      	ldr	r3, [r7, #40]	@ 0x28
 800129c:	b299      	uxth	r1, r3
 800129e:	68fa      	ldr	r2, [r7, #12]
 80012a0:	4613      	mov	r3, r2
 80012a2:	009b      	lsls	r3, r3, #2
 80012a4:	4413      	add	r3, r2
 80012a6:	009b      	lsls	r3, r3, #2
 80012a8:	4a14      	ldr	r2, [pc, #80]	@ (80012fc <scroll_ability_info+0xec>)
 80012aa:	441a      	add	r2, r3
 80012ac:	8c7b      	ldrh	r3, [r7, #34]	@ 0x22
 80012ae:	2002      	movs	r0, #2
 80012b0:	9000      	str	r0, [sp, #0]
 80012b2:	200a      	movs	r0, #10
 80012b4:	f001 fe4a 	bl	8002f4c <ST7789_DrawString>
 80012b8:	6aba      	ldr	r2, [r7, #40]	@ 0x28
 80012ba:	69fb      	ldr	r3, [r7, #28]
 80012bc:	4413      	add	r3, r2
 80012be:	62bb      	str	r3, [r7, #40]	@ 0x28
 80012c0:	e000      	b.n	80012c4 <scroll_ability_info+0xb4>
 80012c2:	bf00      	nop
 80012c4:	6a7b      	ldr	r3, [r7, #36]	@ 0x24
 80012c6:	3301      	adds	r3, #1
 80012c8:	627b      	str	r3, [r7, #36]	@ 0x24
 80012ca:	4b0d      	ldr	r3, [pc, #52]	@ (8001300 <scroll_ability_info+0xf0>)
 80012cc:	681b      	ldr	r3, [r3, #0]
 80012ce:	6a7a      	ldr	r2, [r7, #36]	@ 0x24
 80012d0:	429a      	cmp	r2, r3
 80012d2:	ddbf      	ble.n	8001254 <scroll_ability_info+0x44>
 80012d4:	6afa      	ldr	r2, [r7, #44]	@ 0x2c
 80012d6:	697b      	ldr	r3, [r7, #20]
 80012d8:	4413      	add	r3, r2
 80012da:	62fb      	str	r3, [r7, #44]	@ 0x2c
 80012dc:	6afa      	ldr	r2, [r7, #44]	@ 0x2c
 80012de:	69bb      	ldr	r3, [r7, #24]
 80012e0:	429a      	cmp	r2, r3
 80012e2:	dda2      	ble.n	800122a <scroll_ability_info+0x1a>
 80012e4:	bf00      	nop
 80012e6:	bf00      	nop
 80012e8:	3730      	adds	r7, #48	@ 0x30
 80012ea:	46bd      	mov	sp, r7
 80012ec:	bd80      	pop	{r7, pc}
 80012ee:	bf00      	nop
 80012f0:	20000614 	.word	0x20000614
 80012f4:	20000000 	.word	0x20000000
 80012f8:	20000610 	.word	0x20000610
 80012fc:	20000108 	.word	0x20000108
 8001300:	2000057c 	.word	0x2000057c

08001304 <lcd_roll_ability_prompt>:
 8001304:	b580      	push	{r7, lr}
 8001306:	b086      	sub	sp, #24
 8001308:	af02      	add	r7, sp, #8
 800130a:	6078      	str	r0, [r7, #4]
 800130c:	6039      	str	r1, [r7, #0]
 800130e:	4b3a      	ldr	r3, [pc, #232]	@ (80013f8 <lcd_roll_ability_prompt+0xf4>)
 8001310:	2200      	movs	r2, #0
 8001312:	601a      	str	r2, [r3, #0]
 8001314:	4b39      	ldr	r3, [pc, #228]	@ (80013fc <lcd_roll_ability_prompt+0xf8>)
 8001316:	2200      	movs	r2, #0
 8001318:	601a      	str	r2, [r3, #0]
 800131a:	4b39      	ldr	r3, [pc, #228]	@ (8001400 <lcd_roll_ability_prompt+0xfc>)
 800131c:	2200      	movs	r2, #0
 800131e:	601a      	str	r2, [r3, #0]
 8001320:	4b38      	ldr	r3, [pc, #224]	@ (8001404 <lcd_roll_ability_prompt+0x100>)
 8001322:	2200      	movs	r2, #0
 8001324:	601a      	str	r2, [r3, #0]
 8001326:	f64f 70e0 	movw	r0, #65504	@ 0xffe0
 800132a:	f7ff fa27 	bl	800077c <ST7789_Fill>
 800132e:	2303      	movs	r3, #3
 8001330:	9300      	str	r3, [sp, #0]
 8001332:	f44f 4378 	mov.w	r3, #63488	@ 0xf800
 8001336:	4a34      	ldr	r2, [pc, #208]	@ (8001408 <lcd_roll_ability_prompt+0x104>)
 8001338:	210a      	movs	r1, #10
 800133a:	200a      	movs	r0, #10
 800133c:	f001 fe06 	bl	8002f4c <ST7789_DrawString>
 8001340:	687a      	ldr	r2, [r7, #4]
 8001342:	4613      	mov	r3, r2
 8001344:	009b      	lsls	r3, r3, #2
 8001346:	4413      	add	r3, r2
 8001348:	009b      	lsls	r3, r3, #2
 800134a:	4a30      	ldr	r2, [pc, #192]	@ (800140c <lcd_roll_ability_prompt+0x108>)
 800134c:	441a      	add	r2, r3
 800134e:	2303      	movs	r3, #3
 8001350:	9300      	str	r3, [sp, #0]
 8001352:	f44f 4378 	mov.w	r3, #63488	@ 0xf800
 8001356:	2128      	movs	r1, #40	@ 0x28
 8001358:	200a      	movs	r0, #10
 800135a:	f001 fdf7 	bl	8002f4c <ST7789_DrawString>
 800135e:	2303      	movs	r3, #3
 8001360:	9300      	str	r3, [sp, #0]
 8001362:	f44f 4378 	mov.w	r3, #63488	@ 0xf800
 8001366:	4a2a      	ldr	r2, [pc, #168]	@ (8001410 <lcd_roll_ability_prompt+0x10c>)
 8001368:	2150      	movs	r1, #80	@ 0x50
 800136a:	200a      	movs	r0, #10
 800136c:	f001 fdee 	bl	8002f4c <ST7789_DrawString>
 8001370:	f107 030c 	add.w	r3, r7, #12
 8001374:	683a      	ldr	r2, [r7, #0]
 8001376:	4927      	ldr	r1, [pc, #156]	@ (8001414 <lcd_roll_ability_prompt+0x110>)
 8001378:	4618      	mov	r0, r3
 800137a:	f007 fee9 	bl	8009150 <siprintf>
 800137e:	f107 020c 	add.w	r2, r7, #12
 8001382:	2303      	movs	r3, #3
 8001384:	9300      	str	r3, [sp, #0]
 8001386:	f44f 4378 	mov.w	r3, #63488	@ 0xf800
 800138a:	2178      	movs	r1, #120	@ 0x78
 800138c:	200a      	movs	r0, #10
 800138e:	f001 fddd 	bl	8002f4c <ST7789_DrawString>
 8001392:	4b19      	ldr	r3, [pc, #100]	@ (80013f8 <lcd_roll_ability_prompt+0xf4>)
 8001394:	681b      	ldr	r3, [r3, #0]
 8001396:	2b00      	cmp	r3, #0
 8001398:	da02      	bge.n	80013a0 <lcd_roll_ability_prompt+0x9c>
 800139a:	4b17      	ldr	r3, [pc, #92]	@ (80013f8 <lcd_roll_ability_prompt+0xf4>)
 800139c:	2201      	movs	r2, #1
 800139e:	601a      	str	r2, [r3, #0]
 80013a0:	4b15      	ldr	r3, [pc, #84]	@ (80013f8 <lcd_roll_ability_prompt+0xf4>)
 80013a2:	681b      	ldr	r3, [r3, #0]
 80013a4:	2b01      	cmp	r3, #1
 80013a6:	dd02      	ble.n	80013ae <lcd_roll_ability_prompt+0xaa>
 80013a8:	4b13      	ldr	r3, [pc, #76]	@ (80013f8 <lcd_roll_ability_prompt+0xf4>)
 80013aa:	2200      	movs	r2, #0
 80013ac:	601a      	str	r2, [r3, #0]
 80013ae:	4b13      	ldr	r3, [pc, #76]	@ (80013fc <lcd_roll_ability_prompt+0xf8>)
 80013b0:	681b      	ldr	r3, [r3, #0]
 80013b2:	2b00      	cmp	r3, #0
 80013b4:	d103      	bne.n	80013be <lcd_roll_ability_prompt+0xba>
 80013b6:	4b12      	ldr	r3, [pc, #72]	@ (8001400 <lcd_roll_ability_prompt+0xfc>)
 80013b8:	681b      	ldr	r3, [r3, #0]
 80013ba:	2b00      	cmp	r3, #0
 80013bc:	d00a      	beq.n	80013d4 <lcd_roll_ability_prompt+0xd0>
 80013be:	4b10      	ldr	r3, [pc, #64]	@ (8001400 <lcd_roll_ability_prompt+0xfc>)
 80013c0:	2200      	movs	r2, #0
 80013c2:	601a      	str	r2, [r3, #0]
 80013c4:	4b0d      	ldr	r3, [pc, #52]	@ (80013fc <lcd_roll_ability_prompt+0xf8>)
 80013c6:	2200      	movs	r2, #0
 80013c8:	601a      	str	r2, [r3, #0]
 80013ca:	4b0b      	ldr	r3, [pc, #44]	@ (80013f8 <lcd_roll_ability_prompt+0xf4>)
 80013cc:	681b      	ldr	r3, [r3, #0]
 80013ce:	4618      	mov	r0, r3
 80013d0:	f000 fa0a 	bl	80017e8 <lcd_roll_prompt_draw>
 80013d4:	4b0b      	ldr	r3, [pc, #44]	@ (8001404 <lcd_roll_ability_prompt+0x100>)
 80013d6:	681b      	ldr	r3, [r3, #0]
 80013d8:	2b00      	cmp	r3, #0
 80013da:	d0da      	beq.n	8001392 <lcd_roll_ability_prompt+0x8e>
 80013dc:	4b09      	ldr	r3, [pc, #36]	@ (8001404 <lcd_roll_ability_prompt+0x100>)
 80013de:	2200      	movs	r2, #0
 80013e0:	601a      	str	r2, [r3, #0]
 80013e2:	4b05      	ldr	r3, [pc, #20]	@ (80013f8 <lcd_roll_ability_prompt+0xf4>)
 80013e4:	681b      	ldr	r3, [r3, #0]
 80013e6:	2b00      	cmp	r3, #0
 80013e8:	d101      	bne.n	80013ee <lcd_roll_ability_prompt+0xea>
 80013ea:	2301      	movs	r3, #1
 80013ec:	e000      	b.n	80013f0 <lcd_roll_ability_prompt+0xec>
 80013ee:	2300      	movs	r3, #0
 80013f0:	4618      	mov	r0, r3
 80013f2:	3710      	adds	r7, #16
 80013f4:	46bd      	mov	sp, r7
 80013f6:	bd80      	pop	{r7, pc}
 80013f8:	20001870 	.word	0x20001870
 80013fc:	20001860 	.word	0x20001860
 8001400:	20001864 	.word	0x20001864
 8001404:	2000185c 	.word	0x2000185c
 8001408:	0800a3c8 	.word	0x0800a3c8
 800140c:	20000108 	.word	0x20000108
 8001410:	0800a3d8 	.word	0x0800a3d8
 8001414:	0800a3e4 	.word	0x0800a3e4

08001418 <lcd_remove_from_combat>:
 8001418:	b580      	push	{r7, lr}
 800141a:	b08a      	sub	sp, #40	@ 0x28
 800141c:	af02      	add	r7, sp, #8
 800141e:	6078      	str	r0, [r7, #4]
 8001420:	6039      	str	r1, [r7, #0]
 8001422:	4b96      	ldr	r3, [pc, #600]	@ (800167c <lcd_remove_from_combat+0x264>)
 8001424:	2200      	movs	r2, #0
 8001426:	601a      	str	r2, [r3, #0]
 8001428:	4b95      	ldr	r3, [pc, #596]	@ (8001680 <lcd_remove_from_combat+0x268>)
 800142a:	2200      	movs	r2, #0
 800142c:	601a      	str	r2, [r3, #0]
 800142e:	4b95      	ldr	r3, [pc, #596]	@ (8001684 <lcd_remove_from_combat+0x26c>)
 8001430:	2200      	movs	r2, #0
 8001432:	601a      	str	r2, [r3, #0]
 8001434:	4b94      	ldr	r3, [pc, #592]	@ (8001688 <lcd_remove_from_combat+0x270>)
 8001436:	2200      	movs	r2, #0
 8001438:	601a      	str	r2, [r3, #0]
 800143a:	230a      	movs	r3, #10
 800143c:	61fb      	str	r3, [r7, #28]
 800143e:	2301      	movs	r3, #1
 8001440:	61bb      	str	r3, [r7, #24]
 8001442:	683b      	ldr	r3, [r7, #0]
 8001444:	2b00      	cmp	r3, #0
 8001446:	d054      	beq.n	80014f2 <lcd_remove_from_combat+0xda>
 8001448:	69fb      	ldr	r3, [r7, #28]
 800144a:	b299      	uxth	r1, r3
 800144c:	2304      	movs	r3, #4
 800144e:	9300      	str	r3, [sp, #0]
 8001450:	f44f 4378 	mov.w	r3, #63488	@ 0xf800
 8001454:	4a8d      	ldr	r2, [pc, #564]	@ (800168c <lcd_remove_from_combat+0x274>)
 8001456:	200a      	movs	r0, #10
 8001458:	f001 fd78 	bl	8002f4c <ST7789_DrawString>
 800145c:	2300      	movs	r3, #0
 800145e:	617b      	str	r3, [r7, #20]
 8001460:	e043      	b.n	80014ea <lcd_remove_from_combat+0xd2>
 8001462:	697b      	ldr	r3, [r7, #20]
 8001464:	22d3      	movs	r2, #211	@ 0xd3
 8001466:	fb02 f303 	mul.w	r3, r2, r3
 800146a:	687a      	ldr	r2, [r7, #4]
 800146c:	4413      	add	r3, r2
 800146e:	781b      	ldrb	r3, [r3, #0]
 8001470:	2b01      	cmp	r3, #1
 8001472:	d137      	bne.n	80014e4 <lcd_remove_from_combat+0xcc>
 8001474:	69fb      	ldr	r3, [r7, #28]
 8001476:	330a      	adds	r3, #10
 8001478:	61fb      	str	r3, [r7, #28]
 800147a:	2345      	movs	r3, #69	@ 0x45
 800147c:	723b      	strb	r3, [r7, #8]
 800147e:	234e      	movs	r3, #78	@ 0x4e
 8001480:	727b      	strb	r3, [r7, #9]
 8001482:	2345      	movs	r3, #69	@ 0x45
 8001484:	72bb      	strb	r3, [r7, #10]
 8001486:	234d      	movs	r3, #77	@ 0x4d
 8001488:	72fb      	strb	r3, [r7, #11]
 800148a:	2359      	movs	r3, #89	@ 0x59
 800148c:	733b      	strb	r3, [r7, #12]
 800148e:	69bb      	ldr	r3, [r7, #24]
 8001490:	4a7f      	ldr	r2, [pc, #508]	@ (8001690 <lcd_remove_from_combat+0x278>)
 8001492:	fb82 1203 	smull	r1, r2, r2, r3
 8001496:	1092      	asrs	r2, r2, #2
 8001498:	17db      	asrs	r3, r3, #31
 800149a:	1ad3      	subs	r3, r2, r3
 800149c:	b2db      	uxtb	r3, r3
 800149e:	3330      	adds	r3, #48	@ 0x30
 80014a0:	b2db      	uxtb	r3, r3
 80014a2:	737b      	strb	r3, [r7, #13]
 80014a4:	69ba      	ldr	r2, [r7, #24]
 80014a6:	4b7a      	ldr	r3, [pc, #488]	@ (8001690 <lcd_remove_from_combat+0x278>)
 80014a8:	fb83 1302 	smull	r1, r3, r3, r2
 80014ac:	1099      	asrs	r1, r3, #2
 80014ae:	17d3      	asrs	r3, r2, #31
 80014b0:	1ac9      	subs	r1, r1, r3
 80014b2:	460b      	mov	r3, r1
 80014b4:	009b      	lsls	r3, r3, #2
 80014b6:	440b      	add	r3, r1
 80014b8:	005b      	lsls	r3, r3, #1
 80014ba:	1ad1      	subs	r1, r2, r3
 80014bc:	b2cb      	uxtb	r3, r1
 80014be:	3330      	adds	r3, #48	@ 0x30
 80014c0:	b2db      	uxtb	r3, r3
 80014c2:	73bb      	strb	r3, [r7, #14]
 80014c4:	2300      	movs	r3, #0
 80014c6:	73fb      	strb	r3, [r7, #15]
 80014c8:	69fb      	ldr	r3, [r7, #28]
 80014ca:	b299      	uxth	r1, r3
 80014cc:	f107 0208 	add.w	r2, r7, #8
 80014d0:	2302      	movs	r3, #2
 80014d2:	9300      	str	r3, [sp, #0]
 80014d4:	f647 030f 	movw	r3, #30735	@ 0x780f
 80014d8:	200a      	movs	r0, #10
 80014da:	f001 fd37 	bl	8002f4c <ST7789_DrawString>
 80014de:	69bb      	ldr	r3, [r7, #24]
 80014e0:	3301      	adds	r3, #1
 80014e2:	61bb      	str	r3, [r7, #24]
 80014e4:	697b      	ldr	r3, [r7, #20]
 80014e6:	3301      	adds	r3, #1
 80014e8:	617b      	str	r3, [r7, #20]
 80014ea:	697b      	ldr	r3, [r7, #20]
 80014ec:	2b0f      	cmp	r3, #15
 80014ee:	ddb8      	ble.n	8001462 <lcd_remove_from_combat+0x4a>
 80014f0:	e02e      	b.n	8001550 <lcd_remove_from_combat+0x138>
 80014f2:	69fb      	ldr	r3, [r7, #28]
 80014f4:	b299      	uxth	r1, r3
 80014f6:	2303      	movs	r3, #3
 80014f8:	9300      	str	r3, [sp, #0]
 80014fa:	f44f 4378 	mov.w	r3, #63488	@ 0xf800
 80014fe:	4a65      	ldr	r2, [pc, #404]	@ (8001694 <lcd_remove_from_combat+0x27c>)
 8001500:	200a      	movs	r0, #10
 8001502:	f001 fd23 	bl	8002f4c <ST7789_DrawString>
 8001506:	2300      	movs	r3, #0
 8001508:	613b      	str	r3, [r7, #16]
 800150a:	e01e      	b.n	800154a <lcd_remove_from_combat+0x132>
 800150c:	693b      	ldr	r3, [r7, #16]
 800150e:	22d3      	movs	r2, #211	@ 0xd3
 8001510:	fb02 f303 	mul.w	r3, r2, r3
 8001514:	687a      	ldr	r2, [r7, #4]
 8001516:	4413      	add	r3, r2
 8001518:	781b      	ldrb	r3, [r3, #0]
 800151a:	2b1f      	cmp	r3, #31
 800151c:	d912      	bls.n	8001544 <lcd_remove_from_combat+0x12c>
 800151e:	69fb      	ldr	r3, [r7, #28]
 8001520:	330a      	adds	r3, #10
 8001522:	61fb      	str	r3, [r7, #28]
 8001524:	69fb      	ldr	r3, [r7, #28]
 8001526:	b299      	uxth	r1, r3
 8001528:	693b      	ldr	r3, [r7, #16]
 800152a:	22d3      	movs	r2, #211	@ 0xd3
 800152c:	fb02 f303 	mul.w	r3, r2, r3
 8001530:	687a      	ldr	r2, [r7, #4]
 8001532:	4413      	add	r3, r2
 8001534:	461a      	mov	r2, r3
 8001536:	2302      	movs	r3, #2
 8001538:	9300      	str	r3, [sp, #0]
 800153a:	f647 030f 	movw	r3, #30735	@ 0x780f
 800153e:	200a      	movs	r0, #10
 8001540:	f001 fd04 	bl	8002f4c <ST7789_DrawString>
 8001544:	693b      	ldr	r3, [r7, #16]
 8001546:	3301      	adds	r3, #1
 8001548:	613b      	str	r3, [r7, #16]
 800154a:	693b      	ldr	r3, [r7, #16]
 800154c:	2b0f      	cmp	r3, #15
 800154e:	dddd      	ble.n	800150c <lcd_remove_from_combat+0xf4>
 8001550:	4b4a      	ldr	r3, [pc, #296]	@ (800167c <lcd_remove_from_combat+0x264>)
 8001552:	681b      	ldr	r3, [r3, #0]
 8001554:	2b0f      	cmp	r3, #15
 8001556:	dc66      	bgt.n	8001626 <lcd_remove_from_combat+0x20e>
 8001558:	683b      	ldr	r3, [r7, #0]
 800155a:	2b00      	cmp	r3, #0
 800155c:	d058      	beq.n	8001610 <lcd_remove_from_combat+0x1f8>
 800155e:	e025      	b.n	80015ac <lcd_remove_from_combat+0x194>
 8001560:	4b47      	ldr	r3, [pc, #284]	@ (8001680 <lcd_remove_from_combat+0x268>)
 8001562:	681b      	ldr	r3, [r3, #0]
 8001564:	2b00      	cmp	r3, #0
 8001566:	d007      	beq.n	8001578 <lcd_remove_from_combat+0x160>
 8001568:	4b46      	ldr	r3, [pc, #280]	@ (8001684 <lcd_remove_from_combat+0x26c>)
 800156a:	2200      	movs	r2, #0
 800156c:	601a      	str	r2, [r3, #0]
 800156e:	4b43      	ldr	r3, [pc, #268]	@ (800167c <lcd_remove_from_combat+0x264>)
 8001570:	681b      	ldr	r3, [r3, #0]
 8001572:	3301      	adds	r3, #1
 8001574:	4a41      	ldr	r2, [pc, #260]	@ (800167c <lcd_remove_from_combat+0x264>)
 8001576:	6013      	str	r3, [r2, #0]
 8001578:	4b42      	ldr	r3, [pc, #264]	@ (8001684 <lcd_remove_from_combat+0x26c>)
 800157a:	681b      	ldr	r3, [r3, #0]
 800157c:	2b00      	cmp	r3, #0
 800157e:	d007      	beq.n	8001590 <lcd_remove_from_combat+0x178>
 8001580:	4b3f      	ldr	r3, [pc, #252]	@ (8001680 <lcd_remove_from_combat+0x268>)
 8001582:	2200      	movs	r2, #0
 8001584:	601a      	str	r2, [r3, #0]
 8001586:	4b3d      	ldr	r3, [pc, #244]	@ (800167c <lcd_remove_from_combat+0x264>)
 8001588:	681b      	ldr	r3, [r3, #0]
 800158a:	3b01      	subs	r3, #1
 800158c:	4a3b      	ldr	r2, [pc, #236]	@ (800167c <lcd_remove_from_combat+0x264>)
 800158e:	6013      	str	r3, [r2, #0]
 8001590:	4b3a      	ldr	r3, [pc, #232]	@ (800167c <lcd_remove_from_combat+0x264>)
 8001592:	681b      	ldr	r3, [r3, #0]
 8001594:	2b0f      	cmp	r3, #15
 8001596:	dd02      	ble.n	800159e <lcd_remove_from_combat+0x186>
 8001598:	4b38      	ldr	r3, [pc, #224]	@ (800167c <lcd_remove_from_combat+0x264>)
 800159a:	2200      	movs	r2, #0
 800159c:	601a      	str	r2, [r3, #0]
 800159e:	4b37      	ldr	r3, [pc, #220]	@ (800167c <lcd_remove_from_combat+0x264>)
 80015a0:	681b      	ldr	r3, [r3, #0]
 80015a2:	2b00      	cmp	r3, #0
 80015a4:	da02      	bge.n	80015ac <lcd_remove_from_combat+0x194>
 80015a6:	4b35      	ldr	r3, [pc, #212]	@ (800167c <lcd_remove_from_combat+0x264>)
 80015a8:	220f      	movs	r2, #15
 80015aa:	601a      	str	r2, [r3, #0]
 80015ac:	4b33      	ldr	r3, [pc, #204]	@ (800167c <lcd_remove_from_combat+0x264>)
 80015ae:	681b      	ldr	r3, [r3, #0]
 80015b0:	461a      	mov	r2, r3
 80015b2:	23d3      	movs	r3, #211	@ 0xd3
 80015b4:	fb02 f303 	mul.w	r3, r2, r3
 80015b8:	687a      	ldr	r2, [r7, #4]
 80015ba:	4413      	add	r3, r2
 80015bc:	781b      	ldrb	r3, [r3, #0]
 80015be:	2b01      	cmp	r3, #1
 80015c0:	d1ce      	bne.n	8001560 <lcd_remove_from_combat+0x148>
 80015c2:	e030      	b.n	8001626 <lcd_remove_from_combat+0x20e>
 80015c4:	4b2e      	ldr	r3, [pc, #184]	@ (8001680 <lcd_remove_from_combat+0x268>)
 80015c6:	681b      	ldr	r3, [r3, #0]
 80015c8:	2b00      	cmp	r3, #0
 80015ca:	d007      	beq.n	80015dc <lcd_remove_from_combat+0x1c4>
 80015cc:	4b2d      	ldr	r3, [pc, #180]	@ (8001684 <lcd_remove_from_combat+0x26c>)
 80015ce:	2200      	movs	r2, #0
 80015d0:	601a      	str	r2, [r3, #0]
 80015d2:	4b2a      	ldr	r3, [pc, #168]	@ (800167c <lcd_remove_from_combat+0x264>)
 80015d4:	681b      	ldr	r3, [r3, #0]
 80015d6:	3301      	adds	r3, #1
 80015d8:	4a28      	ldr	r2, [pc, #160]	@ (800167c <lcd_remove_from_combat+0x264>)
 80015da:	6013      	str	r3, [r2, #0]
 80015dc:	4b29      	ldr	r3, [pc, #164]	@ (8001684 <lcd_remove_from_combat+0x26c>)
 80015de:	681b      	ldr	r3, [r3, #0]
 80015e0:	2b00      	cmp	r3, #0
 80015e2:	d007      	beq.n	80015f4 <lcd_remove_from_combat+0x1dc>
 80015e4:	4b26      	ldr	r3, [pc, #152]	@ (8001680 <lcd_remove_from_combat+0x268>)
 80015e6:	2200      	movs	r2, #0
 80015e8:	601a      	str	r2, [r3, #0]
 80015ea:	4b24      	ldr	r3, [pc, #144]	@ (800167c <lcd_remove_from_combat+0x264>)
 80015ec:	681b      	ldr	r3, [r3, #0]
 80015ee:	3b01      	subs	r3, #1
 80015f0:	4a22      	ldr	r2, [pc, #136]	@ (800167c <lcd_remove_from_combat+0x264>)
 80015f2:	6013      	str	r3, [r2, #0]
 80015f4:	4b21      	ldr	r3, [pc, #132]	@ (800167c <lcd_remove_from_combat+0x264>)
 80015f6:	681b      	ldr	r3, [r3, #0]
 80015f8:	2b0f      	cmp	r3, #15
 80015fa:	dd02      	ble.n	8001602 <lcd_remove_from_combat+0x1ea>
 80015fc:	4b1f      	ldr	r3, [pc, #124]	@ (800167c <lcd_remove_from_combat+0x264>)
 80015fe:	2200      	movs	r2, #0
 8001600:	601a      	str	r2, [r3, #0]
 8001602:	4b1e      	ldr	r3, [pc, #120]	@ (800167c <lcd_remove_from_combat+0x264>)
 8001604:	681b      	ldr	r3, [r3, #0]
 8001606:	2b00      	cmp	r3, #0
 8001608:	da02      	bge.n	8001610 <lcd_remove_from_combat+0x1f8>
 800160a:	4b1c      	ldr	r3, [pc, #112]	@ (800167c <lcd_remove_from_combat+0x264>)
 800160c:	220f      	movs	r2, #15
 800160e:	601a      	str	r2, [r3, #0]
 8001610:	4b1a      	ldr	r3, [pc, #104]	@ (800167c <lcd_remove_from_combat+0x264>)
 8001612:	681b      	ldr	r3, [r3, #0]
 8001614:	461a      	mov	r2, r3
 8001616:	23d3      	movs	r3, #211	@ 0xd3
 8001618:	fb02 f303 	mul.w	r3, r2, r3
 800161c:	687a      	ldr	r2, [r7, #4]
 800161e:	4413      	add	r3, r2
 8001620:	781b      	ldrb	r3, [r3, #0]
 8001622:	2b1f      	cmp	r3, #31
 8001624:	d9ce      	bls.n	80015c4 <lcd_remove_from_combat+0x1ac>
 8001626:	4b15      	ldr	r3, [pc, #84]	@ (800167c <lcd_remove_from_combat+0x264>)
 8001628:	681b      	ldr	r3, [r3, #0]
 800162a:	2b00      	cmp	r3, #0
 800162c:	da02      	bge.n	8001634 <lcd_remove_from_combat+0x21c>
 800162e:	4b13      	ldr	r3, [pc, #76]	@ (800167c <lcd_remove_from_combat+0x264>)
 8001630:	2210      	movs	r2, #16
 8001632:	601a      	str	r2, [r3, #0]
 8001634:	4b11      	ldr	r3, [pc, #68]	@ (800167c <lcd_remove_from_combat+0x264>)
 8001636:	681b      	ldr	r3, [r3, #0]
 8001638:	2b10      	cmp	r3, #16
 800163a:	dd02      	ble.n	8001642 <lcd_remove_from_combat+0x22a>
 800163c:	4b0f      	ldr	r3, [pc, #60]	@ (800167c <lcd_remove_from_combat+0x264>)
 800163e:	2200      	movs	r2, #0
 8001640:	601a      	str	r2, [r3, #0]
 8001642:	4b0f      	ldr	r3, [pc, #60]	@ (8001680 <lcd_remove_from_combat+0x268>)
 8001644:	681b      	ldr	r3, [r3, #0]
 8001646:	2b00      	cmp	r3, #0
 8001648:	d103      	bne.n	8001652 <lcd_remove_from_combat+0x23a>
 800164a:	4b0e      	ldr	r3, [pc, #56]	@ (8001684 <lcd_remove_from_combat+0x26c>)
 800164c:	681b      	ldr	r3, [r3, #0]
 800164e:	2b00      	cmp	r3, #0
 8001650:	d005      	beq.n	800165e <lcd_remove_from_combat+0x246>
 8001652:	4b0c      	ldr	r3, [pc, #48]	@ (8001684 <lcd_remove_from_combat+0x26c>)
 8001654:	2200      	movs	r2, #0
 8001656:	601a      	str	r2, [r3, #0]
 8001658:	4b09      	ldr	r3, [pc, #36]	@ (8001680 <lcd_remove_from_combat+0x268>)
 800165a:	2200      	movs	r2, #0
 800165c:	601a      	str	r2, [r3, #0]
 800165e:	4b0a      	ldr	r3, [pc, #40]	@ (8001688 <lcd_remove_from_combat+0x270>)
 8001660:	681b      	ldr	r3, [r3, #0]
 8001662:	2b00      	cmp	r3, #0
 8001664:	f43f af74 	beq.w	8001550 <lcd_remove_from_combat+0x138>
 8001668:	4b07      	ldr	r3, [pc, #28]	@ (8001688 <lcd_remove_from_combat+0x270>)
 800166a:	2200      	movs	r2, #0
 800166c:	601a      	str	r2, [r3, #0]
 800166e:	4b03      	ldr	r3, [pc, #12]	@ (800167c <lcd_remove_from_combat+0x264>)
 8001670:	681b      	ldr	r3, [r3, #0]
 8001672:	2b10      	cmp	r3, #16
 8001674:	d110      	bne.n	8001698 <lcd_remove_from_combat+0x280>
 8001676:	2300      	movs	r3, #0
 8001678:	e01b      	b.n	80016b2 <lcd_remove_from_combat+0x29a>
 800167a:	bf00      	nop
 800167c:	20001870 	.word	0x20001870
 8001680:	20001860 	.word	0x20001860
 8001684:	20001864 	.word	0x20001864
 8001688:	2000185c 	.word	0x2000185c
 800168c:	0800a3e8 	.word	0x0800a3e8
 8001690:	66666667 	.word	0x66666667
 8001694:	0800a3f8 	.word	0x0800a3f8
 8001698:	4b08      	ldr	r3, [pc, #32]	@ (80016bc <lcd_remove_from_combat+0x2a4>)
 800169a:	681b      	ldr	r3, [r3, #0]
 800169c:	461a      	mov	r2, r3
 800169e:	23d3      	movs	r3, #211	@ 0xd3
 80016a0:	fb02 f303 	mul.w	r3, r2, r3
 80016a4:	687a      	ldr	r2, [r7, #4]
 80016a6:	4413      	add	r3, r2
 80016a8:	2200      	movs	r2, #0
 80016aa:	701a      	strb	r2, [r3, #0]
 80016ac:	4b03      	ldr	r3, [pc, #12]	@ (80016bc <lcd_remove_from_combat+0x2a4>)
 80016ae:	681b      	ldr	r3, [r3, #0]
 80016b0:	3301      	adds	r3, #1
 80016b2:	4618      	mov	r0, r3
 80016b4:	3720      	adds	r7, #32
 80016b6:	46bd      	mov	sp, r7
 80016b8:	bd80      	pop	{r7, pc}
 80016ba:	bf00      	nop
 80016bc:	20001870 	.word	0x20001870

080016c0 <lcd_weapon_select_prompt>:
 80016c0:	b580      	push	{r7, lr}
 80016c2:	b086      	sub	sp, #24
 80016c4:	af02      	add	r7, sp, #8
 80016c6:	6078      	str	r0, [r7, #4]
 80016c8:	4b42      	ldr	r3, [pc, #264]	@ (80017d4 <lcd_weapon_select_prompt+0x114>)
 80016ca:	2200      	movs	r2, #0
 80016cc:	601a      	str	r2, [r3, #0]
 80016ce:	4b42      	ldr	r3, [pc, #264]	@ (80017d8 <lcd_weapon_select_prompt+0x118>)
 80016d0:	2200      	movs	r2, #0
 80016d2:	601a      	str	r2, [r3, #0]
 80016d4:	4b41      	ldr	r3, [pc, #260]	@ (80017dc <lcd_weapon_select_prompt+0x11c>)
 80016d6:	2200      	movs	r2, #0
 80016d8:	601a      	str	r2, [r3, #0]
 80016da:	4b41      	ldr	r3, [pc, #260]	@ (80017e0 <lcd_weapon_select_prompt+0x120>)
 80016dc:	2200      	movs	r2, #0
 80016de:	601a      	str	r2, [r3, #0]
 80016e0:	230a      	movs	r3, #10
 80016e2:	60fb      	str	r3, [r7, #12]
 80016e4:	f64f 70e0 	movw	r0, #65504	@ 0xffe0
 80016e8:	f7ff f848 	bl	800077c <ST7789_Fill>
 80016ec:	68fb      	ldr	r3, [r7, #12]
 80016ee:	b299      	uxth	r1, r3
 80016f0:	2302      	movs	r3, #2
 80016f2:	9300      	str	r3, [sp, #0]
 80016f4:	f44f 4378 	mov.w	r3, #63488	@ 0xf800
 80016f8:	4a3a      	ldr	r2, [pc, #232]	@ (80017e4 <lcd_weapon_select_prompt+0x124>)
 80016fa:	200a      	movs	r0, #10
 80016fc:	f001 fc26 	bl	8002f4c <ST7789_DrawString>
 8001700:	6878      	ldr	r0, [r7, #4]
 8001702:	f7ff fb39 	bl	8000d78 <lcd_weapon_select_prompt_draw>
 8001706:	4b33      	ldr	r3, [pc, #204]	@ (80017d4 <lcd_weapon_select_prompt+0x114>)
 8001708:	681b      	ldr	r3, [r3, #0]
 800170a:	2b07      	cmp	r3, #7
 800170c:	dc2e      	bgt.n	800176c <lcd_weapon_select_prompt+0xac>
 800170e:	e025      	b.n	800175c <lcd_weapon_select_prompt+0x9c>
 8001710:	4b31      	ldr	r3, [pc, #196]	@ (80017d8 <lcd_weapon_select_prompt+0x118>)
 8001712:	681b      	ldr	r3, [r3, #0]
 8001714:	2b00      	cmp	r3, #0
 8001716:	d007      	beq.n	8001728 <lcd_weapon_select_prompt+0x68>
 8001718:	4b30      	ldr	r3, [pc, #192]	@ (80017dc <lcd_weapon_select_prompt+0x11c>)
 800171a:	2200      	movs	r2, #0
 800171c:	601a      	str	r2, [r3, #0]
 800171e:	4b2d      	ldr	r3, [pc, #180]	@ (80017d4 <lcd_weapon_select_prompt+0x114>)
 8001720:	681b      	ldr	r3, [r3, #0]
 8001722:	3301      	adds	r3, #1
 8001724:	4a2b      	ldr	r2, [pc, #172]	@ (80017d4 <lcd_weapon_select_prompt+0x114>)
 8001726:	6013      	str	r3, [r2, #0]
 8001728:	4b2c      	ldr	r3, [pc, #176]	@ (80017dc <lcd_weapon_select_prompt+0x11c>)
 800172a:	681b      	ldr	r3, [r3, #0]
 800172c:	2b00      	cmp	r3, #0
 800172e:	d007      	beq.n	8001740 <lcd_weapon_select_prompt+0x80>
 8001730:	4b29      	ldr	r3, [pc, #164]	@ (80017d8 <lcd_weapon_select_prompt+0x118>)
 8001732:	2200      	movs	r2, #0
 8001734:	601a      	str	r2, [r3, #0]
 8001736:	4b27      	ldr	r3, [pc, #156]	@ (80017d4 <lcd_weapon_select_prompt+0x114>)
 8001738:	681b      	ldr	r3, [r3, #0]
 800173a:	3b01      	subs	r3, #1
 800173c:	4a25      	ldr	r2, [pc, #148]	@ (80017d4 <lcd_weapon_select_prompt+0x114>)
 800173e:	6013      	str	r3, [r2, #0]
 8001740:	4b24      	ldr	r3, [pc, #144]	@ (80017d4 <lcd_weapon_select_prompt+0x114>)
 8001742:	681b      	ldr	r3, [r3, #0]
 8001744:	2b07      	cmp	r3, #7
 8001746:	dd02      	ble.n	800174e <lcd_weapon_select_prompt+0x8e>
 8001748:	4b22      	ldr	r3, [pc, #136]	@ (80017d4 <lcd_weapon_select_prompt+0x114>)
 800174a:	2200      	movs	r2, #0
 800174c:	601a      	str	r2, [r3, #0]
 800174e:	4b21      	ldr	r3, [pc, #132]	@ (80017d4 <lcd_weapon_select_prompt+0x114>)
 8001750:	681b      	ldr	r3, [r3, #0]
 8001752:	2b00      	cmp	r3, #0
 8001754:	da02      	bge.n	800175c <lcd_weapon_select_prompt+0x9c>
 8001756:	4b1f      	ldr	r3, [pc, #124]	@ (80017d4 <lcd_weapon_select_prompt+0x114>)
 8001758:	2207      	movs	r2, #7
 800175a:	601a      	str	r2, [r3, #0]
 800175c:	4b1d      	ldr	r3, [pc, #116]	@ (80017d4 <lcd_weapon_select_prompt+0x114>)
 800175e:	681b      	ldr	r3, [r3, #0]
 8001760:	461a      	mov	r2, r3
 8001762:	687b      	ldr	r3, [r7, #4]
 8001764:	4413      	add	r3, r2
 8001766:	781b      	ldrb	r3, [r3, #0]
 8001768:	2b00      	cmp	r3, #0
 800176a:	d0d1      	beq.n	8001710 <lcd_weapon_select_prompt+0x50>
 800176c:	4b19      	ldr	r3, [pc, #100]	@ (80017d4 <lcd_weapon_select_prompt+0x114>)
 800176e:	681b      	ldr	r3, [r3, #0]
 8001770:	2b00      	cmp	r3, #0
 8001772:	da02      	bge.n	800177a <lcd_weapon_select_prompt+0xba>
 8001774:	4b17      	ldr	r3, [pc, #92]	@ (80017d4 <lcd_weapon_select_prompt+0x114>)
 8001776:	2208      	movs	r2, #8
 8001778:	601a      	str	r2, [r3, #0]
 800177a:	4b16      	ldr	r3, [pc, #88]	@ (80017d4 <lcd_weapon_select_prompt+0x114>)
 800177c:	681b      	ldr	r3, [r3, #0]
 800177e:	2b08      	cmp	r3, #8
 8001780:	dd02      	ble.n	8001788 <lcd_weapon_select_prompt+0xc8>
 8001782:	4b14      	ldr	r3, [pc, #80]	@ (80017d4 <lcd_weapon_select_prompt+0x114>)
 8001784:	2200      	movs	r2, #0
 8001786:	601a      	str	r2, [r3, #0]
 8001788:	4b13      	ldr	r3, [pc, #76]	@ (80017d8 <lcd_weapon_select_prompt+0x118>)
 800178a:	681b      	ldr	r3, [r3, #0]
 800178c:	2b00      	cmp	r3, #0
 800178e:	d103      	bne.n	8001798 <lcd_weapon_select_prompt+0xd8>
 8001790:	4b12      	ldr	r3, [pc, #72]	@ (80017dc <lcd_weapon_select_prompt+0x11c>)
 8001792:	681b      	ldr	r3, [r3, #0]
 8001794:	2b00      	cmp	r3, #0
 8001796:	d008      	beq.n	80017aa <lcd_weapon_select_prompt+0xea>
 8001798:	4b10      	ldr	r3, [pc, #64]	@ (80017dc <lcd_weapon_select_prompt+0x11c>)
 800179a:	2200      	movs	r2, #0
 800179c:	601a      	str	r2, [r3, #0]
 800179e:	4b0e      	ldr	r3, [pc, #56]	@ (80017d8 <lcd_weapon_select_prompt+0x118>)
 80017a0:	2200      	movs	r2, #0
 80017a2:	601a      	str	r2, [r3, #0]
 80017a4:	6878      	ldr	r0, [r7, #4]
 80017a6:	f7ff fae7 	bl	8000d78 <lcd_weapon_select_prompt_draw>
 80017aa:	4b0d      	ldr	r3, [pc, #52]	@ (80017e0 <lcd_weapon_select_prompt+0x120>)
 80017ac:	681b      	ldr	r3, [r3, #0]
 80017ae:	2b00      	cmp	r3, #0
 80017b0:	d0a9      	beq.n	8001706 <lcd_weapon_select_prompt+0x46>
 80017b2:	4b0b      	ldr	r3, [pc, #44]	@ (80017e0 <lcd_weapon_select_prompt+0x120>)
 80017b4:	2200      	movs	r2, #0
 80017b6:	601a      	str	r2, [r3, #0]
 80017b8:	4b06      	ldr	r3, [pc, #24]	@ (80017d4 <lcd_weapon_select_prompt+0x114>)
 80017ba:	681b      	ldr	r3, [r3, #0]
 80017bc:	2b08      	cmp	r3, #8
 80017be:	d101      	bne.n	80017c4 <lcd_weapon_select_prompt+0x104>
 80017c0:	2300      	movs	r3, #0
 80017c2:	e002      	b.n	80017ca <lcd_weapon_select_prompt+0x10a>
 80017c4:	4b03      	ldr	r3, [pc, #12]	@ (80017d4 <lcd_weapon_select_prompt+0x114>)
 80017c6:	681b      	ldr	r3, [r3, #0]
 80017c8:	3301      	adds	r3, #1
 80017ca:	4618      	mov	r0, r3
 80017cc:	3710      	adds	r7, #16
 80017ce:	46bd      	mov	sp, r7
 80017d0:	bd80      	pop	{r7, pc}
 80017d2:	bf00      	nop
 80017d4:	20001870 	.word	0x20001870
 80017d8:	20001860 	.word	0x20001860
 80017dc:	20001864 	.word	0x20001864
 80017e0:	2000185c 	.word	0x2000185c
 80017e4:	0800a40c 	.word	0x0800a40c

080017e8 <lcd_roll_prompt_draw>:
 80017e8:	b580      	push	{r7, lr}
 80017ea:	b084      	sub	sp, #16
 80017ec:	af02      	add	r7, sp, #8
 80017ee:	6078      	str	r0, [r7, #4]
 80017f0:	f64f 73e0 	movw	r3, #65504	@ 0xffe0
 80017f4:	9300      	str	r3, [sp, #0]
 80017f6:	2328      	movs	r3, #40	@ 0x28
 80017f8:	f44f 72a0 	mov.w	r2, #320	@ 0x140
 80017fc:	21c8      	movs	r1, #200	@ 0xc8
 80017fe:	2000      	movs	r0, #0
 8001800:	f7ff f860 	bl	80008c4 <ST7789_FillRect>
 8001804:	687b      	ldr	r3, [r7, #4]
 8001806:	2b00      	cmp	r3, #0
 8001808:	d111      	bne.n	800182e <lcd_roll_prompt_draw+0x46>
 800180a:	2303      	movs	r3, #3
 800180c:	9300      	str	r3, [sp, #0]
 800180e:	f647 030f 	movw	r3, #30735	@ 0x780f
 8001812:	4a15      	ldr	r2, [pc, #84]	@ (8001868 <lcd_roll_prompt_draw+0x80>)
 8001814:	21c8      	movs	r1, #200	@ 0xc8
 8001816:	200a      	movs	r0, #10
 8001818:	f001 fb98 	bl	8002f4c <ST7789_DrawString>
 800181c:	2303      	movs	r3, #3
 800181e:	9300      	str	r3, [sp, #0]
 8001820:	f44f 4378 	mov.w	r3, #63488	@ 0xf800
 8001824:	4a11      	ldr	r2, [pc, #68]	@ (800186c <lcd_roll_prompt_draw+0x84>)
 8001826:	21c8      	movs	r1, #200	@ 0xc8
 8001828:	20c8      	movs	r0, #200	@ 0xc8
 800182a:	f001 fb8f 	bl	8002f4c <ST7789_DrawString>
 800182e:	687b      	ldr	r3, [r7, #4]
 8001830:	2b01      	cmp	r3, #1
 8001832:	d111      	bne.n	8001858 <lcd_roll_prompt_draw+0x70>
 8001834:	2303      	movs	r3, #3
 8001836:	9300      	str	r3, [sp, #0]
 8001838:	f647 030f 	movw	r3, #30735	@ 0x780f
 800183c:	4a0b      	ldr	r2, [pc, #44]	@ (800186c <lcd_roll_prompt_draw+0x84>)
 800183e:	21c8      	movs	r1, #200	@ 0xc8
 8001840:	20c8      	movs	r0, #200	@ 0xc8
 8001842:	f001 fb83 	bl	8002f4c <ST7789_DrawString>
 8001846:	2303      	movs	r3, #3
 8001848:	9300      	str	r3, [sp, #0]
 800184a:	f44f 4378 	mov.w	r3, #63488	@ 0xf800
 800184e:	4a06      	ldr	r2, [pc, #24]	@ (8001868 <lcd_roll_prompt_draw+0x80>)
 8001850:	21c8      	movs	r1, #200	@ 0xc8
 8001852:	200a      	movs	r0, #10
 8001854:	f001 fb7a 	bl	8002f4c <ST7789_DrawString>
 8001858:	2064      	movs	r0, #100	@ 0x64
 800185a:	f006 fa3b 	bl	8007cd4 <delay_ms>
 800185e:	bf00      	nop
 8001860:	3708      	adds	r7, #8
 8001862:	46bd      	mov	sp, r7
 8001864:	bd80      	pop	{r7, pc}
 8001866:	bf00      	nop
 8001868:	0800a41c 	.word	0x0800a41c
 800186c:	0800a428 	.word	0x0800a428

08001870 <lcd_no_roll_prompt_draw>:
 8001870:	b580      	push	{r7, lr}
 8001872:	b084      	sub	sp, #16
 8001874:	af02      	add	r7, sp, #8
 8001876:	6078      	str	r0, [r7, #4]
 8001878:	f64f 73e0 	movw	r3, #65504	@ 0xffe0
 800187c:	9300      	str	r3, [sp, #0]
 800187e:	2328      	movs	r3, #40	@ 0x28
 8001880:	f44f 72a0 	mov.w	r2, #320	@ 0x140
 8001884:	21c8      	movs	r1, #200	@ 0xc8
 8001886:	2000      	movs	r0, #0
 8001888:	f7ff f81c 	bl	80008c4 <ST7789_FillRect>
 800188c:	687b      	ldr	r3, [r7, #4]
 800188e:	2b00      	cmp	r3, #0
 8001890:	d109      	bne.n	80018a6 <lcd_no_roll_prompt_draw+0x36>
 8001892:	2302      	movs	r3, #2
 8001894:	9300      	str	r3, [sp, #0]
 8001896:	f647 030f 	movw	r3, #30735	@ 0x780f
 800189a:	4a16      	ldr	r2, [pc, #88]	@ (80018f4 <lcd_no_roll_prompt_draw+0x84>)
 800189c:	21c8      	movs	r1, #200	@ 0xc8
 800189e:	200a      	movs	r0, #10
 80018a0:	f001 fb54 	bl	8002f4c <ST7789_DrawString>
 80018a4:	e008      	b.n	80018b8 <lcd_no_roll_prompt_draw+0x48>
 80018a6:	2302      	movs	r3, #2
 80018a8:	9300      	str	r3, [sp, #0]
 80018aa:	f44f 4378 	mov.w	r3, #63488	@ 0xf800
 80018ae:	4a11      	ldr	r2, [pc, #68]	@ (80018f4 <lcd_no_roll_prompt_draw+0x84>)
 80018b0:	21c8      	movs	r1, #200	@ 0xc8
 80018b2:	200a      	movs	r0, #10
 80018b4:	f001 fb4a 	bl	8002f4c <ST7789_DrawString>
 80018b8:	687b      	ldr	r3, [r7, #4]
 80018ba:	2b01      	cmp	r3, #1
 80018bc:	d109      	bne.n	80018d2 <lcd_no_roll_prompt_draw+0x62>
 80018be:	2302      	movs	r3, #2
 80018c0:	9300      	str	r3, [sp, #0]
 80018c2:	f647 030f 	movw	r3, #30735	@ 0x780f
 80018c6:	4a0c      	ldr	r2, [pc, #48]	@ (80018f8 <lcd_no_roll_prompt_draw+0x88>)
 80018c8:	21c8      	movs	r1, #200	@ 0xc8
 80018ca:	20c8      	movs	r0, #200	@ 0xc8
 80018cc:	f001 fb3e 	bl	8002f4c <ST7789_DrawString>
 80018d0:	e008      	b.n	80018e4 <lcd_no_roll_prompt_draw+0x74>
 80018d2:	2302      	movs	r3, #2
 80018d4:	9300      	str	r3, [sp, #0]
 80018d6:	f44f 4378 	mov.w	r3, #63488	@ 0xf800
 80018da:	4a07      	ldr	r2, [pc, #28]	@ (80018f8 <lcd_no_roll_prompt_draw+0x88>)
 80018dc:	21c8      	movs	r1, #200	@ 0xc8
 80018de:	20c8      	movs	r0, #200	@ 0xc8
 80018e0:	f001 fb34 	bl	8002f4c <ST7789_DrawString>
 80018e4:	2008      	movs	r0, #8
 80018e6:	f006 f9f5 	bl	8007cd4 <delay_ms>
 80018ea:	bf00      	nop
 80018ec:	3708      	adds	r7, #8
 80018ee:	46bd      	mov	sp, r7
 80018f0:	bd80      	pop	{r7, pc}
 80018f2:	bf00      	nop
 80018f4:	0800a430 	.word	0x0800a430
 80018f8:	0800a428 	.word	0x0800a428

080018fc <lcd_down_check_draw>:
 80018fc:	b580      	push	{r7, lr}
 80018fe:	b084      	sub	sp, #16
 8001900:	af02      	add	r7, sp, #8
 8001902:	6078      	str	r0, [r7, #4]
 8001904:	f64f 73e0 	movw	r3, #65504	@ 0xffe0
 8001908:	9300      	str	r3, [sp, #0]
 800190a:	2328      	movs	r3, #40	@ 0x28
 800190c:	f44f 72a0 	mov.w	r2, #320	@ 0x140
 8001910:	21c8      	movs	r1, #200	@ 0xc8
 8001912:	2000      	movs	r0, #0
 8001914:	f7fe ffd6 	bl	80008c4 <ST7789_FillRect>
 8001918:	687b      	ldr	r3, [r7, #4]
 800191a:	2b00      	cmp	r3, #0
 800191c:	d109      	bne.n	8001932 <lcd_down_check_draw+0x36>
 800191e:	2304      	movs	r3, #4
 8001920:	9300      	str	r3, [sp, #0]
 8001922:	f647 030f 	movw	r3, #30735	@ 0x780f
 8001926:	4a16      	ldr	r2, [pc, #88]	@ (8001980 <lcd_down_check_draw+0x84>)
 8001928:	21c8      	movs	r1, #200	@ 0xc8
 800192a:	200a      	movs	r0, #10
 800192c:	f001 fb0e 	bl	8002f4c <ST7789_DrawString>
 8001930:	e008      	b.n	8001944 <lcd_down_check_draw+0x48>
 8001932:	2304      	movs	r3, #4
 8001934:	9300      	str	r3, [sp, #0]
 8001936:	f44f 4378 	mov.w	r3, #63488	@ 0xf800
 800193a:	4a11      	ldr	r2, [pc, #68]	@ (8001980 <lcd_down_check_draw+0x84>)
 800193c:	21c8      	movs	r1, #200	@ 0xc8
 800193e:	200a      	movs	r0, #10
 8001940:	f001 fb04 	bl	8002f4c <ST7789_DrawString>
 8001944:	687b      	ldr	r3, [r7, #4]
 8001946:	2b01      	cmp	r3, #1
 8001948:	d109      	bne.n	800195e <lcd_down_check_draw+0x62>
 800194a:	2304      	movs	r3, #4
 800194c:	9300      	str	r3, [sp, #0]
 800194e:	f647 030f 	movw	r3, #30735	@ 0x780f
 8001952:	4a0c      	ldr	r2, [pc, #48]	@ (8001984 <lcd_down_check_draw+0x88>)
 8001954:	21c8      	movs	r1, #200	@ 0xc8
 8001956:	2073      	movs	r0, #115	@ 0x73
 8001958:	f001 faf8 	bl	8002f4c <ST7789_DrawString>
 800195c:	e008      	b.n	8001970 <lcd_down_check_draw+0x74>
 800195e:	2304      	movs	r3, #4
 8001960:	9300      	str	r3, [sp, #0]
 8001962:	f44f 4378 	mov.w	r3, #63488	@ 0xf800
 8001966:	4a07      	ldr	r2, [pc, #28]	@ (8001984 <lcd_down_check_draw+0x88>)
 8001968:	21c8      	movs	r1, #200	@ 0xc8
 800196a:	2073      	movs	r0, #115	@ 0x73
 800196c:	f001 faee 	bl	8002f4c <ST7789_DrawString>
 8001970:	2008      	movs	r0, #8
 8001972:	f006 f9af 	bl	8007cd4 <delay_ms>
 8001976:	bf00      	nop
 8001978:	3708      	adds	r7, #8
 800197a:	46bd      	mov	sp, r7
 800197c:	bd80      	pop	{r7, pc}
 800197e:	bf00      	nop
 8001980:	0800a43c 	.word	0x0800a43c
 8001984:	0800a440 	.word	0x0800a440

08001988 <lcd_confirm_hit_prompt_draw>:
 8001988:	b580      	push	{r7, lr}
 800198a:	b084      	sub	sp, #16
 800198c:	af02      	add	r7, sp, #8
 800198e:	6078      	str	r0, [r7, #4]
 8001990:	f64f 73e0 	movw	r3, #65504	@ 0xffe0
 8001994:	9300      	str	r3, [sp, #0]
 8001996:	233c      	movs	r3, #60	@ 0x3c
 8001998:	f44f 72a0 	mov.w	r2, #320	@ 0x140
 800199c:	21c8      	movs	r1, #200	@ 0xc8
 800199e:	2000      	movs	r0, #0
 80019a0:	f7fe ff90 	bl	80008c4 <ST7789_FillRect>
 80019a4:	687b      	ldr	r3, [r7, #4]
 80019a6:	2b00      	cmp	r3, #0
 80019a8:	d109      	bne.n	80019be <lcd_confirm_hit_prompt_draw+0x36>
 80019aa:	2302      	movs	r3, #2
 80019ac:	9300      	str	r3, [sp, #0]
 80019ae:	f647 030f 	movw	r3, #30735	@ 0x780f
 80019b2:	4a21      	ldr	r2, [pc, #132]	@ (8001a38 <lcd_confirm_hit_prompt_draw+0xb0>)
 80019b4:	21c8      	movs	r1, #200	@ 0xc8
 80019b6:	200a      	movs	r0, #10
 80019b8:	f001 fac8 	bl	8002f4c <ST7789_DrawString>
 80019bc:	e008      	b.n	80019d0 <lcd_confirm_hit_prompt_draw+0x48>
 80019be:	2302      	movs	r3, #2
 80019c0:	9300      	str	r3, [sp, #0]
 80019c2:	f44f 4378 	mov.w	r3, #63488	@ 0xf800
 80019c6:	4a1c      	ldr	r2, [pc, #112]	@ (8001a38 <lcd_confirm_hit_prompt_draw+0xb0>)
 80019c8:	21c8      	movs	r1, #200	@ 0xc8
 80019ca:	200a      	movs	r0, #10
 80019cc:	f001 fabe 	bl	8002f4c <ST7789_DrawString>
 80019d0:	687b      	ldr	r3, [r7, #4]
 80019d2:	2b01      	cmp	r3, #1
 80019d4:	d109      	bne.n	80019ea <lcd_confirm_hit_prompt_draw+0x62>
 80019d6:	2302      	movs	r3, #2
 80019d8:	9300      	str	r3, [sp, #0]
 80019da:	f647 030f 	movw	r3, #30735	@ 0x780f
 80019de:	4a17      	ldr	r2, [pc, #92]	@ (8001a3c <lcd_confirm_hit_prompt_draw+0xb4>)
 80019e0:	21c8      	movs	r1, #200	@ 0xc8
 80019e2:	2073      	movs	r0, #115	@ 0x73
 80019e4:	f001 fab2 	bl	8002f4c <ST7789_DrawString>
 80019e8:	e008      	b.n	80019fc <lcd_confirm_hit_prompt_draw+0x74>
 80019ea:	2302      	movs	r3, #2
 80019ec:	9300      	str	r3, [sp, #0]
 80019ee:	f44f 4378 	mov.w	r3, #63488	@ 0xf800
 80019f2:	4a12      	ldr	r2, [pc, #72]	@ (8001a3c <lcd_confirm_hit_prompt_draw+0xb4>)
 80019f4:	21c8      	movs	r1, #200	@ 0xc8
 80019f6:	2073      	movs	r0, #115	@ 0x73
 80019f8:	f001 faa8 	bl	8002f4c <ST7789_DrawString>
 80019fc:	687b      	ldr	r3, [r7, #4]
 80019fe:	2b02      	cmp	r3, #2
 8001a00:	d109      	bne.n	8001a16 <lcd_confirm_hit_prompt_draw+0x8e>
 8001a02:	2302      	movs	r3, #2
 8001a04:	9300      	str	r3, [sp, #0]
 8001a06:	f647 030f 	movw	r3, #30735	@ 0x780f
 8001a0a:	4a0d      	ldr	r2, [pc, #52]	@ (8001a40 <lcd_confirm_hit_prompt_draw+0xb8>)
 8001a0c:	21c8      	movs	r1, #200	@ 0xc8
 8001a0e:	20c8      	movs	r0, #200	@ 0xc8
 8001a10:	f001 fa9c 	bl	8002f4c <ST7789_DrawString>
 8001a14:	e008      	b.n	8001a28 <lcd_confirm_hit_prompt_draw+0xa0>
 8001a16:	2302      	movs	r3, #2
 8001a18:	9300      	str	r3, [sp, #0]
 8001a1a:	f44f 4378 	mov.w	r3, #63488	@ 0xf800
 8001a1e:	4a08      	ldr	r2, [pc, #32]	@ (8001a40 <lcd_confirm_hit_prompt_draw+0xb8>)
 8001a20:	21c8      	movs	r1, #200	@ 0xc8
 8001a22:	20c8      	movs	r0, #200	@ 0xc8
 8001a24:	f001 fa92 	bl	8002f4c <ST7789_DrawString>
 8001a28:	2008      	movs	r0, #8
 8001a2a:	f006 f953 	bl	8007cd4 <delay_ms>
 8001a2e:	bf00      	nop
 8001a30:	3708      	adds	r7, #8
 8001a32:	46bd      	mov	sp, r7
 8001a34:	bd80      	pop	{r7, pc}
 8001a36:	bf00      	nop
 8001a38:	0800a444 	.word	0x0800a444
 8001a3c:	0800a450 	.word	0x0800a450
 8001a40:	0800a454 	.word	0x0800a454

08001a44 <lcd_roll_prompt>:
 8001a44:	b580      	push	{r7, lr}
 8001a46:	b082      	sub	sp, #8
 8001a48:	af00      	add	r7, sp, #0
 8001a4a:	6078      	str	r0, [r7, #4]
 8001a4c:	4b53      	ldr	r3, [pc, #332]	@ (8001b9c <lcd_roll_prompt+0x158>)
 8001a4e:	2200      	movs	r2, #0
 8001a50:	601a      	str	r2, [r3, #0]
 8001a52:	4b53      	ldr	r3, [pc, #332]	@ (8001ba0 <lcd_roll_prompt+0x15c>)
 8001a54:	2200      	movs	r2, #0
 8001a56:	601a      	str	r2, [r3, #0]
 8001a58:	4b52      	ldr	r3, [pc, #328]	@ (8001ba4 <lcd_roll_prompt+0x160>)
 8001a5a:	2200      	movs	r2, #0
 8001a5c:	601a      	str	r2, [r3, #0]
 8001a5e:	4b52      	ldr	r3, [pc, #328]	@ (8001ba8 <lcd_roll_prompt+0x164>)
 8001a60:	2200      	movs	r2, #0
 8001a62:	601a      	str	r2, [r3, #0]
 8001a64:	687b      	ldr	r3, [r7, #4]
 8001a66:	2b00      	cmp	r3, #0
 8001a68:	d115      	bne.n	8001a96 <lcd_roll_prompt+0x52>
 8001a6a:	f64f 70e0 	movw	r0, #65504	@ 0xffe0
 8001a6e:	f7fe fe85 	bl	800077c <ST7789_Fill>
 8001a72:	2304      	movs	r3, #4
 8001a74:	f44f 4278 	mov.w	r2, #63488	@ 0xf800
 8001a78:	494c      	ldr	r1, [pc, #304]	@ (8001bac <lcd_roll_prompt+0x168>)
 8001a7a:	2028      	movs	r0, #40	@ 0x28
 8001a7c:	f7fe ff80 	bl	8000980 <draw_centered_string>
 8001a80:	2304      	movs	r3, #4
 8001a82:	f44f 4278 	mov.w	r2, #63488	@ 0xf800
 8001a86:	494a      	ldr	r1, [pc, #296]	@ (8001bb0 <lcd_roll_prompt+0x16c>)
 8001a88:	2050      	movs	r0, #80	@ 0x50
 8001a8a:	f7fe ff79 	bl	8000980 <draw_centered_string>
 8001a8e:	2008      	movs	r0, #8
 8001a90:	f006 f920 	bl	8007cd4 <delay_ms>
 8001a94:	e049      	b.n	8001b2a <lcd_roll_prompt+0xe6>
 8001a96:	687b      	ldr	r3, [r7, #4]
 8001a98:	2b01      	cmp	r3, #1
 8001a9a:	d115      	bne.n	8001ac8 <lcd_roll_prompt+0x84>
 8001a9c:	f64f 70e0 	movw	r0, #65504	@ 0xffe0
 8001aa0:	f7fe fe6c 	bl	800077c <ST7789_Fill>
 8001aa4:	2304      	movs	r3, #4
 8001aa6:	f44f 4278 	mov.w	r2, #63488	@ 0xf800
 8001aaa:	4942      	ldr	r1, [pc, #264]	@ (8001bb4 <lcd_roll_prompt+0x170>)
 8001aac:	2028      	movs	r0, #40	@ 0x28
 8001aae:	f7fe ff67 	bl	8000980 <draw_centered_string>
 8001ab2:	2304      	movs	r3, #4
 8001ab4:	f44f 4278 	mov.w	r2, #63488	@ 0xf800
 8001ab8:	493f      	ldr	r1, [pc, #252]	@ (8001bb8 <lcd_roll_prompt+0x174>)
 8001aba:	2050      	movs	r0, #80	@ 0x50
 8001abc:	f7fe ff60 	bl	8000980 <draw_centered_string>
 8001ac0:	2008      	movs	r0, #8
 8001ac2:	f006 f907 	bl	8007cd4 <delay_ms>
 8001ac6:	e030      	b.n	8001b2a <lcd_roll_prompt+0xe6>
 8001ac8:	687b      	ldr	r3, [r7, #4]
 8001aca:	2b02      	cmp	r3, #2
 8001acc:	d115      	bne.n	8001afa <lcd_roll_prompt+0xb6>
 8001ace:	f64f 70e0 	movw	r0, #65504	@ 0xffe0
 8001ad2:	f7fe fe53 	bl	800077c <ST7789_Fill>
 8001ad6:	2304      	movs	r3, #4
 8001ad8:	f44f 4278 	mov.w	r2, #63488	@ 0xf800
 8001adc:	4935      	ldr	r1, [pc, #212]	@ (8001bb4 <lcd_roll_prompt+0x170>)
 8001ade:	2028      	movs	r0, #40	@ 0x28
 8001ae0:	f7fe ff4e 	bl	8000980 <draw_centered_string>
 8001ae4:	2304      	movs	r3, #4
 8001ae6:	f44f 4278 	mov.w	r2, #63488	@ 0xf800
 8001aea:	4934      	ldr	r1, [pc, #208]	@ (8001bbc <lcd_roll_prompt+0x178>)
 8001aec:	2050      	movs	r0, #80	@ 0x50
 8001aee:	f7fe ff47 	bl	8000980 <draw_centered_string>
 8001af2:	2008      	movs	r0, #8
 8001af4:	f006 f8ee 	bl	8007cd4 <delay_ms>
 8001af8:	e017      	b.n	8001b2a <lcd_roll_prompt+0xe6>
 8001afa:	687b      	ldr	r3, [r7, #4]
 8001afc:	2b03      	cmp	r3, #3
 8001afe:	d114      	bne.n	8001b2a <lcd_roll_prompt+0xe6>
 8001b00:	f64f 70e0 	movw	r0, #65504	@ 0xffe0
 8001b04:	f7fe fe3a 	bl	800077c <ST7789_Fill>
 8001b08:	2304      	movs	r3, #4
 8001b0a:	f44f 4278 	mov.w	r2, #63488	@ 0xf800
 8001b0e:	4929      	ldr	r1, [pc, #164]	@ (8001bb4 <lcd_roll_prompt+0x170>)
 8001b10:	2028      	movs	r0, #40	@ 0x28
 8001b12:	f7fe ff35 	bl	8000980 <draw_centered_string>
 8001b16:	2304      	movs	r3, #4
 8001b18:	f44f 4278 	mov.w	r2, #63488	@ 0xf800
 8001b1c:	4928      	ldr	r1, [pc, #160]	@ (8001bc0 <lcd_roll_prompt+0x17c>)
 8001b1e:	2050      	movs	r0, #80	@ 0x50
 8001b20:	f7fe ff2e 	bl	8000980 <draw_centered_string>
 8001b24:	2008      	movs	r0, #8
 8001b26:	f006 f8d5 	bl	8007cd4 <delay_ms>
 8001b2a:	4b1c      	ldr	r3, [pc, #112]	@ (8001b9c <lcd_roll_prompt+0x158>)
 8001b2c:	681b      	ldr	r3, [r3, #0]
 8001b2e:	4618      	mov	r0, r3
 8001b30:	f7ff fe5a 	bl	80017e8 <lcd_roll_prompt_draw>
 8001b34:	4b19      	ldr	r3, [pc, #100]	@ (8001b9c <lcd_roll_prompt+0x158>)
 8001b36:	681b      	ldr	r3, [r3, #0]
 8001b38:	2b00      	cmp	r3, #0
 8001b3a:	da02      	bge.n	8001b42 <lcd_roll_prompt+0xfe>
 8001b3c:	4b17      	ldr	r3, [pc, #92]	@ (8001b9c <lcd_roll_prompt+0x158>)
 8001b3e:	2200      	movs	r2, #0
 8001b40:	601a      	str	r2, [r3, #0]
 8001b42:	4b16      	ldr	r3, [pc, #88]	@ (8001b9c <lcd_roll_prompt+0x158>)
 8001b44:	681b      	ldr	r3, [r3, #0]
 8001b46:	2b01      	cmp	r3, #1
 8001b48:	dd02      	ble.n	8001b50 <lcd_roll_prompt+0x10c>
 8001b4a:	4b14      	ldr	r3, [pc, #80]	@ (8001b9c <lcd_roll_prompt+0x158>)
 8001b4c:	2201      	movs	r2, #1
 8001b4e:	601a      	str	r2, [r3, #0]
 8001b50:	4b13      	ldr	r3, [pc, #76]	@ (8001ba0 <lcd_roll_prompt+0x15c>)
 8001b52:	681b      	ldr	r3, [r3, #0]
 8001b54:	2b00      	cmp	r3, #0
 8001b56:	d103      	bne.n	8001b60 <lcd_roll_prompt+0x11c>
 8001b58:	4b12      	ldr	r3, [pc, #72]	@ (8001ba4 <lcd_roll_prompt+0x160>)
 8001b5a:	681b      	ldr	r3, [r3, #0]
 8001b5c:	2b00      	cmp	r3, #0
 8001b5e:	d00a      	beq.n	8001b76 <lcd_roll_prompt+0x132>
 8001b60:	4b0f      	ldr	r3, [pc, #60]	@ (8001ba0 <lcd_roll_prompt+0x15c>)
 8001b62:	2200      	movs	r2, #0
 8001b64:	601a      	str	r2, [r3, #0]
 8001b66:	4b0f      	ldr	r3, [pc, #60]	@ (8001ba4 <lcd_roll_prompt+0x160>)
 8001b68:	2200      	movs	r2, #0
 8001b6a:	601a      	str	r2, [r3, #0]
 8001b6c:	4b0b      	ldr	r3, [pc, #44]	@ (8001b9c <lcd_roll_prompt+0x158>)
 8001b6e:	681b      	ldr	r3, [r3, #0]
 8001b70:	4618      	mov	r0, r3
 8001b72:	f7ff fe39 	bl	80017e8 <lcd_roll_prompt_draw>
 8001b76:	4b0c      	ldr	r3, [pc, #48]	@ (8001ba8 <lcd_roll_prompt+0x164>)
 8001b78:	681b      	ldr	r3, [r3, #0]
 8001b7a:	2b00      	cmp	r3, #0
 8001b7c:	d0da      	beq.n	8001b34 <lcd_roll_prompt+0xf0>
 8001b7e:	4b0a      	ldr	r3, [pc, #40]	@ (8001ba8 <lcd_roll_prompt+0x164>)
 8001b80:	2200      	movs	r2, #0
 8001b82:	601a      	str	r2, [r3, #0]
 8001b84:	4b05      	ldr	r3, [pc, #20]	@ (8001b9c <lcd_roll_prompt+0x158>)
 8001b86:	681b      	ldr	r3, [r3, #0]
 8001b88:	2b00      	cmp	r3, #0
 8001b8a:	d101      	bne.n	8001b90 <lcd_roll_prompt+0x14c>
 8001b8c:	2301      	movs	r3, #1
 8001b8e:	e000      	b.n	8001b92 <lcd_roll_prompt+0x14e>
 8001b90:	2300      	movs	r3, #0
 8001b92:	4618      	mov	r0, r3
 8001b94:	3708      	adds	r7, #8
 8001b96:	46bd      	mov	sp, r7
 8001b98:	bd80      	pop	{r7, pc}
 8001b9a:	bf00      	nop
 8001b9c:	20001870 	.word	0x20001870
 8001ba0:	20001860 	.word	0x20001860
 8001ba4:	20001864 	.word	0x20001864
 8001ba8:	2000185c 	.word	0x2000185c
 8001bac:	0800a45c 	.word	0x0800a45c
 8001bb0:	0800a468 	.word	0x0800a468
 8001bb4:	0800a470 	.word	0x0800a470
 8001bb8:	0800a47c 	.word	0x0800a47c
 8001bbc:	0800a48c 	.word	0x0800a48c
 8001bc0:	0800a498 	.word	0x0800a498

08001bc4 <lcd_ability_check_end>:
 8001bc4:	b580      	push	{r7, lr}
 8001bc6:	af00      	add	r7, sp, #0
 8001bc8:	4b1a      	ldr	r3, [pc, #104]	@ (8001c34 <lcd_ability_check_end+0x70>)
 8001bca:	2200      	movs	r2, #0
 8001bcc:	601a      	str	r2, [r3, #0]
 8001bce:	f64f 70e0 	movw	r0, #65504	@ 0xffe0
 8001bd2:	f7fe fdd3 	bl	800077c <ST7789_Fill>
 8001bd6:	2304      	movs	r3, #4
 8001bd8:	f44f 4278 	mov.w	r2, #63488	@ 0xf800
 8001bdc:	4916      	ldr	r1, [pc, #88]	@ (8001c38 <lcd_ability_check_end+0x74>)
 8001bde:	2050      	movs	r0, #80	@ 0x50
 8001be0:	f7fe fece 	bl	8000980 <draw_centered_string>
 8001be4:	2304      	movs	r3, #4
 8001be6:	f44f 4278 	mov.w	r2, #63488	@ 0xf800
 8001bea:	4914      	ldr	r1, [pc, #80]	@ (8001c3c <lcd_ability_check_end+0x78>)
 8001bec:	2078      	movs	r0, #120	@ 0x78
 8001bee:	f7fe fec7 	bl	8000980 <draw_centered_string>
 8001bf2:	2304      	movs	r3, #4
 8001bf4:	f44f 4278 	mov.w	r2, #63488	@ 0xf800
 8001bf8:	4911      	ldr	r1, [pc, #68]	@ (8001c40 <lcd_ability_check_end+0x7c>)
 8001bfa:	20aa      	movs	r0, #170	@ 0xaa
 8001bfc:	f7fe fec0 	bl	8000980 <draw_centered_string>
 8001c00:	2008      	movs	r0, #8
 8001c02:	f006 f867 	bl	8007cd4 <delay_ms>
 8001c06:	4b0b      	ldr	r3, [pc, #44]	@ (8001c34 <lcd_ability_check_end+0x70>)
 8001c08:	681b      	ldr	r3, [r3, #0]
 8001c0a:	2b01      	cmp	r3, #1
 8001c0c:	d1fb      	bne.n	8001c06 <lcd_ability_check_end+0x42>
 8001c0e:	2304      	movs	r3, #4
 8001c10:	f647 72ff 	movw	r2, #32767	@ 0x7fff
 8001c14:	490a      	ldr	r1, [pc, #40]	@ (8001c40 <lcd_ability_check_end+0x7c>)
 8001c16:	20aa      	movs	r0, #170	@ 0xaa
 8001c18:	f7fe feb2 	bl	8000980 <draw_centered_string>
 8001c1c:	2064      	movs	r0, #100	@ 0x64
 8001c1e:	f006 f859 	bl	8007cd4 <delay_ms>
 8001c22:	f7fe ff4d 	bl	8000ac0 <ability_check_mode_lcd>
 8001c26:	4b03      	ldr	r3, [pc, #12]	@ (8001c34 <lcd_ability_check_end+0x70>)
 8001c28:	2200      	movs	r2, #0
 8001c2a:	601a      	str	r2, [r3, #0]
 8001c2c:	2301      	movs	r3, #1
 8001c2e:	4618      	mov	r0, r3
 8001c30:	bd80      	pop	{r7, pc}
 8001c32:	bf00      	nop
 8001c34:	2000185c 	.word	0x2000185c
 8001c38:	0800a4a8 	.word	0x0800a4a8
 8001c3c:	0800a4b4 	.word	0x0800a4b4
 8001c40:	0800a4c8 	.word	0x0800a4c8

08001c44 <lcd_combat_end>:
 8001c44:	b580      	push	{r7, lr}
 8001c46:	b082      	sub	sp, #8
 8001c48:	af02      	add	r7, sp, #8
 8001c4a:	4b1f      	ldr	r3, [pc, #124]	@ (8001cc8 <lcd_combat_end+0x84>)
 8001c4c:	2200      	movs	r2, #0
 8001c4e:	601a      	str	r2, [r3, #0]
 8001c50:	f64f 70e0 	movw	r0, #65504	@ 0xffe0
 8001c54:	f7fe fd92 	bl	800077c <ST7789_Fill>
 8001c58:	2304      	movs	r3, #4
 8001c5a:	9300      	str	r3, [sp, #0]
 8001c5c:	f44f 4378 	mov.w	r3, #63488	@ 0xf800
 8001c60:	4a1a      	ldr	r2, [pc, #104]	@ (8001ccc <lcd_combat_end+0x88>)
 8001c62:	2158      	movs	r1, #88	@ 0x58
 8001c64:	2058      	movs	r0, #88	@ 0x58
 8001c66:	f001 f971 	bl	8002f4c <ST7789_DrawString>
 8001c6a:	2304      	movs	r3, #4
 8001c6c:	9300      	str	r3, [sp, #0]
 8001c6e:	f44f 4378 	mov.w	r3, #63488	@ 0xf800
 8001c72:	4a17      	ldr	r2, [pc, #92]	@ (8001cd0 <lcd_combat_end+0x8c>)
 8001c74:	2178      	movs	r1, #120	@ 0x78
 8001c76:	2070      	movs	r0, #112	@ 0x70
 8001c78:	f001 f968 	bl	8002f4c <ST7789_DrawString>
 8001c7c:	2304      	movs	r3, #4
 8001c7e:	9300      	str	r3, [sp, #0]
 8001c80:	f44f 4378 	mov.w	r3, #63488	@ 0xf800
 8001c84:	4a13      	ldr	r2, [pc, #76]	@ (8001cd4 <lcd_combat_end+0x90>)
 8001c86:	21aa      	movs	r1, #170	@ 0xaa
 8001c88:	2070      	movs	r0, #112	@ 0x70
 8001c8a:	f001 f95f 	bl	8002f4c <ST7789_DrawString>
 8001c8e:	2008      	movs	r0, #8
 8001c90:	f006 f820 	bl	8007cd4 <delay_ms>
 8001c94:	4b0c      	ldr	r3, [pc, #48]	@ (8001cc8 <lcd_combat_end+0x84>)
 8001c96:	681b      	ldr	r3, [r3, #0]
 8001c98:	2b01      	cmp	r3, #1
 8001c9a:	d1fb      	bne.n	8001c94 <lcd_combat_end+0x50>
 8001c9c:	2304      	movs	r3, #4
 8001c9e:	9300      	str	r3, [sp, #0]
 8001ca0:	f647 73ff 	movw	r3, #32767	@ 0x7fff
 8001ca4:	4a0b      	ldr	r2, [pc, #44]	@ (8001cd4 <lcd_combat_end+0x90>)
 8001ca6:	21aa      	movs	r1, #170	@ 0xaa
 8001ca8:	2070      	movs	r0, #112	@ 0x70
 8001caa:	f001 f94f 	bl	8002f4c <ST7789_DrawString>
 8001cae:	2064      	movs	r0, #100	@ 0x64
 8001cb0:	f006 f810 	bl	8007cd4 <delay_ms>
 8001cb4:	f7fe ff04 	bl	8000ac0 <ability_check_mode_lcd>
 8001cb8:	4b03      	ldr	r3, [pc, #12]	@ (8001cc8 <lcd_combat_end+0x84>)
 8001cba:	2200      	movs	r2, #0
 8001cbc:	601a      	str	r2, [r3, #0]
 8001cbe:	2301      	movs	r3, #1
 8001cc0:	4618      	mov	r0, r3
 8001cc2:	46bd      	mov	sp, r7
 8001cc4:	bd80      	pop	{r7, pc}
 8001cc6:	bf00      	nop
 8001cc8:	2000185c 	.word	0x2000185c
 8001ccc:	0800a4d0 	.word	0x0800a4d0
 8001cd0:	0800a4dc 	.word	0x0800a4dc
 8001cd4:	0800a4c8 	.word	0x0800a4c8

08001cd8 <lcd_down_check>:
 8001cd8:	b580      	push	{r7, lr}
 8001cda:	b084      	sub	sp, #16
 8001cdc:	af02      	add	r7, sp, #8
 8001cde:	6078      	str	r0, [r7, #4]
 8001ce0:	4b34      	ldr	r3, [pc, #208]	@ (8001db4 <lcd_down_check+0xdc>)
 8001ce2:	2200      	movs	r2, #0
 8001ce4:	601a      	str	r2, [r3, #0]
 8001ce6:	4b34      	ldr	r3, [pc, #208]	@ (8001db8 <lcd_down_check+0xe0>)
 8001ce8:	2200      	movs	r2, #0
 8001cea:	601a      	str	r2, [r3, #0]
 8001cec:	4b33      	ldr	r3, [pc, #204]	@ (8001dbc <lcd_down_check+0xe4>)
 8001cee:	2200      	movs	r2, #0
 8001cf0:	601a      	str	r2, [r3, #0]
 8001cf2:	4b33      	ldr	r3, [pc, #204]	@ (8001dc0 <lcd_down_check+0xe8>)
 8001cf4:	2200      	movs	r2, #0
 8001cf6:	601a      	str	r2, [r3, #0]
 8001cf8:	f64f 70e0 	movw	r0, #65504	@ 0xffe0
 8001cfc:	f7fe fd3e 	bl	800077c <ST7789_Fill>
 8001d00:	687b      	ldr	r3, [r7, #4]
 8001d02:	2b00      	cmp	r3, #0
 8001d04:	d109      	bne.n	8001d1a <lcd_down_check+0x42>
 8001d06:	2304      	movs	r3, #4
 8001d08:	9300      	str	r3, [sp, #0]
 8001d0a:	f44f 4378 	mov.w	r3, #63488	@ 0xf800
 8001d0e:	4a2d      	ldr	r2, [pc, #180]	@ (8001dc4 <lcd_down_check+0xec>)
 8001d10:	2128      	movs	r1, #40	@ 0x28
 8001d12:	2014      	movs	r0, #20
 8001d14:	f001 f91a 	bl	8002f4c <ST7789_DrawString>
 8001d18:	e00b      	b.n	8001d32 <lcd_down_check+0x5a>
 8001d1a:	687b      	ldr	r3, [r7, #4]
 8001d1c:	2b01      	cmp	r3, #1
 8001d1e:	d108      	bne.n	8001d32 <lcd_down_check+0x5a>
 8001d20:	2304      	movs	r3, #4
 8001d22:	9300      	str	r3, [sp, #0]
 8001d24:	f44f 4378 	mov.w	r3, #63488	@ 0xf800
 8001d28:	4a27      	ldr	r2, [pc, #156]	@ (8001dc8 <lcd_down_check+0xf0>)
 8001d2a:	2128      	movs	r1, #40	@ 0x28
 8001d2c:	2014      	movs	r0, #20
 8001d2e:	f001 f90d 	bl	8002f4c <ST7789_DrawString>
 8001d32:	2304      	movs	r3, #4
 8001d34:	9300      	str	r3, [sp, #0]
 8001d36:	f44f 4378 	mov.w	r3, #63488	@ 0xf800
 8001d3a:	4a24      	ldr	r2, [pc, #144]	@ (8001dcc <lcd_down_check+0xf4>)
 8001d3c:	2158      	movs	r1, #88	@ 0x58
 8001d3e:	2058      	movs	r0, #88	@ 0x58
 8001d40:	f001 f904 	bl	8002f4c <ST7789_DrawString>
 8001d44:	4b1b      	ldr	r3, [pc, #108]	@ (8001db4 <lcd_down_check+0xdc>)
 8001d46:	681b      	ldr	r3, [r3, #0]
 8001d48:	4618      	mov	r0, r3
 8001d4a:	f7ff fdd7 	bl	80018fc <lcd_down_check_draw>
 8001d4e:	4b19      	ldr	r3, [pc, #100]	@ (8001db4 <lcd_down_check+0xdc>)
 8001d50:	681b      	ldr	r3, [r3, #0]
 8001d52:	2b00      	cmp	r3, #0
 8001d54:	da02      	bge.n	8001d5c <lcd_down_check+0x84>
 8001d56:	4b17      	ldr	r3, [pc, #92]	@ (8001db4 <lcd_down_check+0xdc>)
 8001d58:	2200      	movs	r2, #0
 8001d5a:	601a      	str	r2, [r3, #0]
 8001d5c:	4b15      	ldr	r3, [pc, #84]	@ (8001db4 <lcd_down_check+0xdc>)
 8001d5e:	681b      	ldr	r3, [r3, #0]
 8001d60:	2b01      	cmp	r3, #1
 8001d62:	dd02      	ble.n	8001d6a <lcd_down_check+0x92>
 8001d64:	4b13      	ldr	r3, [pc, #76]	@ (8001db4 <lcd_down_check+0xdc>)
 8001d66:	2201      	movs	r2, #1
 8001d68:	601a      	str	r2, [r3, #0]
 8001d6a:	4b13      	ldr	r3, [pc, #76]	@ (8001db8 <lcd_down_check+0xe0>)
 8001d6c:	681b      	ldr	r3, [r3, #0]
 8001d6e:	2b00      	cmp	r3, #0
 8001d70:	d103      	bne.n	8001d7a <lcd_down_check+0xa2>
 8001d72:	4b12      	ldr	r3, [pc, #72]	@ (8001dbc <lcd_down_check+0xe4>)
 8001d74:	681b      	ldr	r3, [r3, #0]
 8001d76:	2b00      	cmp	r3, #0
 8001d78:	d00a      	beq.n	8001d90 <lcd_down_check+0xb8>
 8001d7a:	4b10      	ldr	r3, [pc, #64]	@ (8001dbc <lcd_down_check+0xe4>)
 8001d7c:	2200      	movs	r2, #0
 8001d7e:	601a      	str	r2, [r3, #0]
 8001d80:	4b0d      	ldr	r3, [pc, #52]	@ (8001db8 <lcd_down_check+0xe0>)
 8001d82:	2200      	movs	r2, #0
 8001d84:	601a      	str	r2, [r3, #0]
 8001d86:	4b0b      	ldr	r3, [pc, #44]	@ (8001db4 <lcd_down_check+0xdc>)
 8001d88:	681b      	ldr	r3, [r3, #0]
 8001d8a:	4618      	mov	r0, r3
 8001d8c:	f7ff fdb6 	bl	80018fc <lcd_down_check_draw>
 8001d90:	4b0b      	ldr	r3, [pc, #44]	@ (8001dc0 <lcd_down_check+0xe8>)
 8001d92:	681b      	ldr	r3, [r3, #0]
 8001d94:	2b00      	cmp	r3, #0
 8001d96:	d0da      	beq.n	8001d4e <lcd_down_check+0x76>
 8001d98:	4b09      	ldr	r3, [pc, #36]	@ (8001dc0 <lcd_down_check+0xe8>)
 8001d9a:	2200      	movs	r2, #0
 8001d9c:	601a      	str	r2, [r3, #0]
 8001d9e:	4b05      	ldr	r3, [pc, #20]	@ (8001db4 <lcd_down_check+0xdc>)
 8001da0:	681b      	ldr	r3, [r3, #0]
 8001da2:	2b00      	cmp	r3, #0
 8001da4:	d101      	bne.n	8001daa <lcd_down_check+0xd2>
 8001da6:	2301      	movs	r3, #1
 8001da8:	e000      	b.n	8001dac <lcd_down_check+0xd4>
 8001daa:	2300      	movs	r3, #0
 8001dac:	4618      	mov	r0, r3
 8001dae:	3708      	adds	r7, #8
 8001db0:	46bd      	mov	sp, r7
 8001db2:	bd80      	pop	{r7, pc}
 8001db4:	20001870 	.word	0x20001870
 8001db8:	20001860 	.word	0x20001860
 8001dbc:	20001864 	.word	0x20001864
 8001dc0:	2000185c 	.word	0x2000185c
 8001dc4:	0800a4e8 	.word	0x0800a4e8
 8001dc8:	0800a4f0 	.word	0x0800a4f0
 8001dcc:	0800a4f8 	.word	0x0800a4f8

08001dd0 <lcd_no_roll_prompt>:
 8001dd0:	b580      	push	{r7, lr}
 8001dd2:	af00      	add	r7, sp, #0
 8001dd4:	4b29      	ldr	r3, [pc, #164]	@ (8001e7c <lcd_no_roll_prompt+0xac>)
 8001dd6:	2200      	movs	r2, #0
 8001dd8:	601a      	str	r2, [r3, #0]
 8001dda:	4b29      	ldr	r3, [pc, #164]	@ (8001e80 <lcd_no_roll_prompt+0xb0>)
 8001ddc:	2200      	movs	r2, #0
 8001dde:	601a      	str	r2, [r3, #0]
 8001de0:	4b28      	ldr	r3, [pc, #160]	@ (8001e84 <lcd_no_roll_prompt+0xb4>)
 8001de2:	2200      	movs	r2, #0
 8001de4:	601a      	str	r2, [r3, #0]
 8001de6:	4b28      	ldr	r3, [pc, #160]	@ (8001e88 <lcd_no_roll_prompt+0xb8>)
 8001de8:	2200      	movs	r2, #0
 8001dea:	601a      	str	r2, [r3, #0]
 8001dec:	f64f 70e0 	movw	r0, #65504	@ 0xffe0
 8001df0:	f7fe fcc4 	bl	800077c <ST7789_Fill>
 8001df4:	2302      	movs	r3, #2
 8001df6:	f44f 4278 	mov.w	r2, #63488	@ 0xf800
 8001dfa:	4924      	ldr	r1, [pc, #144]	@ (8001e8c <lcd_no_roll_prompt+0xbc>)
 8001dfc:	2028      	movs	r0, #40	@ 0x28
 8001dfe:	f7fe fdbf 	bl	8000980 <draw_centered_string>
 8001e02:	2301      	movs	r3, #1
 8001e04:	f44f 4278 	mov.w	r2, #63488	@ 0xf800
 8001e08:	4921      	ldr	r1, [pc, #132]	@ (8001e90 <lcd_no_roll_prompt+0xc0>)
 8001e0a:	2050      	movs	r0, #80	@ 0x50
 8001e0c:	f7fe fdb8 	bl	8000980 <draw_centered_string>
 8001e10:	4b1a      	ldr	r3, [pc, #104]	@ (8001e7c <lcd_no_roll_prompt+0xac>)
 8001e12:	681b      	ldr	r3, [r3, #0]
 8001e14:	4618      	mov	r0, r3
 8001e16:	f7ff fd2b 	bl	8001870 <lcd_no_roll_prompt_draw>
 8001e1a:	4b18      	ldr	r3, [pc, #96]	@ (8001e7c <lcd_no_roll_prompt+0xac>)
 8001e1c:	681b      	ldr	r3, [r3, #0]
 8001e1e:	2b00      	cmp	r3, #0
 8001e20:	da02      	bge.n	8001e28 <lcd_no_roll_prompt+0x58>
 8001e22:	4b16      	ldr	r3, [pc, #88]	@ (8001e7c <lcd_no_roll_prompt+0xac>)
 8001e24:	2200      	movs	r2, #0
 8001e26:	601a      	str	r2, [r3, #0]
 8001e28:	4b14      	ldr	r3, [pc, #80]	@ (8001e7c <lcd_no_roll_prompt+0xac>)
 8001e2a:	681b      	ldr	r3, [r3, #0]
 8001e2c:	2b01      	cmp	r3, #1
 8001e2e:	dd02      	ble.n	8001e36 <lcd_no_roll_prompt+0x66>
 8001e30:	4b12      	ldr	r3, [pc, #72]	@ (8001e7c <lcd_no_roll_prompt+0xac>)
 8001e32:	2201      	movs	r2, #1
 8001e34:	601a      	str	r2, [r3, #0]
 8001e36:	4b12      	ldr	r3, [pc, #72]	@ (8001e80 <lcd_no_roll_prompt+0xb0>)
 8001e38:	681b      	ldr	r3, [r3, #0]
 8001e3a:	2b00      	cmp	r3, #0
 8001e3c:	d103      	bne.n	8001e46 <lcd_no_roll_prompt+0x76>
 8001e3e:	4b11      	ldr	r3, [pc, #68]	@ (8001e84 <lcd_no_roll_prompt+0xb4>)
 8001e40:	681b      	ldr	r3, [r3, #0]
 8001e42:	2b00      	cmp	r3, #0
 8001e44:	d00a      	beq.n	8001e5c <lcd_no_roll_prompt+0x8c>
 8001e46:	4b0f      	ldr	r3, [pc, #60]	@ (8001e84 <lcd_no_roll_prompt+0xb4>)
 8001e48:	2200      	movs	r2, #0
 8001e4a:	601a      	str	r2, [r3, #0]
 8001e4c:	4b0c      	ldr	r3, [pc, #48]	@ (8001e80 <lcd_no_roll_prompt+0xb0>)
 8001e4e:	2200      	movs	r2, #0
 8001e50:	601a      	str	r2, [r3, #0]
 8001e52:	4b0a      	ldr	r3, [pc, #40]	@ (8001e7c <lcd_no_roll_prompt+0xac>)
 8001e54:	681b      	ldr	r3, [r3, #0]
 8001e56:	4618      	mov	r0, r3
 8001e58:	f7ff fd0a 	bl	8001870 <lcd_no_roll_prompt_draw>
 8001e5c:	4b0a      	ldr	r3, [pc, #40]	@ (8001e88 <lcd_no_roll_prompt+0xb8>)
 8001e5e:	681b      	ldr	r3, [r3, #0]
 8001e60:	2b00      	cmp	r3, #0
 8001e62:	d0da      	beq.n	8001e1a <lcd_no_roll_prompt+0x4a>
 8001e64:	4b08      	ldr	r3, [pc, #32]	@ (8001e88 <lcd_no_roll_prompt+0xb8>)
 8001e66:	2200      	movs	r2, #0
 8001e68:	601a      	str	r2, [r3, #0]
 8001e6a:	4b04      	ldr	r3, [pc, #16]	@ (8001e7c <lcd_no_roll_prompt+0xac>)
 8001e6c:	681b      	ldr	r3, [r3, #0]
 8001e6e:	2b00      	cmp	r3, #0
 8001e70:	d101      	bne.n	8001e76 <lcd_no_roll_prompt+0xa6>
 8001e72:	2301      	movs	r3, #1
 8001e74:	e000      	b.n	8001e78 <lcd_no_roll_prompt+0xa8>
 8001e76:	2300      	movs	r3, #0
 8001e78:	4618      	mov	r0, r3
 8001e7a:	bd80      	pop	{r7, pc}
 8001e7c:	20001870 	.word	0x20001870
 8001e80:	20001860 	.word	0x20001860
 8001e84:	20001864 	.word	0x20001864
 8001e88:	2000185c 	.word	0x2000185c
 8001e8c:	0800a500 	.word	0x0800a500
 8001e90:	0800a514 	.word	0x0800a514

08001e94 <lcd_reroll_prompt>:
 8001e94:	b580      	push	{r7, lr}
 8001e96:	af00      	add	r7, sp, #0
 8001e98:	4b29      	ldr	r3, [pc, #164]	@ (8001f40 <lcd_reroll_prompt+0xac>)
 8001e9a:	2200      	movs	r2, #0
 8001e9c:	601a      	str	r2, [r3, #0]
 8001e9e:	4b29      	ldr	r3, [pc, #164]	@ (8001f44 <lcd_reroll_prompt+0xb0>)
 8001ea0:	2200      	movs	r2, #0
 8001ea2:	601a      	str	r2, [r3, #0]
 8001ea4:	4b28      	ldr	r3, [pc, #160]	@ (8001f48 <lcd_reroll_prompt+0xb4>)
 8001ea6:	2200      	movs	r2, #0
 8001ea8:	601a      	str	r2, [r3, #0]
 8001eaa:	4b28      	ldr	r3, [pc, #160]	@ (8001f4c <lcd_reroll_prompt+0xb8>)
 8001eac:	2200      	movs	r2, #0
 8001eae:	601a      	str	r2, [r3, #0]
 8001eb0:	f64f 70e0 	movw	r0, #65504	@ 0xffe0
 8001eb4:	f7fe fc62 	bl	800077c <ST7789_Fill>
 8001eb8:	2304      	movs	r3, #4
 8001eba:	f44f 4278 	mov.w	r2, #63488	@ 0xf800
 8001ebe:	4924      	ldr	r1, [pc, #144]	@ (8001f50 <lcd_reroll_prompt+0xbc>)
 8001ec0:	2028      	movs	r0, #40	@ 0x28
 8001ec2:	f7fe fd5d 	bl	8000980 <draw_centered_string>
 8001ec6:	2302      	movs	r3, #2
 8001ec8:	f44f 4278 	mov.w	r2, #63488	@ 0xf800
 8001ecc:	4921      	ldr	r1, [pc, #132]	@ (8001f54 <lcd_reroll_prompt+0xc0>)
 8001ece:	2064      	movs	r0, #100	@ 0x64
 8001ed0:	f7fe fd56 	bl	8000980 <draw_centered_string>
 8001ed4:	4b1a      	ldr	r3, [pc, #104]	@ (8001f40 <lcd_reroll_prompt+0xac>)
 8001ed6:	681b      	ldr	r3, [r3, #0]
 8001ed8:	4618      	mov	r0, r3
 8001eda:	f7ff fc85 	bl	80017e8 <lcd_roll_prompt_draw>
 8001ede:	4b18      	ldr	r3, [pc, #96]	@ (8001f40 <lcd_reroll_prompt+0xac>)
 8001ee0:	681b      	ldr	r3, [r3, #0]
 8001ee2:	2b00      	cmp	r3, #0
 8001ee4:	da02      	bge.n	8001eec <lcd_reroll_prompt+0x58>
 8001ee6:	4b16      	ldr	r3, [pc, #88]	@ (8001f40 <lcd_reroll_prompt+0xac>)
 8001ee8:	2200      	movs	r2, #0
 8001eea:	601a      	str	r2, [r3, #0]
 8001eec:	4b14      	ldr	r3, [pc, #80]	@ (8001f40 <lcd_reroll_prompt+0xac>)
 8001eee:	681b      	ldr	r3, [r3, #0]
 8001ef0:	2b01      	cmp	r3, #1
 8001ef2:	dd02      	ble.n	8001efa <lcd_reroll_prompt+0x66>
 8001ef4:	4b12      	ldr	r3, [pc, #72]	@ (8001f40 <lcd_reroll_prompt+0xac>)
 8001ef6:	2201      	movs	r2, #1
 8001ef8:	601a      	str	r2, [r3, #0]
 8001efa:	4b12      	ldr	r3, [pc, #72]	@ (8001f44 <lcd_reroll_prompt+0xb0>)
 8001efc:	681b      	ldr	r3, [r3, #0]
 8001efe:	2b00      	cmp	r3, #0
 8001f00:	d103      	bne.n	8001f0a <lcd_reroll_prompt+0x76>
 8001f02:	4b11      	ldr	r3, [pc, #68]	@ (8001f48 <lcd_reroll_prompt+0xb4>)
 8001f04:	681b      	ldr	r3, [r3, #0]
 8001f06:	2b00      	cmp	r3, #0
 8001f08:	d00a      	beq.n	8001f20 <lcd_reroll_prompt+0x8c>
 8001f0a:	4b0f      	ldr	r3, [pc, #60]	@ (8001f48 <lcd_reroll_prompt+0xb4>)
 8001f0c:	2200      	movs	r2, #0
 8001f0e:	601a      	str	r2, [r3, #0]
 8001f10:	4b0c      	ldr	r3, [pc, #48]	@ (8001f44 <lcd_reroll_prompt+0xb0>)
 8001f12:	2200      	movs	r2, #0
 8001f14:	601a      	str	r2, [r3, #0]
 8001f16:	4b0a      	ldr	r3, [pc, #40]	@ (8001f40 <lcd_reroll_prompt+0xac>)
 8001f18:	681b      	ldr	r3, [r3, #0]
 8001f1a:	4618      	mov	r0, r3
 8001f1c:	f7ff fc64 	bl	80017e8 <lcd_roll_prompt_draw>
 8001f20:	4b0a      	ldr	r3, [pc, #40]	@ (8001f4c <lcd_reroll_prompt+0xb8>)
 8001f22:	681b      	ldr	r3, [r3, #0]
 8001f24:	2b00      	cmp	r3, #0
 8001f26:	d0da      	beq.n	8001ede <lcd_reroll_prompt+0x4a>
 8001f28:	4b08      	ldr	r3, [pc, #32]	@ (8001f4c <lcd_reroll_prompt+0xb8>)
 8001f2a:	2200      	movs	r2, #0
 8001f2c:	601a      	str	r2, [r3, #0]
 8001f2e:	4b04      	ldr	r3, [pc, #16]	@ (8001f40 <lcd_reroll_prompt+0xac>)
 8001f30:	681b      	ldr	r3, [r3, #0]
 8001f32:	2b00      	cmp	r3, #0
 8001f34:	d101      	bne.n	8001f3a <lcd_reroll_prompt+0xa6>
 8001f36:	2301      	movs	r3, #1
 8001f38:	e000      	b.n	8001f3c <lcd_reroll_prompt+0xa8>
 8001f3a:	2300      	movs	r3, #0
 8001f3c:	4618      	mov	r0, r3
 8001f3e:	bd80      	pop	{r7, pc}
 8001f40:	20001870 	.word	0x20001870
 8001f44:	20001860 	.word	0x20001860
 8001f48:	20001864 	.word	0x20001864
 8001f4c:	2000185c 	.word	0x2000185c
 8001f50:	0800a52c 	.word	0x0800a52c
 8001f54:	0800a534 	.word	0x0800a534

08001f58 <lcd_confirm_hit_prompt>:
 8001f58:	b580      	push	{r7, lr}
 8001f5a:	b08a      	sub	sp, #40	@ 0x28
 8001f5c:	af02      	add	r7, sp, #8
 8001f5e:	6078      	str	r0, [r7, #4]
 8001f60:	6039      	str	r1, [r7, #0]
 8001f62:	2301      	movs	r3, #1
 8001f64:	61fb      	str	r3, [r7, #28]
 8001f66:	4b31      	ldr	r3, [pc, #196]	@ (800202c <lcd_confirm_hit_prompt+0xd4>)
 8001f68:	2200      	movs	r2, #0
 8001f6a:	601a      	str	r2, [r3, #0]
 8001f6c:	4b30      	ldr	r3, [pc, #192]	@ (8002030 <lcd_confirm_hit_prompt+0xd8>)
 8001f6e:	2200      	movs	r2, #0
 8001f70:	601a      	str	r2, [r3, #0]
 8001f72:	4b30      	ldr	r3, [pc, #192]	@ (8002034 <lcd_confirm_hit_prompt+0xdc>)
 8001f74:	2200      	movs	r2, #0
 8001f76:	601a      	str	r2, [r3, #0]
 8001f78:	f64f 70e0 	movw	r0, #65504	@ 0xffe0
 8001f7c:	f7fe fbfe 	bl	800077c <ST7789_Fill>
 8001f80:	683b      	ldr	r3, [r7, #0]
 8001f82:	2b01      	cmp	r3, #1
 8001f84:	d11a      	bne.n	8001fbc <lcd_confirm_hit_prompt+0x64>
 8001f86:	2304      	movs	r3, #4
 8001f88:	9300      	str	r3, [sp, #0]
 8001f8a:	f44f 4378 	mov.w	r3, #63488	@ 0xf800
 8001f8e:	4a2a      	ldr	r2, [pc, #168]	@ (8002038 <lcd_confirm_hit_prompt+0xe0>)
 8001f90:	2128      	movs	r1, #40	@ 0x28
 8001f92:	2014      	movs	r0, #20
 8001f94:	f000 ffda 	bl	8002f4c <ST7789_DrawString>
 8001f98:	f107 030c 	add.w	r3, r7, #12
 8001f9c:	687a      	ldr	r2, [r7, #4]
 8001f9e:	4927      	ldr	r1, [pc, #156]	@ (800203c <lcd_confirm_hit_prompt+0xe4>)
 8001fa0:	4618      	mov	r0, r3
 8001fa2:	f007 f8d5 	bl	8009150 <siprintf>
 8001fa6:	f107 020c 	add.w	r2, r7, #12
 8001faa:	2304      	movs	r3, #4
 8001fac:	9300      	str	r3, [sp, #0]
 8001fae:	f44f 4378 	mov.w	r3, #63488	@ 0xf800
 8001fb2:	2150      	movs	r1, #80	@ 0x50
 8001fb4:	2014      	movs	r0, #20
 8001fb6:	f000 ffc9 	bl	8002f4c <ST7789_DrawString>
 8001fba:	e008      	b.n	8001fce <lcd_confirm_hit_prompt+0x76>
 8001fbc:	2304      	movs	r3, #4
 8001fbe:	9300      	str	r3, [sp, #0]
 8001fc0:	f44f 4378 	mov.w	r3, #63488	@ 0xf800
 8001fc4:	4a1e      	ldr	r2, [pc, #120]	@ (8002040 <lcd_confirm_hit_prompt+0xe8>)
 8001fc6:	2128      	movs	r1, #40	@ 0x28
 8001fc8:	2014      	movs	r0, #20
 8001fca:	f000 ffbf 	bl	8002f4c <ST7789_DrawString>
 8001fce:	69f8      	ldr	r0, [r7, #28]
 8001fd0:	f7ff fcda 	bl	8001988 <lcd_confirm_hit_prompt_draw>
 8001fd4:	4b15      	ldr	r3, [pc, #84]	@ (800202c <lcd_confirm_hit_prompt+0xd4>)
 8001fd6:	681b      	ldr	r3, [r3, #0]
 8001fd8:	2b00      	cmp	r3, #0
 8001fda:	d00b      	beq.n	8001ff4 <lcd_confirm_hit_prompt+0x9c>
 8001fdc:	4b13      	ldr	r3, [pc, #76]	@ (800202c <lcd_confirm_hit_prompt+0xd4>)
 8001fde:	2200      	movs	r2, #0
 8001fe0:	601a      	str	r2, [r3, #0]
 8001fe2:	69fb      	ldr	r3, [r7, #28]
 8001fe4:	2b00      	cmp	r3, #0
 8001fe6:	dd02      	ble.n	8001fee <lcd_confirm_hit_prompt+0x96>
 8001fe8:	69fb      	ldr	r3, [r7, #28]
 8001fea:	3b01      	subs	r3, #1
 8001fec:	61fb      	str	r3, [r7, #28]
 8001fee:	69f8      	ldr	r0, [r7, #28]
 8001ff0:	f7ff fcca 	bl	8001988 <lcd_confirm_hit_prompt_draw>
 8001ff4:	4b0e      	ldr	r3, [pc, #56]	@ (8002030 <lcd_confirm_hit_prompt+0xd8>)
 8001ff6:	681b      	ldr	r3, [r3, #0]
 8001ff8:	2b00      	cmp	r3, #0
 8001ffa:	d00b      	beq.n	8002014 <lcd_confirm_hit_prompt+0xbc>
 8001ffc:	4b0c      	ldr	r3, [pc, #48]	@ (8002030 <lcd_confirm_hit_prompt+0xd8>)
 8001ffe:	2200      	movs	r2, #0
 8002000:	601a      	str	r2, [r3, #0]
 8002002:	69fb      	ldr	r3, [r7, #28]
 8002004:	2b01      	cmp	r3, #1
 8002006:	dc02      	bgt.n	800200e <lcd_confirm_hit_prompt+0xb6>
 8002008:	69fb      	ldr	r3, [r7, #28]
 800200a:	3301      	adds	r3, #1
 800200c:	61fb      	str	r3, [r7, #28]
 800200e:	69f8      	ldr	r0, [r7, #28]
 8002010:	f7ff fcba 	bl	8001988 <lcd_confirm_hit_prompt_draw>
 8002014:	4b07      	ldr	r3, [pc, #28]	@ (8002034 <lcd_confirm_hit_prompt+0xdc>)
 8002016:	681b      	ldr	r3, [r3, #0]
 8002018:	2b00      	cmp	r3, #0
 800201a:	d0db      	beq.n	8001fd4 <lcd_confirm_hit_prompt+0x7c>
 800201c:	4b05      	ldr	r3, [pc, #20]	@ (8002034 <lcd_confirm_hit_prompt+0xdc>)
 800201e:	2200      	movs	r2, #0
 8002020:	601a      	str	r2, [r3, #0]
 8002022:	69fb      	ldr	r3, [r7, #28]
 8002024:	4618      	mov	r0, r3
 8002026:	3720      	adds	r7, #32
 8002028:	46bd      	mov	sp, r7
 800202a:	bd80      	pop	{r7, pc}
 800202c:	20001860 	.word	0x20001860
 8002030:	20001864 	.word	0x20001864
 8002034:	2000185c 	.word	0x2000185c
 8002038:	0800a550 	.word	0x0800a550
 800203c:	0800a3e4 	.word	0x0800a3e4
 8002040:	0800a560 	.word	0x0800a560

08002044 <lcd_roll_damage_prompt>:
 8002044:	b580      	push	{r7, lr}
 8002046:	b092      	sub	sp, #72	@ 0x48
 8002048:	af02      	add	r7, sp, #8
 800204a:	6078      	str	r0, [r7, #4]
 800204c:	6039      	str	r1, [r7, #0]
 800204e:	4b2e      	ldr	r3, [pc, #184]	@ (8002108 <lcd_roll_damage_prompt+0xc4>)
 8002050:	2200      	movs	r2, #0
 8002052:	601a      	str	r2, [r3, #0]
 8002054:	f107 0308 	add.w	r3, r7, #8
 8002058:	683a      	ldr	r2, [r7, #0]
 800205a:	492c      	ldr	r1, [pc, #176]	@ (800210c <lcd_roll_damage_prompt+0xc8>)
 800205c:	4618      	mov	r0, r3
 800205e:	f007 f877 	bl	8009150 <siprintf>
 8002062:	687b      	ldr	r3, [r7, #4]
 8002064:	111b      	asrs	r3, r3, #4
 8002066:	63fb      	str	r3, [r7, #60]	@ 0x3c
 8002068:	f107 0328 	add.w	r3, r7, #40	@ 0x28
 800206c:	6bfa      	ldr	r2, [r7, #60]	@ 0x3c
 800206e:	4927      	ldr	r1, [pc, #156]	@ (800210c <lcd_roll_damage_prompt+0xc8>)
 8002070:	4618      	mov	r0, r3
 8002072:	f007 f86d 	bl	8009150 <siprintf>
 8002076:	687b      	ldr	r3, [r7, #4]
 8002078:	f003 030f 	and.w	r3, r3, #15
 800207c:	63bb      	str	r3, [r7, #56]	@ 0x38
 800207e:	f107 0318 	add.w	r3, r7, #24
 8002082:	6bba      	ldr	r2, [r7, #56]	@ 0x38
 8002084:	4921      	ldr	r1, [pc, #132]	@ (800210c <lcd_roll_damage_prompt+0xc8>)
 8002086:	4618      	mov	r0, r3
 8002088:	f007 f862 	bl	8009150 <siprintf>
 800208c:	f64f 70e0 	movw	r0, #65504	@ 0xffe0
 8002090:	f7fe fb74 	bl	800077c <ST7789_Fill>
 8002094:	2303      	movs	r3, #3
 8002096:	9300      	str	r3, [sp, #0]
 8002098:	f44f 4378 	mov.w	r3, #63488	@ 0xf800
 800209c:	4a1c      	ldr	r2, [pc, #112]	@ (8002110 <lcd_roll_damage_prompt+0xcc>)
 800209e:	2128      	movs	r1, #40	@ 0x28
 80020a0:	2014      	movs	r0, #20
 80020a2:	f000 ff53 	bl	8002f4c <ST7789_DrawString>
 80020a6:	2303      	movs	r3, #3
 80020a8:	9300      	str	r3, [sp, #0]
 80020aa:	f44f 4378 	mov.w	r3, #63488	@ 0xf800
 80020ae:	4a19      	ldr	r2, [pc, #100]	@ (8002114 <lcd_roll_damage_prompt+0xd0>)
 80020b0:	2150      	movs	r1, #80	@ 0x50
 80020b2:	2014      	movs	r0, #20
 80020b4:	f000 ff4a 	bl	8002f4c <ST7789_DrawString>
 80020b8:	f107 0208 	add.w	r2, r7, #8
 80020bc:	2303      	movs	r3, #3
 80020be:	9300      	str	r3, [sp, #0]
 80020c0:	f44f 4378 	mov.w	r3, #63488	@ 0xf800
 80020c4:	2150      	movs	r1, #80	@ 0x50
 80020c6:	208c      	movs	r0, #140	@ 0x8c
 80020c8:	f000 ff40 	bl	8002f4c <ST7789_DrawString>
 80020cc:	2303      	movs	r3, #3
 80020ce:	9300      	str	r3, [sp, #0]
 80020d0:	f44f 4378 	mov.w	r3, #63488	@ 0xf800
 80020d4:	4a0e      	ldr	r2, [pc, #56]	@ (8002110 <lcd_roll_damage_prompt+0xcc>)
 80020d6:	2178      	movs	r1, #120	@ 0x78
 80020d8:	2014      	movs	r0, #20
 80020da:	f000 ff37 	bl	8002f4c <ST7789_DrawString>
 80020de:	4b0a      	ldr	r3, [pc, #40]	@ (8002108 <lcd_roll_damage_prompt+0xc4>)
 80020e0:	681b      	ldr	r3, [r3, #0]
 80020e2:	2b00      	cmp	r3, #0
 80020e4:	d0fb      	beq.n	80020de <lcd_roll_damage_prompt+0x9a>
 80020e6:	4b08      	ldr	r3, [pc, #32]	@ (8002108 <lcd_roll_damage_prompt+0xc4>)
 80020e8:	2200      	movs	r2, #0
 80020ea:	601a      	str	r2, [r3, #0]
 80020ec:	2303      	movs	r3, #3
 80020ee:	9300      	str	r3, [sp, #0]
 80020f0:	f647 73ff 	movw	r3, #32767	@ 0x7fff
 80020f4:	4a06      	ldr	r2, [pc, #24]	@ (8002110 <lcd_roll_damage_prompt+0xcc>)
 80020f6:	2178      	movs	r1, #120	@ 0x78
 80020f8:	2014      	movs	r0, #20
 80020fa:	f000 ff27 	bl	8002f4c <ST7789_DrawString>
 80020fe:	2301      	movs	r3, #1
 8002100:	4618      	mov	r0, r3
 8002102:	3740      	adds	r7, #64	@ 0x40
 8002104:	46bd      	mov	sp, r7
 8002106:	bd80      	pop	{r7, pc}
 8002108:	2000185c 	.word	0x2000185c
 800210c:	0800a3e4 	.word	0x0800a3e4
 8002110:	0800a574 	.word	0x0800a574
 8002114:	0800a3d8 	.word	0x0800a3d8

08002118 <lcd_enemies_prompt>:
 8002118:	b580      	push	{r7, lr}
 800211a:	b08a      	sub	sp, #40	@ 0x28
 800211c:	af02      	add	r7, sp, #8
 800211e:	6078      	str	r0, [r7, #4]
 8002120:	2300      	movs	r3, #0
 8002122:	61fb      	str	r3, [r7, #28]
 8002124:	4b57      	ldr	r3, [pc, #348]	@ (8002284 <lcd_enemies_prompt+0x16c>)
 8002126:	2200      	movs	r2, #0
 8002128:	601a      	str	r2, [r3, #0]
 800212a:	f64f 70e0 	movw	r0, #65504	@ 0xffe0
 800212e:	f7fe fb25 	bl	800077c <ST7789_Fill>
 8002132:	2303      	movs	r3, #3
 8002134:	9300      	str	r3, [sp, #0]
 8002136:	f44f 4378 	mov.w	r3, #63488	@ 0xf800
 800213a:	4a53      	ldr	r2, [pc, #332]	@ (8002288 <lcd_enemies_prompt+0x170>)
 800213c:	2128      	movs	r1, #40	@ 0x28
 800213e:	2014      	movs	r0, #20
 8002140:	f000 ff04 	bl	8002f4c <ST7789_DrawString>
 8002144:	2304      	movs	r3, #4
 8002146:	9300      	str	r3, [sp, #0]
 8002148:	f44f 4378 	mov.w	r3, #63488	@ 0xf800
 800214c:	4a4f      	ldr	r2, [pc, #316]	@ (800228c <lcd_enemies_prompt+0x174>)
 800214e:	21c8      	movs	r1, #200	@ 0xc8
 8002150:	2014      	movs	r0, #20
 8002152:	f000 fefb 	bl	8002f4c <ST7789_DrawString>
 8002156:	4b4e      	ldr	r3, [pc, #312]	@ (8002290 <lcd_enemies_prompt+0x178>)
 8002158:	681b      	ldr	r3, [r3, #0]
 800215a:	2b00      	cmp	r3, #0
 800215c:	d039      	beq.n	80021d2 <lcd_enemies_prompt+0xba>
 800215e:	4b4c      	ldr	r3, [pc, #304]	@ (8002290 <lcd_enemies_prompt+0x178>)
 8002160:	2200      	movs	r2, #0
 8002162:	601a      	str	r2, [r3, #0]
 8002164:	69fb      	ldr	r3, [r7, #28]
 8002166:	3b01      	subs	r3, #1
 8002168:	61fb      	str	r3, [r7, #28]
 800216a:	69fb      	ldr	r3, [r7, #28]
 800216c:	2b00      	cmp	r3, #0
 800216e:	dc15      	bgt.n	800219c <lcd_enemies_prompt+0x84>
 8002170:	2300      	movs	r3, #0
 8002172:	61fb      	str	r3, [r7, #28]
 8002174:	f64f 73e0 	movw	r3, #65504	@ 0xffe0
 8002178:	9300      	str	r3, [sp, #0]
 800217a:	2328      	movs	r3, #40	@ 0x28
 800217c:	f44f 72a0 	mov.w	r2, #320	@ 0x140
 8002180:	2150      	movs	r1, #80	@ 0x50
 8002182:	2000      	movs	r0, #0
 8002184:	f7fe fb9e 	bl	80008c4 <ST7789_FillRect>
 8002188:	2304      	movs	r3, #4
 800218a:	9300      	str	r3, [sp, #0]
 800218c:	f44f 4378 	mov.w	r3, #63488	@ 0xf800
 8002190:	4a40      	ldr	r2, [pc, #256]	@ (8002294 <lcd_enemies_prompt+0x17c>)
 8002192:	2150      	movs	r1, #80	@ 0x50
 8002194:	2014      	movs	r0, #20
 8002196:	f000 fed9 	bl	8002f4c <ST7789_DrawString>
 800219a:	e01a      	b.n	80021d2 <lcd_enemies_prompt+0xba>
 800219c:	f107 030c 	add.w	r3, r7, #12
 80021a0:	69fa      	ldr	r2, [r7, #28]
 80021a2:	493d      	ldr	r1, [pc, #244]	@ (8002298 <lcd_enemies_prompt+0x180>)
 80021a4:	4618      	mov	r0, r3
 80021a6:	f006 ffd3 	bl	8009150 <siprintf>
 80021aa:	f64f 73e0 	movw	r3, #65504	@ 0xffe0
 80021ae:	9300      	str	r3, [sp, #0]
 80021b0:	2328      	movs	r3, #40	@ 0x28
 80021b2:	f44f 72a0 	mov.w	r2, #320	@ 0x140
 80021b6:	2150      	movs	r1, #80	@ 0x50
 80021b8:	2000      	movs	r0, #0
 80021ba:	f7fe fb83 	bl	80008c4 <ST7789_FillRect>
 80021be:	f107 020c 	add.w	r2, r7, #12
 80021c2:	2304      	movs	r3, #4
 80021c4:	9300      	str	r3, [sp, #0]
 80021c6:	f44f 4378 	mov.w	r3, #63488	@ 0xf800
 80021ca:	2150      	movs	r1, #80	@ 0x50
 80021cc:	2014      	movs	r0, #20
 80021ce:	f000 febd 	bl	8002f4c <ST7789_DrawString>
 80021d2:	4b32      	ldr	r3, [pc, #200]	@ (800229c <lcd_enemies_prompt+0x184>)
 80021d4:	681b      	ldr	r3, [r3, #0]
 80021d6:	2b00      	cmp	r3, #0
 80021d8:	d042      	beq.n	8002260 <lcd_enemies_prompt+0x148>
 80021da:	4b30      	ldr	r3, [pc, #192]	@ (800229c <lcd_enemies_prompt+0x184>)
 80021dc:	2200      	movs	r2, #0
 80021de:	601a      	str	r2, [r3, #0]
 80021e0:	69fb      	ldr	r3, [r7, #28]
 80021e2:	3301      	adds	r3, #1
 80021e4:	61fb      	str	r3, [r7, #28]
 80021e6:	69fa      	ldr	r2, [r7, #28]
 80021e8:	687b      	ldr	r3, [r7, #4]
 80021ea:	429a      	cmp	r2, r3
 80021ec:	db1d      	blt.n	800222a <lcd_enemies_prompt+0x112>
 80021ee:	687b      	ldr	r3, [r7, #4]
 80021f0:	61fb      	str	r3, [r7, #28]
 80021f2:	f107 030c 	add.w	r3, r7, #12
 80021f6:	69fa      	ldr	r2, [r7, #28]
 80021f8:	4927      	ldr	r1, [pc, #156]	@ (8002298 <lcd_enemies_prompt+0x180>)
 80021fa:	4618      	mov	r0, r3
 80021fc:	f006 ffa8 	bl	8009150 <siprintf>
 8002200:	f64f 73e0 	movw	r3, #65504	@ 0xffe0
 8002204:	9300      	str	r3, [sp, #0]
 8002206:	2328      	movs	r3, #40	@ 0x28
 8002208:	f44f 72a0 	mov.w	r2, #320	@ 0x140
 800220c:	2150      	movs	r1, #80	@ 0x50
 800220e:	2000      	movs	r0, #0
 8002210:	f7fe fb58 	bl	80008c4 <ST7789_FillRect>
 8002214:	f107 020c 	add.w	r2, r7, #12
 8002218:	2304      	movs	r3, #4
 800221a:	9300      	str	r3, [sp, #0]
 800221c:	f44f 4378 	mov.w	r3, #63488	@ 0xf800
 8002220:	2150      	movs	r1, #80	@ 0x50
 8002222:	2014      	movs	r0, #20
 8002224:	f000 fe92 	bl	8002f4c <ST7789_DrawString>
 8002228:	e01a      	b.n	8002260 <lcd_enemies_prompt+0x148>
 800222a:	f107 030c 	add.w	r3, r7, #12
 800222e:	69fa      	ldr	r2, [r7, #28]
 8002230:	4919      	ldr	r1, [pc, #100]	@ (8002298 <lcd_enemies_prompt+0x180>)
 8002232:	4618      	mov	r0, r3
 8002234:	f006 ff8c 	bl	8009150 <siprintf>
 8002238:	f64f 73e0 	movw	r3, #65504	@ 0xffe0
 800223c:	9300      	str	r3, [sp, #0]
 800223e:	2328      	movs	r3, #40	@ 0x28
 8002240:	f44f 72a0 	mov.w	r2, #320	@ 0x140
 8002244:	2150      	movs	r1, #80	@ 0x50
 8002246:	2000      	movs	r0, #0
 8002248:	f7fe fb3c 	bl	80008c4 <ST7789_FillRect>
 800224c:	f107 020c 	add.w	r2, r7, #12
 8002250:	2304      	movs	r3, #4
 8002252:	9300      	str	r3, [sp, #0]
 8002254:	f44f 4378 	mov.w	r3, #63488	@ 0xf800
 8002258:	2150      	movs	r1, #80	@ 0x50
 800225a:	2014      	movs	r0, #20
 800225c:	f000 fe76 	bl	8002f4c <ST7789_DrawString>
 8002260:	4b08      	ldr	r3, [pc, #32]	@ (8002284 <lcd_enemies_prompt+0x16c>)
 8002262:	681b      	ldr	r3, [r3, #0]
 8002264:	2b00      	cmp	r3, #0
 8002266:	f43f af76 	beq.w	8002156 <lcd_enemies_prompt+0x3e>
 800226a:	4b06      	ldr	r3, [pc, #24]	@ (8002284 <lcd_enemies_prompt+0x16c>)
 800226c:	2200      	movs	r2, #0
 800226e:	601a      	str	r2, [r3, #0]
 8002270:	f64f 70e0 	movw	r0, #65504	@ 0xffe0
 8002274:	f7fe fa82 	bl	800077c <ST7789_Fill>
 8002278:	69fb      	ldr	r3, [r7, #28]
 800227a:	4618      	mov	r0, r3
 800227c:	3720      	adds	r7, #32
 800227e:	46bd      	mov	sp, r7
 8002280:	bd80      	pop	{r7, pc}
 8002282:	bf00      	nop
 8002284:	2000185c 	.word	0x2000185c
 8002288:	0800a580 	.word	0x0800a580
 800228c:	0800a594 	.word	0x0800a594
 8002290:	20001860 	.word	0x20001860
 8002294:	0800a428 	.word	0x0800a428
 8002298:	0800a3e4 	.word	0x0800a3e4
 800229c:	20001864 	.word	0x20001864

080022a0 <lcd_actions_prompt>:
 80022a0:	b084      	sub	sp, #16
 80022a2:	b580      	push	{r7, lr}
 80022a4:	b086      	sub	sp, #24
 80022a6:	af02      	add	r7, sp, #8
 80022a8:	f107 0c18 	add.w	ip, r7, #24
 80022ac:	e88c 000f 	stmia.w	ip, {r0, r1, r2, r3}
 80022b0:	4b4b      	ldr	r3, [pc, #300]	@ (80023e0 <lcd_actions_prompt+0x140>)
 80022b2:	2200      	movs	r2, #0
 80022b4:	601a      	str	r2, [r3, #0]
 80022b6:	4b4b      	ldr	r3, [pc, #300]	@ (80023e4 <lcd_actions_prompt+0x144>)
 80022b8:	2200      	movs	r2, #0
 80022ba:	601a      	str	r2, [r3, #0]
 80022bc:	4b4a      	ldr	r3, [pc, #296]	@ (80023e8 <lcd_actions_prompt+0x148>)
 80022be:	2200      	movs	r2, #0
 80022c0:	601a      	str	r2, [r3, #0]
 80022c2:	4b4a      	ldr	r3, [pc, #296]	@ (80023ec <lcd_actions_prompt+0x14c>)
 80022c4:	2200      	movs	r2, #0
 80022c6:	601a      	str	r2, [r3, #0]
 80022c8:	4b49      	ldr	r3, [pc, #292]	@ (80023f0 <lcd_actions_prompt+0x150>)
 80022ca:	2200      	movs	r2, #0
 80022cc:	601a      	str	r2, [r3, #0]
 80022ce:	f64f 70e0 	movw	r0, #65504	@ 0xffe0
 80022d2:	f7fe fa53 	bl	800077c <ST7789_Fill>
 80022d6:	2302      	movs	r3, #2
 80022d8:	9300      	str	r3, [sp, #0]
 80022da:	f44f 4378 	mov.w	r3, #63488	@ 0xf800
 80022de:	f107 0218 	add.w	r2, r7, #24
 80022e2:	210a      	movs	r1, #10
 80022e4:	2014      	movs	r0, #20
 80022e6:	f000 fe31 	bl	8002f4c <ST7789_DrawString>
 80022ea:	463b      	mov	r3, r7
 80022ec:	f8d7 20ec 	ldr.w	r2, [r7, #236]	@ 0xec
 80022f0:	4940      	ldr	r1, [pc, #256]	@ (80023f4 <lcd_actions_prompt+0x154>)
 80022f2:	4618      	mov	r0, r3
 80022f4:	f006 ff2c 	bl	8009150 <siprintf>
 80022f8:	463a      	mov	r2, r7
 80022fa:	2304      	movs	r3, #4
 80022fc:	9300      	str	r3, [sp, #0]
 80022fe:	f44f 4378 	mov.w	r3, #63488	@ 0xf800
 8002302:	211e      	movs	r1, #30
 8002304:	2014      	movs	r0, #20
 8002306:	f000 fe21 	bl	8002f4c <ST7789_DrawString>
 800230a:	4b35      	ldr	r3, [pc, #212]	@ (80023e0 <lcd_actions_prompt+0x140>)
 800230c:	681b      	ldr	r3, [r3, #0]
 800230e:	2b00      	cmp	r3, #0
 8002310:	d029      	beq.n	8002366 <lcd_actions_prompt+0xc6>
 8002312:	4b33      	ldr	r3, [pc, #204]	@ (80023e0 <lcd_actions_prompt+0x140>)
 8002314:	2200      	movs	r2, #0
 8002316:	601a      	str	r2, [r3, #0]
 8002318:	4b34      	ldr	r3, [pc, #208]	@ (80023ec <lcd_actions_prompt+0x14c>)
 800231a:	681b      	ldr	r3, [r3, #0]
 800231c:	3301      	adds	r3, #1
 800231e:	4a33      	ldr	r2, [pc, #204]	@ (80023ec <lcd_actions_prompt+0x14c>)
 8002320:	6013      	str	r3, [r2, #0]
 8002322:	4b32      	ldr	r3, [pc, #200]	@ (80023ec <lcd_actions_prompt+0x14c>)
 8002324:	681b      	ldr	r3, [r3, #0]
 8002326:	2b0d      	cmp	r3, #13
 8002328:	dd02      	ble.n	8002330 <lcd_actions_prompt+0x90>
 800232a:	4b30      	ldr	r3, [pc, #192]	@ (80023ec <lcd_actions_prompt+0x14c>)
 800232c:	220d      	movs	r2, #13
 800232e:	601a      	str	r2, [r3, #0]
 8002330:	4b2e      	ldr	r3, [pc, #184]	@ (80023ec <lcd_actions_prompt+0x14c>)
 8002332:	681b      	ldr	r3, [r3, #0]
 8002334:	2b0c      	cmp	r3, #12
 8002336:	dc14      	bgt.n	8002362 <lcd_actions_prompt+0xc2>
 8002338:	4b2d      	ldr	r3, [pc, #180]	@ (80023f0 <lcd_actions_prompt+0x150>)
 800233a:	681a      	ldr	r2, [r3, #0]
 800233c:	4b2e      	ldr	r3, [pc, #184]	@ (80023f8 <lcd_actions_prompt+0x158>)
 800233e:	681b      	ldr	r3, [r3, #0]
 8002340:	441a      	add	r2, r3
 8002342:	4b2a      	ldr	r3, [pc, #168]	@ (80023ec <lcd_actions_prompt+0x14c>)
 8002344:	681b      	ldr	r3, [r3, #0]
 8002346:	429a      	cmp	r2, r3
 8002348:	dc08      	bgt.n	800235c <lcd_actions_prompt+0xbc>
 800234a:	4b29      	ldr	r3, [pc, #164]	@ (80023f0 <lcd_actions_prompt+0x150>)
 800234c:	681b      	ldr	r3, [r3, #0]
 800234e:	3301      	adds	r3, #1
 8002350:	4a27      	ldr	r2, [pc, #156]	@ (80023f0 <lcd_actions_prompt+0x150>)
 8002352:	6013      	str	r3, [r2, #0]
 8002354:	2001      	movs	r0, #1
 8002356:	f7fe fed9 	bl	800110c <scroll_actions_info>
 800235a:	e004      	b.n	8002366 <lcd_actions_prompt+0xc6>
 800235c:	f7fe fcc4 	bl	8000ce8 <action_menu>
 8002360:	e001      	b.n	8002366 <lcd_actions_prompt+0xc6>
 8002362:	f7fe fcc1 	bl	8000ce8 <action_menu>
 8002366:	4b1f      	ldr	r3, [pc, #124]	@ (80023e4 <lcd_actions_prompt+0x144>)
 8002368:	681b      	ldr	r3, [r3, #0]
 800236a:	2b00      	cmp	r3, #0
 800236c:	d028      	beq.n	80023c0 <lcd_actions_prompt+0x120>
 800236e:	4b1d      	ldr	r3, [pc, #116]	@ (80023e4 <lcd_actions_prompt+0x144>)
 8002370:	2200      	movs	r2, #0
 8002372:	601a      	str	r2, [r3, #0]
 8002374:	4b1d      	ldr	r3, [pc, #116]	@ (80023ec <lcd_actions_prompt+0x14c>)
 8002376:	681b      	ldr	r3, [r3, #0]
 8002378:	2b00      	cmp	r3, #0
 800237a:	dd05      	ble.n	8002388 <lcd_actions_prompt+0xe8>
 800237c:	4b1b      	ldr	r3, [pc, #108]	@ (80023ec <lcd_actions_prompt+0x14c>)
 800237e:	681b      	ldr	r3, [r3, #0]
 8002380:	3b01      	subs	r3, #1
 8002382:	4a1a      	ldr	r2, [pc, #104]	@ (80023ec <lcd_actions_prompt+0x14c>)
 8002384:	6013      	str	r3, [r2, #0]
 8002386:	e002      	b.n	800238e <lcd_actions_prompt+0xee>
 8002388:	4b18      	ldr	r3, [pc, #96]	@ (80023ec <lcd_actions_prompt+0x14c>)
 800238a:	2200      	movs	r2, #0
 800238c:	601a      	str	r2, [r3, #0]
 800238e:	4b17      	ldr	r3, [pc, #92]	@ (80023ec <lcd_actions_prompt+0x14c>)
 8002390:	681b      	ldr	r3, [r3, #0]
 8002392:	2b0c      	cmp	r3, #12
 8002394:	dc12      	bgt.n	80023bc <lcd_actions_prompt+0x11c>
 8002396:	4b15      	ldr	r3, [pc, #84]	@ (80023ec <lcd_actions_prompt+0x14c>)
 8002398:	681a      	ldr	r2, [r3, #0]
 800239a:	4b15      	ldr	r3, [pc, #84]	@ (80023f0 <lcd_actions_prompt+0x150>)
 800239c:	681b      	ldr	r3, [r3, #0]
 800239e:	429a      	cmp	r2, r3
 80023a0:	da09      	bge.n	80023b6 <lcd_actions_prompt+0x116>
 80023a2:	4b13      	ldr	r3, [pc, #76]	@ (80023f0 <lcd_actions_prompt+0x150>)
 80023a4:	681b      	ldr	r3, [r3, #0]
 80023a6:	3b01      	subs	r3, #1
 80023a8:	4a11      	ldr	r2, [pc, #68]	@ (80023f0 <lcd_actions_prompt+0x150>)
 80023aa:	6013      	str	r3, [r2, #0]
 80023ac:	f04f 30ff 	mov.w	r0, #4294967295
 80023b0:	f7fe feac 	bl	800110c <scroll_actions_info>
 80023b4:	e004      	b.n	80023c0 <lcd_actions_prompt+0x120>
 80023b6:	f7fe fc97 	bl	8000ce8 <action_menu>
 80023ba:	e001      	b.n	80023c0 <lcd_actions_prompt+0x120>
 80023bc:	f7fe fc94 	bl	8000ce8 <action_menu>
 80023c0:	4b09      	ldr	r3, [pc, #36]	@ (80023e8 <lcd_actions_prompt+0x148>)
 80023c2:	681b      	ldr	r3, [r3, #0]
 80023c4:	2b00      	cmp	r3, #0
 80023c6:	d0a0      	beq.n	800230a <lcd_actions_prompt+0x6a>
 80023c8:	4b07      	ldr	r3, [pc, #28]	@ (80023e8 <lcd_actions_prompt+0x148>)
 80023ca:	2200      	movs	r2, #0
 80023cc:	601a      	str	r2, [r3, #0]
 80023ce:	4b07      	ldr	r3, [pc, #28]	@ (80023ec <lcd_actions_prompt+0x14c>)
 80023d0:	681b      	ldr	r3, [r3, #0]
 80023d2:	4618      	mov	r0, r3
 80023d4:	3710      	adds	r7, #16
 80023d6:	46bd      	mov	sp, r7
 80023d8:	e8bd 4080 	ldmia.w	sp!, {r7, lr}
 80023dc:	b004      	add	sp, #16
 80023de:	4770      	bx	lr
 80023e0:	20001860 	.word	0x20001860
 80023e4:	20001864 	.word	0x20001864
 80023e8:	2000185c 	.word	0x2000185c
 80023ec:	20000610 	.word	0x20000610
 80023f0:	20000614 	.word	0x20000614
 80023f4:	0800a3e4 	.word	0x0800a3e4
 80023f8:	2000057c 	.word	0x2000057c

080023fc <lcd_list_characters_prompt>:
 80023fc:	b580      	push	{r7, lr}
 80023fe:	b08c      	sub	sp, #48	@ 0x30
 8002400:	af02      	add	r7, sp, #8
 8002402:	6078      	str	r0, [r7, #4]
 8002404:	6039      	str	r1, [r7, #0]
 8002406:	4b5f      	ldr	r3, [pc, #380]	@ (8002584 <lcd_list_characters_prompt+0x188>)
 8002408:	2200      	movs	r2, #0
 800240a:	601a      	str	r2, [r3, #0]
 800240c:	4b5e      	ldr	r3, [pc, #376]	@ (8002588 <lcd_list_characters_prompt+0x18c>)
 800240e:	2200      	movs	r2, #0
 8002410:	601a      	str	r2, [r3, #0]
 8002412:	4b5e      	ldr	r3, [pc, #376]	@ (800258c <lcd_list_characters_prompt+0x190>)
 8002414:	2200      	movs	r2, #0
 8002416:	601a      	str	r2, [r3, #0]
 8002418:	4b5d      	ldr	r3, [pc, #372]	@ (8002590 <lcd_list_characters_prompt+0x194>)
 800241a:	2200      	movs	r2, #0
 800241c:	601a      	str	r2, [r3, #0]
 800241e:	2350      	movs	r3, #80	@ 0x50
 8002420:	627b      	str	r3, [r7, #36]	@ 0x24
 8002422:	f64f 70e0 	movw	r0, #65504	@ 0xffe0
 8002426:	f7fe f9a9 	bl	800077c <ST7789_Fill>
 800242a:	2303      	movs	r3, #3
 800242c:	9300      	str	r3, [sp, #0]
 800242e:	f44f 4378 	mov.w	r3, #63488	@ 0xf800
 8002432:	4a58      	ldr	r2, [pc, #352]	@ (8002594 <lcd_list_characters_prompt+0x198>)
 8002434:	2114      	movs	r1, #20
 8002436:	200a      	movs	r0, #10
 8002438:	f000 fd88 	bl	8002f4c <ST7789_DrawString>
 800243c:	2300      	movs	r3, #0
 800243e:	623b      	str	r3, [r7, #32]
 8002440:	e033      	b.n	80024aa <lcd_list_characters_prompt+0xae>
 8002442:	6a3b      	ldr	r3, [r7, #32]
 8002444:	22d3      	movs	r2, #211	@ 0xd3
 8002446:	fb02 f303 	mul.w	r3, r2, r3
 800244a:	687a      	ldr	r2, [r7, #4]
 800244c:	4413      	add	r3, r2
 800244e:	781b      	ldrb	r3, [r3, #0]
 8002450:	2b00      	cmp	r3, #0
 8002452:	d026      	beq.n	80024a2 <lcd_list_characters_prompt+0xa6>
 8002454:	2300      	movs	r3, #0
 8002456:	61fb      	str	r3, [r7, #28]
 8002458:	e011      	b.n	800247e <lcd_list_characters_prompt+0x82>
 800245a:	6a3b      	ldr	r3, [r7, #32]
 800245c:	22d3      	movs	r2, #211	@ 0xd3
 800245e:	fb02 f303 	mul.w	r3, r2, r3
 8002462:	687a      	ldr	r2, [r7, #4]
 8002464:	441a      	add	r2, r3
 8002466:	69fb      	ldr	r3, [r7, #28]
 8002468:	4413      	add	r3, r2
 800246a:	7819      	ldrb	r1, [r3, #0]
 800246c:	f107 0208 	add.w	r2, r7, #8
 8002470:	69fb      	ldr	r3, [r7, #28]
 8002472:	4413      	add	r3, r2
 8002474:	460a      	mov	r2, r1
 8002476:	701a      	strb	r2, [r3, #0]
 8002478:	69fb      	ldr	r3, [r7, #28]
 800247a:	3301      	adds	r3, #1
 800247c:	61fb      	str	r3, [r7, #28]
 800247e:	69fb      	ldr	r3, [r7, #28]
 8002480:	2b13      	cmp	r3, #19
 8002482:	ddea      	ble.n	800245a <lcd_list_characters_prompt+0x5e>
 8002484:	6a7b      	ldr	r3, [r7, #36]	@ 0x24
 8002486:	b299      	uxth	r1, r3
 8002488:	f107 0208 	add.w	r2, r7, #8
 800248c:	2302      	movs	r3, #2
 800248e:	9300      	str	r3, [sp, #0]
 8002490:	f44f 4378 	mov.w	r3, #63488	@ 0xf800
 8002494:	200a      	movs	r0, #10
 8002496:	f000 fd59 	bl	8002f4c <ST7789_DrawString>
 800249a:	6a7b      	ldr	r3, [r7, #36]	@ 0x24
 800249c:	3328      	adds	r3, #40	@ 0x28
 800249e:	627b      	str	r3, [r7, #36]	@ 0x24
 80024a0:	e000      	b.n	80024a4 <lcd_list_characters_prompt+0xa8>
 80024a2:	bf00      	nop
 80024a4:	6a3b      	ldr	r3, [r7, #32]
 80024a6:	3301      	adds	r3, #1
 80024a8:	623b      	str	r3, [r7, #32]
 80024aa:	6a3b      	ldr	r3, [r7, #32]
 80024ac:	2b05      	cmp	r3, #5
 80024ae:	ddc8      	ble.n	8002442 <lcd_list_characters_prompt+0x46>
 80024b0:	4b34      	ldr	r3, [pc, #208]	@ (8002584 <lcd_list_characters_prompt+0x188>)
 80024b2:	681b      	ldr	r3, [r3, #0]
 80024b4:	2b05      	cmp	r3, #5
 80024b6:	dc31      	bgt.n	800251c <lcd_list_characters_prompt+0x120>
 80024b8:	e025      	b.n	8002506 <lcd_list_characters_prompt+0x10a>
 80024ba:	4b33      	ldr	r3, [pc, #204]	@ (8002588 <lcd_list_characters_prompt+0x18c>)
 80024bc:	681b      	ldr	r3, [r3, #0]
 80024be:	2b00      	cmp	r3, #0
 80024c0:	d007      	beq.n	80024d2 <lcd_list_characters_prompt+0xd6>
 80024c2:	4b32      	ldr	r3, [pc, #200]	@ (800258c <lcd_list_characters_prompt+0x190>)
 80024c4:	2200      	movs	r2, #0
 80024c6:	601a      	str	r2, [r3, #0]
 80024c8:	4b2e      	ldr	r3, [pc, #184]	@ (8002584 <lcd_list_characters_prompt+0x188>)
 80024ca:	681b      	ldr	r3, [r3, #0]
 80024cc:	3b01      	subs	r3, #1
 80024ce:	4a2d      	ldr	r2, [pc, #180]	@ (8002584 <lcd_list_characters_prompt+0x188>)
 80024d0:	6013      	str	r3, [r2, #0]
 80024d2:	4b2e      	ldr	r3, [pc, #184]	@ (800258c <lcd_list_characters_prompt+0x190>)
 80024d4:	681b      	ldr	r3, [r3, #0]
 80024d6:	2b00      	cmp	r3, #0
 80024d8:	d007      	beq.n	80024ea <lcd_list_characters_prompt+0xee>
 80024da:	4b2b      	ldr	r3, [pc, #172]	@ (8002588 <lcd_list_characters_prompt+0x18c>)
 80024dc:	2200      	movs	r2, #0
 80024de:	601a      	str	r2, [r3, #0]
 80024e0:	4b28      	ldr	r3, [pc, #160]	@ (8002584 <lcd_list_characters_prompt+0x188>)
 80024e2:	681b      	ldr	r3, [r3, #0]
 80024e4:	3301      	adds	r3, #1
 80024e6:	4a27      	ldr	r2, [pc, #156]	@ (8002584 <lcd_list_characters_prompt+0x188>)
 80024e8:	6013      	str	r3, [r2, #0]
 80024ea:	4b26      	ldr	r3, [pc, #152]	@ (8002584 <lcd_list_characters_prompt+0x188>)
 80024ec:	681b      	ldr	r3, [r3, #0]
 80024ee:	2b05      	cmp	r3, #5
 80024f0:	dd02      	ble.n	80024f8 <lcd_list_characters_prompt+0xfc>
 80024f2:	4b24      	ldr	r3, [pc, #144]	@ (8002584 <lcd_list_characters_prompt+0x188>)
 80024f4:	2200      	movs	r2, #0
 80024f6:	601a      	str	r2, [r3, #0]
 80024f8:	4b22      	ldr	r3, [pc, #136]	@ (8002584 <lcd_list_characters_prompt+0x188>)
 80024fa:	681b      	ldr	r3, [r3, #0]
 80024fc:	2b00      	cmp	r3, #0
 80024fe:	da02      	bge.n	8002506 <lcd_list_characters_prompt+0x10a>
 8002500:	4b20      	ldr	r3, [pc, #128]	@ (8002584 <lcd_list_characters_prompt+0x188>)
 8002502:	2205      	movs	r2, #5
 8002504:	601a      	str	r2, [r3, #0]
 8002506:	4b1f      	ldr	r3, [pc, #124]	@ (8002584 <lcd_list_characters_prompt+0x188>)
 8002508:	681b      	ldr	r3, [r3, #0]
 800250a:	461a      	mov	r2, r3
 800250c:	23d3      	movs	r3, #211	@ 0xd3
 800250e:	fb02 f303 	mul.w	r3, r2, r3
 8002512:	687a      	ldr	r2, [r7, #4]
 8002514:	4413      	add	r3, r2
 8002516:	781b      	ldrb	r3, [r3, #0]
 8002518:	2b00      	cmp	r3, #0
 800251a:	d0ce      	beq.n	80024ba <lcd_list_characters_prompt+0xbe>
 800251c:	4b19      	ldr	r3, [pc, #100]	@ (8002584 <lcd_list_characters_prompt+0x188>)
 800251e:	681b      	ldr	r3, [r3, #0]
 8002520:	2b00      	cmp	r3, #0
 8002522:	da02      	bge.n	800252a <lcd_list_characters_prompt+0x12e>
 8002524:	4b17      	ldr	r3, [pc, #92]	@ (8002584 <lcd_list_characters_prompt+0x188>)
 8002526:	2200      	movs	r2, #0
 8002528:	601a      	str	r2, [r3, #0]
 800252a:	4b16      	ldr	r3, [pc, #88]	@ (8002584 <lcd_list_characters_prompt+0x188>)
 800252c:	681b      	ldr	r3, [r3, #0]
 800252e:	2b06      	cmp	r3, #6
 8002530:	dd02      	ble.n	8002538 <lcd_list_characters_prompt+0x13c>
 8002532:	4b14      	ldr	r3, [pc, #80]	@ (8002584 <lcd_list_characters_prompt+0x188>)
 8002534:	2206      	movs	r2, #6
 8002536:	601a      	str	r2, [r3, #0]
 8002538:	4b13      	ldr	r3, [pc, #76]	@ (8002588 <lcd_list_characters_prompt+0x18c>)
 800253a:	681b      	ldr	r3, [r3, #0]
 800253c:	2b00      	cmp	r3, #0
 800253e:	d103      	bne.n	8002548 <lcd_list_characters_prompt+0x14c>
 8002540:	4b12      	ldr	r3, [pc, #72]	@ (800258c <lcd_list_characters_prompt+0x190>)
 8002542:	681b      	ldr	r3, [r3, #0]
 8002544:	2b00      	cmp	r3, #0
 8002546:	d008      	beq.n	800255a <lcd_list_characters_prompt+0x15e>
 8002548:	4b10      	ldr	r3, [pc, #64]	@ (800258c <lcd_list_characters_prompt+0x190>)
 800254a:	2200      	movs	r2, #0
 800254c:	601a      	str	r2, [r3, #0]
 800254e:	4b0e      	ldr	r3, [pc, #56]	@ (8002588 <lcd_list_characters_prompt+0x18c>)
 8002550:	2200      	movs	r2, #0
 8002552:	601a      	str	r2, [r3, #0]
 8002554:	6878      	ldr	r0, [r7, #4]
 8002556:	f7fe fcf3 	bl	8000f40 <character_check_menu>
 800255a:	4b0d      	ldr	r3, [pc, #52]	@ (8002590 <lcd_list_characters_prompt+0x194>)
 800255c:	681b      	ldr	r3, [r3, #0]
 800255e:	2b00      	cmp	r3, #0
 8002560:	d0a6      	beq.n	80024b0 <lcd_list_characters_prompt+0xb4>
 8002562:	4b0b      	ldr	r3, [pc, #44]	@ (8002590 <lcd_list_characters_prompt+0x194>)
 8002564:	2200      	movs	r2, #0
 8002566:	601a      	str	r2, [r3, #0]
 8002568:	4b06      	ldr	r3, [pc, #24]	@ (8002584 <lcd_list_characters_prompt+0x188>)
 800256a:	681b      	ldr	r3, [r3, #0]
 800256c:	2b06      	cmp	r3, #6
 800256e:	d101      	bne.n	8002574 <lcd_list_characters_prompt+0x178>
 8002570:	2300      	movs	r3, #0
 8002572:	e002      	b.n	800257a <lcd_list_characters_prompt+0x17e>
 8002574:	4b03      	ldr	r3, [pc, #12]	@ (8002584 <lcd_list_characters_prompt+0x188>)
 8002576:	681b      	ldr	r3, [r3, #0]
 8002578:	3301      	adds	r3, #1
 800257a:	4618      	mov	r0, r3
 800257c:	3728      	adds	r7, #40	@ 0x28
 800257e:	46bd      	mov	sp, r7
 8002580:	bd80      	pop	{r7, pc}
 8002582:	bf00      	nop
 8002584:	20001870 	.word	0x20001870
 8002588:	20001860 	.word	0x20001860
 800258c:	20001864 	.word	0x20001864
 8002590:	2000185c 	.word	0x2000185c
 8002594:	0800a3f8 	.word	0x0800a3f8

08002598 <lcd_list_abilities_prompt>:
 8002598:	b580      	push	{r7, lr}
 800259a:	b082      	sub	sp, #8
 800259c:	af02      	add	r7, sp, #8
 800259e:	4b41      	ldr	r3, [pc, #260]	@ (80026a4 <lcd_list_abilities_prompt+0x10c>)
 80025a0:	2200      	movs	r2, #0
 80025a2:	601a      	str	r2, [r3, #0]
 80025a4:	4b40      	ldr	r3, [pc, #256]	@ (80026a8 <lcd_list_abilities_prompt+0x110>)
 80025a6:	2200      	movs	r2, #0
 80025a8:	601a      	str	r2, [r3, #0]
 80025aa:	4b40      	ldr	r3, [pc, #256]	@ (80026ac <lcd_list_abilities_prompt+0x114>)
 80025ac:	2200      	movs	r2, #0
 80025ae:	601a      	str	r2, [r3, #0]
 80025b0:	4b3f      	ldr	r3, [pc, #252]	@ (80026b0 <lcd_list_abilities_prompt+0x118>)
 80025b2:	2200      	movs	r2, #0
 80025b4:	601a      	str	r2, [r3, #0]
 80025b6:	4b3f      	ldr	r3, [pc, #252]	@ (80026b4 <lcd_list_abilities_prompt+0x11c>)
 80025b8:	2200      	movs	r2, #0
 80025ba:	601a      	str	r2, [r3, #0]
 80025bc:	f64f 70e0 	movw	r0, #65504	@ 0xffe0
 80025c0:	f7fe f8dc 	bl	800077c <ST7789_Fill>
 80025c4:	2303      	movs	r3, #3
 80025c6:	9300      	str	r3, [sp, #0]
 80025c8:	f44f 4378 	mov.w	r3, #63488	@ 0xf800
 80025cc:	4a3a      	ldr	r2, [pc, #232]	@ (80026b8 <lcd_list_abilities_prompt+0x120>)
 80025ce:	2114      	movs	r1, #20
 80025d0:	200a      	movs	r0, #10
 80025d2:	f000 fcbb 	bl	8002f4c <ST7789_DrawString>
 80025d6:	4b33      	ldr	r3, [pc, #204]	@ (80026a4 <lcd_list_abilities_prompt+0x10c>)
 80025d8:	681b      	ldr	r3, [r3, #0]
 80025da:	2b00      	cmp	r3, #0
 80025dc:	d029      	beq.n	8002632 <lcd_list_abilities_prompt+0x9a>
 80025de:	4b31      	ldr	r3, [pc, #196]	@ (80026a4 <lcd_list_abilities_prompt+0x10c>)
 80025e0:	2200      	movs	r2, #0
 80025e2:	601a      	str	r2, [r3, #0]
 80025e4:	4b32      	ldr	r3, [pc, #200]	@ (80026b0 <lcd_list_abilities_prompt+0x118>)
 80025e6:	681b      	ldr	r3, [r3, #0]
 80025e8:	3301      	adds	r3, #1
 80025ea:	4a31      	ldr	r2, [pc, #196]	@ (80026b0 <lcd_list_abilities_prompt+0x118>)
 80025ec:	6013      	str	r3, [r2, #0]
 80025ee:	4b30      	ldr	r3, [pc, #192]	@ (80026b0 <lcd_list_abilities_prompt+0x118>)
 80025f0:	681b      	ldr	r3, [r3, #0]
 80025f2:	2b13      	cmp	r3, #19
 80025f4:	dd02      	ble.n	80025fc <lcd_list_abilities_prompt+0x64>
 80025f6:	4b2e      	ldr	r3, [pc, #184]	@ (80026b0 <lcd_list_abilities_prompt+0x118>)
 80025f8:	2213      	movs	r2, #19
 80025fa:	601a      	str	r2, [r3, #0]
 80025fc:	4b2c      	ldr	r3, [pc, #176]	@ (80026b0 <lcd_list_abilities_prompt+0x118>)
 80025fe:	681b      	ldr	r3, [r3, #0]
 8002600:	2b12      	cmp	r3, #18
 8002602:	dc14      	bgt.n	800262e <lcd_list_abilities_prompt+0x96>
 8002604:	4b2b      	ldr	r3, [pc, #172]	@ (80026b4 <lcd_list_abilities_prompt+0x11c>)
 8002606:	681a      	ldr	r2, [r3, #0]
 8002608:	4b2c      	ldr	r3, [pc, #176]	@ (80026bc <lcd_list_abilities_prompt+0x124>)
 800260a:	681b      	ldr	r3, [r3, #0]
 800260c:	441a      	add	r2, r3
 800260e:	4b28      	ldr	r3, [pc, #160]	@ (80026b0 <lcd_list_abilities_prompt+0x118>)
 8002610:	681b      	ldr	r3, [r3, #0]
 8002612:	429a      	cmp	r2, r3
 8002614:	dc08      	bgt.n	8002628 <lcd_list_abilities_prompt+0x90>
 8002616:	4b27      	ldr	r3, [pc, #156]	@ (80026b4 <lcd_list_abilities_prompt+0x11c>)
 8002618:	681b      	ldr	r3, [r3, #0]
 800261a:	3301      	adds	r3, #1
 800261c:	4a25      	ldr	r2, [pc, #148]	@ (80026b4 <lcd_list_abilities_prompt+0x11c>)
 800261e:	6013      	str	r3, [r2, #0]
 8002620:	2001      	movs	r0, #1
 8002622:	f7fe fdf5 	bl	8001210 <scroll_ability_info>
 8002626:	e004      	b.n	8002632 <lcd_list_abilities_prompt+0x9a>
 8002628:	f7fe fc42 	bl	8000eb0 <ability_check_menu>
 800262c:	e001      	b.n	8002632 <lcd_list_abilities_prompt+0x9a>
 800262e:	f7fe fc3f 	bl	8000eb0 <ability_check_menu>
 8002632:	4b1d      	ldr	r3, [pc, #116]	@ (80026a8 <lcd_list_abilities_prompt+0x110>)
 8002634:	681b      	ldr	r3, [r3, #0]
 8002636:	2b00      	cmp	r3, #0
 8002638:	d028      	beq.n	800268c <lcd_list_abilities_prompt+0xf4>
 800263a:	4b1b      	ldr	r3, [pc, #108]	@ (80026a8 <lcd_list_abilities_prompt+0x110>)
 800263c:	2200      	movs	r2, #0
 800263e:	601a      	str	r2, [r3, #0]
 8002640:	4b1b      	ldr	r3, [pc, #108]	@ (80026b0 <lcd_list_abilities_prompt+0x118>)
 8002642:	681b      	ldr	r3, [r3, #0]
 8002644:	2b00      	cmp	r3, #0
 8002646:	dd05      	ble.n	8002654 <lcd_list_abilities_prompt+0xbc>
 8002648:	4b19      	ldr	r3, [pc, #100]	@ (80026b0 <lcd_list_abilities_prompt+0x118>)
 800264a:	681b      	ldr	r3, [r3, #0]
 800264c:	3b01      	subs	r3, #1
 800264e:	4a18      	ldr	r2, [pc, #96]	@ (80026b0 <lcd_list_abilities_prompt+0x118>)
 8002650:	6013      	str	r3, [r2, #0]
 8002652:	e002      	b.n	800265a <lcd_list_abilities_prompt+0xc2>
 8002654:	4b16      	ldr	r3, [pc, #88]	@ (80026b0 <lcd_list_abilities_prompt+0x118>)
 8002656:	2200      	movs	r2, #0
 8002658:	601a      	str	r2, [r3, #0]
 800265a:	4b15      	ldr	r3, [pc, #84]	@ (80026b0 <lcd_list_abilities_prompt+0x118>)
 800265c:	681b      	ldr	r3, [r3, #0]
 800265e:	2b12      	cmp	r3, #18
 8002660:	dc12      	bgt.n	8002688 <lcd_list_abilities_prompt+0xf0>
 8002662:	4b13      	ldr	r3, [pc, #76]	@ (80026b0 <lcd_list_abilities_prompt+0x118>)
 8002664:	681a      	ldr	r2, [r3, #0]
 8002666:	4b13      	ldr	r3, [pc, #76]	@ (80026b4 <lcd_list_abilities_prompt+0x11c>)
 8002668:	681b      	ldr	r3, [r3, #0]
 800266a:	429a      	cmp	r2, r3
 800266c:	da09      	bge.n	8002682 <lcd_list_abilities_prompt+0xea>
 800266e:	4b11      	ldr	r3, [pc, #68]	@ (80026b4 <lcd_list_abilities_prompt+0x11c>)
 8002670:	681b      	ldr	r3, [r3, #0]
 8002672:	3b01      	subs	r3, #1
 8002674:	4a0f      	ldr	r2, [pc, #60]	@ (80026b4 <lcd_list_abilities_prompt+0x11c>)
 8002676:	6013      	str	r3, [r2, #0]
 8002678:	f04f 30ff 	mov.w	r0, #4294967295
 800267c:	f7fe fdc8 	bl	8001210 <scroll_ability_info>
 8002680:	e004      	b.n	800268c <lcd_list_abilities_prompt+0xf4>
 8002682:	f7fe fc15 	bl	8000eb0 <ability_check_menu>
 8002686:	e001      	b.n	800268c <lcd_list_abilities_prompt+0xf4>
 8002688:	f7fe fc12 	bl	8000eb0 <ability_check_menu>
 800268c:	4b07      	ldr	r3, [pc, #28]	@ (80026ac <lcd_list_abilities_prompt+0x114>)
 800268e:	681b      	ldr	r3, [r3, #0]
 8002690:	2b00      	cmp	r3, #0
 8002692:	d0a0      	beq.n	80025d6 <lcd_list_abilities_prompt+0x3e>
 8002694:	4b05      	ldr	r3, [pc, #20]	@ (80026ac <lcd_list_abilities_prompt+0x114>)
 8002696:	2200      	movs	r2, #0
 8002698:	601a      	str	r2, [r3, #0]
 800269a:	4b05      	ldr	r3, [pc, #20]	@ (80026b0 <lcd_list_abilities_prompt+0x118>)
 800269c:	681b      	ldr	r3, [r3, #0]
 800269e:	4618      	mov	r0, r3
 80026a0:	46bd      	mov	sp, r7
 80026a2:	bd80      	pop	{r7, pc}
 80026a4:	20001860 	.word	0x20001860
 80026a8:	20001864 	.word	0x20001864
 80026ac:	2000185c 	.word	0x2000185c
 80026b0:	20000610 	.word	0x20000610
 80026b4:	20000614 	.word	0x20000614
 80026b8:	0800a598 	.word	0x0800a598
 80026bc:	2000057c 	.word	0x2000057c

080026c0 <lcd_turn_order_prompt>:
 80026c0:	b580      	push	{r7, lr}
 80026c2:	b0ba      	sub	sp, #232	@ 0xe8
 80026c4:	af00      	add	r7, sp, #0
 80026c6:	6078      	str	r0, [r7, #4]
 80026c8:	6039      	str	r1, [r7, #0]
 80026ca:	4b96      	ldr	r3, [pc, #600]	@ (8002924 <lcd_turn_order_prompt+0x264>)
 80026cc:	2200      	movs	r2, #0
 80026ce:	601a      	str	r2, [r3, #0]
 80026d0:	4b95      	ldr	r3, [pc, #596]	@ (8002928 <lcd_turn_order_prompt+0x268>)
 80026d2:	2200      	movs	r2, #0
 80026d4:	601a      	str	r2, [r3, #0]
 80026d6:	4b95      	ldr	r3, [pc, #596]	@ (800292c <lcd_turn_order_prompt+0x26c>)
 80026d8:	2200      	movs	r2, #0
 80026da:	601a      	str	r2, [r3, #0]
 80026dc:	4b94      	ldr	r3, [pc, #592]	@ (8002930 <lcd_turn_order_prompt+0x270>)
 80026de:	2200      	movs	r2, #0
 80026e0:	601a      	str	r2, [r3, #0]
 80026e2:	4b94      	ldr	r3, [pc, #592]	@ (8002934 <lcd_turn_order_prompt+0x274>)
 80026e4:	2200      	movs	r2, #0
 80026e6:	601a      	str	r2, [r3, #0]
 80026e8:	2300      	movs	r3, #0
 80026ea:	f8c7 30e4 	str.w	r3, [r7, #228]	@ 0xe4
 80026ee:	2300      	movs	r3, #0
 80026f0:	f8c7 30e0 	str.w	r3, [r7, #224]	@ 0xe0
 80026f4:	2300      	movs	r3, #0
 80026f6:	f8c7 30dc 	str.w	r3, [r7, #220]	@ 0xdc
 80026fa:	e022      	b.n	8002742 <lcd_turn_order_prompt+0x82>
 80026fc:	f8d7 30dc 	ldr.w	r3, [r7, #220]	@ 0xdc
 8002700:	22d3      	movs	r2, #211	@ 0xd3
 8002702:	fb02 f303 	mul.w	r3, r2, r3
 8002706:	687a      	ldr	r2, [r7, #4]
 8002708:	4413      	add	r3, r2
 800270a:	781b      	ldrb	r3, [r3, #0]
 800270c:	2b1f      	cmp	r3, #31
 800270e:	d904      	bls.n	800271a <lcd_turn_order_prompt+0x5a>
 8002710:	f8d7 30e4 	ldr.w	r3, [r7, #228]	@ 0xe4
 8002714:	3301      	adds	r3, #1
 8002716:	f8c7 30e4 	str.w	r3, [r7, #228]	@ 0xe4
 800271a:	f8d7 30dc 	ldr.w	r3, [r7, #220]	@ 0xdc
 800271e:	22d3      	movs	r2, #211	@ 0xd3
 8002720:	fb02 f303 	mul.w	r3, r2, r3
 8002724:	687a      	ldr	r2, [r7, #4]
 8002726:	4413      	add	r3, r2
 8002728:	781b      	ldrb	r3, [r3, #0]
 800272a:	2b01      	cmp	r3, #1
 800272c:	d104      	bne.n	8002738 <lcd_turn_order_prompt+0x78>
 800272e:	f8d7 30e0 	ldr.w	r3, [r7, #224]	@ 0xe0
 8002732:	3301      	adds	r3, #1
 8002734:	f8c7 30e0 	str.w	r3, [r7, #224]	@ 0xe0
 8002738:	f8d7 30dc 	ldr.w	r3, [r7, #220]	@ 0xdc
 800273c:	3301      	adds	r3, #1
 800273e:	f8c7 30dc 	str.w	r3, [r7, #220]	@ 0xdc
 8002742:	f8d7 30dc 	ldr.w	r3, [r7, #220]	@ 0xdc
 8002746:	2b0f      	cmp	r3, #15
 8002748:	ddd8      	ble.n	80026fc <lcd_turn_order_prompt+0x3c>
 800274a:	f8d7 20e4 	ldr.w	r2, [r7, #228]	@ 0xe4
 800274e:	f8d7 30e0 	ldr.w	r3, [r7, #224]	@ 0xe0
 8002752:	4413      	add	r3, r2
 8002754:	4619      	mov	r1, r3
 8002756:	6878      	ldr	r0, [r7, #4]
 8002758:	f7fe f9ee 	bl	8000b38 <character_menu>
 800275c:	4b73      	ldr	r3, [pc, #460]	@ (800292c <lcd_turn_order_prompt+0x26c>)
 800275e:	681b      	ldr	r3, [r3, #0]
 8002760:	2b00      	cmp	r3, #0
 8002762:	d034      	beq.n	80027ce <lcd_turn_order_prompt+0x10e>
 8002764:	4b71      	ldr	r3, [pc, #452]	@ (800292c <lcd_turn_order_prompt+0x26c>)
 8002766:	2200      	movs	r2, #0
 8002768:	601a      	str	r2, [r3, #0]
 800276a:	f8d7 20e4 	ldr.w	r2, [r7, #228]	@ 0xe4
 800276e:	f8d7 30e0 	ldr.w	r3, [r7, #224]	@ 0xe0
 8002772:	441a      	add	r2, r3
 8002774:	4b6e      	ldr	r3, [pc, #440]	@ (8002930 <lcd_turn_order_prompt+0x270>)
 8002776:	681b      	ldr	r3, [r3, #0]
 8002778:	429a      	cmp	r2, r3
 800277a:	dd0e      	ble.n	800279a <lcd_turn_order_prompt+0xda>
 800277c:	4b6e      	ldr	r3, [pc, #440]	@ (8002938 <lcd_turn_order_prompt+0x278>)
 800277e:	681b      	ldr	r3, [r3, #0]
 8002780:	f1b3 3fff 	cmp.w	r3, #4294967295
 8002784:	d104      	bne.n	8002790 <lcd_turn_order_prompt+0xd0>
 8002786:	4b6a      	ldr	r3, [pc, #424]	@ (8002930 <lcd_turn_order_prompt+0x270>)
 8002788:	681b      	ldr	r3, [r3, #0]
 800278a:	4a6b      	ldr	r2, [pc, #428]	@ (8002938 <lcd_turn_order_prompt+0x278>)
 800278c:	6013      	str	r3, [r2, #0]
 800278e:	e015      	b.n	80027bc <lcd_turn_order_prompt+0xfc>
 8002790:	4b69      	ldr	r3, [pc, #420]	@ (8002938 <lcd_turn_order_prompt+0x278>)
 8002792:	f04f 32ff 	mov.w	r2, #4294967295
 8002796:	601a      	str	r2, [r3, #0]
 8002798:	e010      	b.n	80027bc <lcd_turn_order_prompt+0xfc>
 800279a:	4b67      	ldr	r3, [pc, #412]	@ (8002938 <lcd_turn_order_prompt+0x278>)
 800279c:	f04f 32ff 	mov.w	r2, #4294967295
 80027a0:	601a      	str	r2, [r3, #0]
 80027a2:	f8d7 20e4 	ldr.w	r2, [r7, #228]	@ 0xe4
 80027a6:	f8d7 30e0 	ldr.w	r3, [r7, #224]	@ 0xe0
 80027aa:	441a      	add	r2, r3
 80027ac:	4b60      	ldr	r3, [pc, #384]	@ (8002930 <lcd_turn_order_prompt+0x270>)
 80027ae:	681b      	ldr	r3, [r3, #0]
 80027b0:	429a      	cmp	r2, r3
 80027b2:	d101      	bne.n	80027b8 <lcd_turn_order_prompt+0xf8>
 80027b4:	2301      	movs	r3, #1
 80027b6:	e13c      	b.n	8002a32 <lcd_turn_order_prompt+0x372>
 80027b8:	2300      	movs	r3, #0
 80027ba:	e13a      	b.n	8002a32 <lcd_turn_order_prompt+0x372>
 80027bc:	f8d7 20e4 	ldr.w	r2, [r7, #228]	@ 0xe4
 80027c0:	f8d7 30e0 	ldr.w	r3, [r7, #224]	@ 0xe0
 80027c4:	4413      	add	r3, r2
 80027c6:	4619      	mov	r1, r3
 80027c8:	6878      	ldr	r0, [r7, #4]
 80027ca:	f7fe f9b5 	bl	8000b38 <character_menu>
 80027ce:	4b55      	ldr	r3, [pc, #340]	@ (8002924 <lcd_turn_order_prompt+0x264>)
 80027d0:	681b      	ldr	r3, [r3, #0]
 80027d2:	2b00      	cmp	r3, #0
 80027d4:	f000 8094 	beq.w	8002900 <lcd_turn_order_prompt+0x240>
 80027d8:	4b52      	ldr	r3, [pc, #328]	@ (8002924 <lcd_turn_order_prompt+0x264>)
 80027da:	2200      	movs	r2, #0
 80027dc:	601a      	str	r2, [r3, #0]
 80027de:	4b54      	ldr	r3, [pc, #336]	@ (8002930 <lcd_turn_order_prompt+0x270>)
 80027e0:	681b      	ldr	r3, [r3, #0]
 80027e2:	3301      	adds	r3, #1
 80027e4:	4a52      	ldr	r2, [pc, #328]	@ (8002930 <lcd_turn_order_prompt+0x270>)
 80027e6:	6013      	str	r3, [r2, #0]
 80027e8:	f8d7 20e4 	ldr.w	r2, [r7, #228]	@ 0xe4
 80027ec:	f8d7 30e0 	ldr.w	r3, [r7, #224]	@ 0xe0
 80027f0:	4413      	add	r3, r2
 80027f2:	1c5a      	adds	r2, r3, #1
 80027f4:	4b4e      	ldr	r3, [pc, #312]	@ (8002930 <lcd_turn_order_prompt+0x270>)
 80027f6:	681b      	ldr	r3, [r3, #0]
 80027f8:	429a      	cmp	r2, r3
 80027fa:	da07      	bge.n	800280c <lcd_turn_order_prompt+0x14c>
 80027fc:	f8d7 20e4 	ldr.w	r2, [r7, #228]	@ 0xe4
 8002800:	f8d7 30e0 	ldr.w	r3, [r7, #224]	@ 0xe0
 8002804:	4413      	add	r3, r2
 8002806:	3301      	adds	r3, #1
 8002808:	4a49      	ldr	r2, [pc, #292]	@ (8002930 <lcd_turn_order_prompt+0x270>)
 800280a:	6013      	str	r3, [r2, #0]
 800280c:	4b4a      	ldr	r3, [pc, #296]	@ (8002938 <lcd_turn_order_prompt+0x278>)
 800280e:	681b      	ldr	r3, [r3, #0]
 8002810:	f1b3 3fff 	cmp.w	r3, #4294967295
 8002814:	d040      	beq.n	8002898 <lcd_turn_order_prompt+0x1d8>
 8002816:	f8d7 20e4 	ldr.w	r2, [r7, #228]	@ 0xe4
 800281a:	f8d7 30e0 	ldr.w	r3, [r7, #224]	@ 0xe0
 800281e:	4413      	add	r3, r2
 8002820:	1e5a      	subs	r2, r3, #1
 8002822:	4b45      	ldr	r3, [pc, #276]	@ (8002938 <lcd_turn_order_prompt+0x278>)
 8002824:	681b      	ldr	r3, [r3, #0]
 8002826:	429a      	cmp	r2, r3
 8002828:	dd36      	ble.n	8002898 <lcd_turn_order_prompt+0x1d8>
 800282a:	4b43      	ldr	r3, [pc, #268]	@ (8002938 <lcd_turn_order_prompt+0x278>)
 800282c:	681b      	ldr	r3, [r3, #0]
 800282e:	461a      	mov	r2, r3
 8002830:	23d3      	movs	r3, #211	@ 0xd3
 8002832:	fb02 f303 	mul.w	r3, r2, r3
 8002836:	687a      	ldr	r2, [r7, #4]
 8002838:	441a      	add	r2, r3
 800283a:	f107 0308 	add.w	r3, r7, #8
 800283e:	4611      	mov	r1, r2
 8002840:	22d3      	movs	r2, #211	@ 0xd3
 8002842:	4618      	mov	r0, r3
 8002844:	f006 fe15 	bl	8009472 <memcpy>
 8002848:	4b3b      	ldr	r3, [pc, #236]	@ (8002938 <lcd_turn_order_prompt+0x278>)
 800284a:	681b      	ldr	r3, [r3, #0]
 800284c:	461a      	mov	r2, r3
 800284e:	23d3      	movs	r3, #211	@ 0xd3
 8002850:	fb02 f303 	mul.w	r3, r2, r3
 8002854:	687a      	ldr	r2, [r7, #4]
 8002856:	18d0      	adds	r0, r2, r3
 8002858:	4b37      	ldr	r3, [pc, #220]	@ (8002938 <lcd_turn_order_prompt+0x278>)
 800285a:	681b      	ldr	r3, [r3, #0]
 800285c:	3301      	adds	r3, #1
 800285e:	22d3      	movs	r2, #211	@ 0xd3
 8002860:	fb02 f303 	mul.w	r3, r2, r3
 8002864:	687a      	ldr	r2, [r7, #4]
 8002866:	4413      	add	r3, r2
 8002868:	22d3      	movs	r2, #211	@ 0xd3
 800286a:	4619      	mov	r1, r3
 800286c:	f006 fe01 	bl	8009472 <memcpy>
 8002870:	4b31      	ldr	r3, [pc, #196]	@ (8002938 <lcd_turn_order_prompt+0x278>)
 8002872:	681b      	ldr	r3, [r3, #0]
 8002874:	3301      	adds	r3, #1
 8002876:	22d3      	movs	r2, #211	@ 0xd3
 8002878:	fb02 f303 	mul.w	r3, r2, r3
 800287c:	687a      	ldr	r2, [r7, #4]
 800287e:	4413      	add	r3, r2
 8002880:	4618      	mov	r0, r3
 8002882:	f107 0308 	add.w	r3, r7, #8
 8002886:	22d3      	movs	r2, #211	@ 0xd3
 8002888:	4619      	mov	r1, r3
 800288a:	f006 fdf2 	bl	8009472 <memcpy>
 800288e:	4b2a      	ldr	r3, [pc, #168]	@ (8002938 <lcd_turn_order_prompt+0x278>)
 8002890:	681b      	ldr	r3, [r3, #0]
 8002892:	3301      	adds	r3, #1
 8002894:	4a28      	ldr	r2, [pc, #160]	@ (8002938 <lcd_turn_order_prompt+0x278>)
 8002896:	6013      	str	r3, [r2, #0]
 8002898:	f8d7 20e4 	ldr.w	r2, [r7, #228]	@ 0xe4
 800289c:	f8d7 30e0 	ldr.w	r3, [r7, #224]	@ 0xe0
 80028a0:	441a      	add	r2, r3
 80028a2:	4b23      	ldr	r3, [pc, #140]	@ (8002930 <lcd_turn_order_prompt+0x270>)
 80028a4:	681b      	ldr	r3, [r3, #0]
 80028a6:	429a      	cmp	r2, r3
 80028a8:	dd1c      	ble.n	80028e4 <lcd_turn_order_prompt+0x224>
 80028aa:	4b22      	ldr	r3, [pc, #136]	@ (8002934 <lcd_turn_order_prompt+0x274>)
 80028ac:	681a      	ldr	r2, [r3, #0]
 80028ae:	4b23      	ldr	r3, [pc, #140]	@ (800293c <lcd_turn_order_prompt+0x27c>)
 80028b0:	681b      	ldr	r3, [r3, #0]
 80028b2:	441a      	add	r2, r3
 80028b4:	4b1e      	ldr	r3, [pc, #120]	@ (8002930 <lcd_turn_order_prompt+0x270>)
 80028b6:	681b      	ldr	r3, [r3, #0]
 80028b8:	429a      	cmp	r2, r3
 80028ba:	dc09      	bgt.n	80028d0 <lcd_turn_order_prompt+0x210>
 80028bc:	4b1d      	ldr	r3, [pc, #116]	@ (8002934 <lcd_turn_order_prompt+0x274>)
 80028be:	681b      	ldr	r3, [r3, #0]
 80028c0:	3301      	adds	r3, #1
 80028c2:	4a1c      	ldr	r2, [pc, #112]	@ (8002934 <lcd_turn_order_prompt+0x274>)
 80028c4:	6013      	str	r3, [r2, #0]
 80028c6:	6839      	ldr	r1, [r7, #0]
 80028c8:	2001      	movs	r0, #1
 80028ca:	f7fe fb81 	bl	8000fd0 <scroll_character_info>
 80028ce:	e017      	b.n	8002900 <lcd_turn_order_prompt+0x240>
 80028d0:	f8d7 20e4 	ldr.w	r2, [r7, #228]	@ 0xe4
 80028d4:	f8d7 30e0 	ldr.w	r3, [r7, #224]	@ 0xe0
 80028d8:	4413      	add	r3, r2
 80028da:	4619      	mov	r1, r3
 80028dc:	6878      	ldr	r0, [r7, #4]
 80028de:	f7fe f92b 	bl	8000b38 <character_menu>
 80028e2:	e00d      	b.n	8002900 <lcd_turn_order_prompt+0x240>
 80028e4:	4b14      	ldr	r3, [pc, #80]	@ (8002938 <lcd_turn_order_prompt+0x278>)
 80028e6:	681b      	ldr	r3, [r3, #0]
 80028e8:	f1b3 3fff 	cmp.w	r3, #4294967295
 80028ec:	d108      	bne.n	8002900 <lcd_turn_order_prompt+0x240>
 80028ee:	f8d7 20e4 	ldr.w	r2, [r7, #228]	@ 0xe4
 80028f2:	f8d7 30e0 	ldr.w	r3, [r7, #224]	@ 0xe0
 80028f6:	4413      	add	r3, r2
 80028f8:	4619      	mov	r1, r3
 80028fa:	6878      	ldr	r0, [r7, #4]
 80028fc:	f7fe f91c 	bl	8000b38 <character_menu>
 8002900:	4b09      	ldr	r3, [pc, #36]	@ (8002928 <lcd_turn_order_prompt+0x268>)
 8002902:	681b      	ldr	r3, [r3, #0]
 8002904:	2b00      	cmp	r3, #0
 8002906:	f43f af29 	beq.w	800275c <lcd_turn_order_prompt+0x9c>
 800290a:	4b07      	ldr	r3, [pc, #28]	@ (8002928 <lcd_turn_order_prompt+0x268>)
 800290c:	2200      	movs	r2, #0
 800290e:	601a      	str	r2, [r3, #0]
 8002910:	4b07      	ldr	r3, [pc, #28]	@ (8002930 <lcd_turn_order_prompt+0x270>)
 8002912:	681b      	ldr	r3, [r3, #0]
 8002914:	2b00      	cmp	r3, #0
 8002916:	dd13      	ble.n	8002940 <lcd_turn_order_prompt+0x280>
 8002918:	4b05      	ldr	r3, [pc, #20]	@ (8002930 <lcd_turn_order_prompt+0x270>)
 800291a:	681b      	ldr	r3, [r3, #0]
 800291c:	3b01      	subs	r3, #1
 800291e:	4a04      	ldr	r2, [pc, #16]	@ (8002930 <lcd_turn_order_prompt+0x270>)
 8002920:	6013      	str	r3, [r2, #0]
 8002922:	e010      	b.n	8002946 <lcd_turn_order_prompt+0x286>
 8002924:	20001860 	.word	0x20001860
 8002928:	20001864 	.word	0x20001864
 800292c:	2000185c 	.word	0x2000185c
 8002930:	20000610 	.word	0x20000610
 8002934:	20000614 	.word	0x20000614
 8002938:	20000000 	.word	0x20000000
 800293c:	2000057c 	.word	0x2000057c
 8002940:	4b3e      	ldr	r3, [pc, #248]	@ (8002a3c <lcd_turn_order_prompt+0x37c>)
 8002942:	2200      	movs	r2, #0
 8002944:	601a      	str	r2, [r3, #0]
 8002946:	4b3e      	ldr	r3, [pc, #248]	@ (8002a40 <lcd_turn_order_prompt+0x380>)
 8002948:	681b      	ldr	r3, [r3, #0]
 800294a:	f1b3 3fff 	cmp.w	r3, #4294967295
 800294e:	d03c      	beq.n	80029ca <lcd_turn_order_prompt+0x30a>
 8002950:	4b3b      	ldr	r3, [pc, #236]	@ (8002a40 <lcd_turn_order_prompt+0x380>)
 8002952:	681b      	ldr	r3, [r3, #0]
 8002954:	2b00      	cmp	r3, #0
 8002956:	dd38      	ble.n	80029ca <lcd_turn_order_prompt+0x30a>
 8002958:	4b39      	ldr	r3, [pc, #228]	@ (8002a40 <lcd_turn_order_prompt+0x380>)
 800295a:	681b      	ldr	r3, [r3, #0]
 800295c:	461a      	mov	r2, r3
 800295e:	23d3      	movs	r3, #211	@ 0xd3
 8002960:	fb02 f303 	mul.w	r3, r2, r3
 8002964:	687a      	ldr	r2, [r7, #4]
 8002966:	441a      	add	r2, r3
 8002968:	f107 0308 	add.w	r3, r7, #8
 800296c:	4611      	mov	r1, r2
 800296e:	22d3      	movs	r2, #211	@ 0xd3
 8002970:	4618      	mov	r0, r3
 8002972:	f006 fd7e 	bl	8009472 <memcpy>
 8002976:	4b32      	ldr	r3, [pc, #200]	@ (8002a40 <lcd_turn_order_prompt+0x380>)
 8002978:	681b      	ldr	r3, [r3, #0]
 800297a:	461a      	mov	r2, r3
 800297c:	23d3      	movs	r3, #211	@ 0xd3
 800297e:	fb02 f303 	mul.w	r3, r2, r3
 8002982:	687a      	ldr	r2, [r7, #4]
 8002984:	18d0      	adds	r0, r2, r3
 8002986:	4b2e      	ldr	r3, [pc, #184]	@ (8002a40 <lcd_turn_order_prompt+0x380>)
 8002988:	681b      	ldr	r3, [r3, #0]
 800298a:	461a      	mov	r2, r3
 800298c:	23d3      	movs	r3, #211	@ 0xd3
 800298e:	fb02 f303 	mul.w	r3, r2, r3
 8002992:	3bd3      	subs	r3, #211	@ 0xd3
 8002994:	687a      	ldr	r2, [r7, #4]
 8002996:	4413      	add	r3, r2
 8002998:	22d3      	movs	r2, #211	@ 0xd3
 800299a:	4619      	mov	r1, r3
 800299c:	f006 fd69 	bl	8009472 <memcpy>
 80029a0:	4b27      	ldr	r3, [pc, #156]	@ (8002a40 <lcd_turn_order_prompt+0x380>)
 80029a2:	681b      	ldr	r3, [r3, #0]
 80029a4:	461a      	mov	r2, r3
 80029a6:	23d3      	movs	r3, #211	@ 0xd3
 80029a8:	fb02 f303 	mul.w	r3, r2, r3
 80029ac:	3bd3      	subs	r3, #211	@ 0xd3
 80029ae:	687a      	ldr	r2, [r7, #4]
 80029b0:	4413      	add	r3, r2
 80029b2:	4618      	mov	r0, r3
 80029b4:	f107 0308 	add.w	r3, r7, #8
 80029b8:	22d3      	movs	r2, #211	@ 0xd3
 80029ba:	4619      	mov	r1, r3
 80029bc:	f006 fd59 	bl	8009472 <memcpy>
 80029c0:	4b1f      	ldr	r3, [pc, #124]	@ (8002a40 <lcd_turn_order_prompt+0x380>)
 80029c2:	681b      	ldr	r3, [r3, #0]
 80029c4:	3b01      	subs	r3, #1
 80029c6:	4a1e      	ldr	r2, [pc, #120]	@ (8002a40 <lcd_turn_order_prompt+0x380>)
 80029c8:	6013      	str	r3, [r2, #0]
 80029ca:	f8d7 20e4 	ldr.w	r2, [r7, #228]	@ 0xe4
 80029ce:	f8d7 30e0 	ldr.w	r3, [r7, #224]	@ 0xe0
 80029d2:	441a      	add	r2, r3
 80029d4:	4b19      	ldr	r3, [pc, #100]	@ (8002a3c <lcd_turn_order_prompt+0x37c>)
 80029d6:	681b      	ldr	r3, [r3, #0]
 80029d8:	429a      	cmp	r2, r3
 80029da:	dd1a      	ble.n	8002a12 <lcd_turn_order_prompt+0x352>
 80029dc:	4b17      	ldr	r3, [pc, #92]	@ (8002a3c <lcd_turn_order_prompt+0x37c>)
 80029de:	681a      	ldr	r2, [r3, #0]
 80029e0:	4b18      	ldr	r3, [pc, #96]	@ (8002a44 <lcd_turn_order_prompt+0x384>)
 80029e2:	681b      	ldr	r3, [r3, #0]
 80029e4:	429a      	cmp	r2, r3
 80029e6:	da0a      	bge.n	80029fe <lcd_turn_order_prompt+0x33e>
 80029e8:	4b16      	ldr	r3, [pc, #88]	@ (8002a44 <lcd_turn_order_prompt+0x384>)
 80029ea:	681b      	ldr	r3, [r3, #0]
 80029ec:	3b01      	subs	r3, #1
 80029ee:	4a15      	ldr	r2, [pc, #84]	@ (8002a44 <lcd_turn_order_prompt+0x384>)
 80029f0:	6013      	str	r3, [r2, #0]
 80029f2:	6839      	ldr	r1, [r7, #0]
 80029f4:	f04f 30ff 	mov.w	r0, #4294967295
 80029f8:	f7fe faea 	bl	8000fd0 <scroll_character_info>
 80029fc:	e6ae      	b.n	800275c <lcd_turn_order_prompt+0x9c>
 80029fe:	f8d7 20e4 	ldr.w	r2, [r7, #228]	@ 0xe4
 8002a02:	f8d7 30e0 	ldr.w	r3, [r7, #224]	@ 0xe0
 8002a06:	4413      	add	r3, r2
 8002a08:	4619      	mov	r1, r3
 8002a0a:	6878      	ldr	r0, [r7, #4]
 8002a0c:	f7fe f894 	bl	8000b38 <character_menu>
 8002a10:	e6a4      	b.n	800275c <lcd_turn_order_prompt+0x9c>
 8002a12:	4b0b      	ldr	r3, [pc, #44]	@ (8002a40 <lcd_turn_order_prompt+0x380>)
 8002a14:	681b      	ldr	r3, [r3, #0]
 8002a16:	f1b3 3fff 	cmp.w	r3, #4294967295
 8002a1a:	f47f ae9f 	bne.w	800275c <lcd_turn_order_prompt+0x9c>
 8002a1e:	f8d7 20e4 	ldr.w	r2, [r7, #228]	@ 0xe4
 8002a22:	f8d7 30e0 	ldr.w	r3, [r7, #224]	@ 0xe0
 8002a26:	4413      	add	r3, r2
 8002a28:	4619      	mov	r1, r3
 8002a2a:	6878      	ldr	r0, [r7, #4]
 8002a2c:	f7fe f884 	bl	8000b38 <character_menu>
 8002a30:	e694      	b.n	800275c <lcd_turn_order_prompt+0x9c>
 8002a32:	4618      	mov	r0, r3
 8002a34:	37e8      	adds	r7, #232	@ 0xe8
 8002a36:	46bd      	mov	sp, r7
 8002a38:	bd80      	pop	{r7, pc}
 8002a3a:	bf00      	nop
 8002a3c:	20000610 	.word	0x20000610
 8002a40:	20000000 	.word	0x20000000
 8002a44:	20000614 	.word	0x20000614

08002a48 <ST7789_SetFullScreen>:
 8002a48:	b580      	push	{r7, lr}
 8002a4a:	af00      	add	r7, sp, #0
 8002a4c:	202a      	movs	r0, #42	@ 0x2a
 8002a4e:	f000 fb09 	bl	8003064 <writecommand>
 8002a52:	2000      	movs	r0, #0
 8002a54:	f000 fb19 	bl	800308a <writedata>
 8002a58:	2000      	movs	r0, #0
 8002a5a:	f000 fb16 	bl	800308a <writedata>
 8002a5e:	2000      	movs	r0, #0
 8002a60:	f000 fb13 	bl	800308a <writedata>
 8002a64:	202c      	movs	r0, #44	@ 0x2c
 8002a66:	f000 fb10 	bl	800308a <writedata>
 8002a6a:	202b      	movs	r0, #43	@ 0x2b
 8002a6c:	f000 fafa 	bl	8003064 <writecommand>
 8002a70:	2000      	movs	r0, #0
 8002a72:	f000 fb0a 	bl	800308a <writedata>
 8002a76:	2000      	movs	r0, #0
 8002a78:	f000 fb07 	bl	800308a <writedata>
 8002a7c:	2000      	movs	r0, #0
 8002a7e:	f000 fb04 	bl	800308a <writedata>
 8002a82:	2031      	movs	r0, #49	@ 0x31
 8002a84:	f000 fb01 	bl	800308a <writedata>
 8002a88:	202c      	movs	r0, #44	@ 0x2c
 8002a8a:	f000 faeb 	bl	8003064 <writecommand>
 8002a8e:	bf00      	nop
 8002a90:	bd80      	pop	{r7, pc}

08002a92 <ST7789_DrawFullScreen>:
 8002a92:	b580      	push	{r7, lr}
 8002a94:	b084      	sub	sp, #16
 8002a96:	af00      	add	r7, sp, #0
 8002a98:	6078      	str	r0, [r7, #4]
 8002a9a:	f7ff ffd5 	bl	8002a48 <ST7789_SetFullScreen>
 8002a9e:	f000 faab 	bl	8002ff8 <DC_DATA>
 8002aa2:	f000 fa81 	bl	8002fa8 <CS_LOW>
 8002aa6:	2300      	movs	r3, #0
 8002aa8:	60fb      	str	r3, [r7, #12]
 8002aaa:	e014      	b.n	8002ad6 <ST7789_DrawFullScreen+0x44>
 8002aac:	68fb      	ldr	r3, [r7, #12]
 8002aae:	005b      	lsls	r3, r3, #1
 8002ab0:	687a      	ldr	r2, [r7, #4]
 8002ab2:	4413      	add	r3, r2
 8002ab4:	881b      	ldrh	r3, [r3, #0]
 8002ab6:	817b      	strh	r3, [r7, #10]
 8002ab8:	897b      	ldrh	r3, [r7, #10]
 8002aba:	0a1b      	lsrs	r3, r3, #8
 8002abc:	b29b      	uxth	r3, r3
 8002abe:	b2db      	uxtb	r3, r3
 8002ac0:	4618      	mov	r0, r3
 8002ac2:	f000 faa5 	bl	8003010 <spi1_write>
 8002ac6:	897b      	ldrh	r3, [r7, #10]
 8002ac8:	b2db      	uxtb	r3, r3
 8002aca:	4618      	mov	r0, r3
 8002acc:	f000 faa0 	bl	8003010 <spi1_write>
 8002ad0:	68fb      	ldr	r3, [r7, #12]
 8002ad2:	3301      	adds	r3, #1
 8002ad4:	60fb      	str	r3, [r7, #12]
 8002ad6:	68fb      	ldr	r3, [r7, #12]
 8002ad8:	f640 02c9 	movw	r2, #2249	@ 0x8c9
 8002adc:	4293      	cmp	r3, r2
 8002ade:	d9e5      	bls.n	8002aac <ST7789_DrawFullScreen+0x1a>
 8002ae0:	f000 fa70 	bl	8002fc4 <CS_HIGH>
 8002ae4:	bf00      	nop
 8002ae6:	3710      	adds	r7, #16
 8002ae8:	46bd      	mov	sp, r7
 8002aea:	bd80      	pop	{r7, pc}

08002aec <ST7789_DrawPixel>:
 8002aec:	b580      	push	{r7, lr}
 8002aee:	b082      	sub	sp, #8
 8002af0:	af00      	add	r7, sp, #0
 8002af2:	4603      	mov	r3, r0
 8002af4:	80fb      	strh	r3, [r7, #6]
 8002af6:	460b      	mov	r3, r1
 8002af8:	80bb      	strh	r3, [r7, #4]
 8002afa:	4613      	mov	r3, r2
 8002afc:	807b      	strh	r3, [r7, #2]
 8002afe:	202a      	movs	r0, #42	@ 0x2a
 8002b00:	f000 fab0 	bl	8003064 <writecommand>
 8002b04:	88fb      	ldrh	r3, [r7, #6]
 8002b06:	0a1b      	lsrs	r3, r3, #8
 8002b08:	b29b      	uxth	r3, r3
 8002b0a:	b2db      	uxtb	r3, r3
 8002b0c:	4618      	mov	r0, r3
 8002b0e:	f000 fabc 	bl	800308a <writedata>
 8002b12:	88fb      	ldrh	r3, [r7, #6]
 8002b14:	b2db      	uxtb	r3, r3
 8002b16:	4618      	mov	r0, r3
 8002b18:	f000 fab7 	bl	800308a <writedata>
 8002b1c:	88fb      	ldrh	r3, [r7, #6]
 8002b1e:	0a1b      	lsrs	r3, r3, #8
 8002b20:	b29b      	uxth	r3, r3
 8002b22:	b2db      	uxtb	r3, r3
 8002b24:	4618      	mov	r0, r3
 8002b26:	f000 fab0 	bl	800308a <writedata>
 8002b2a:	88fb      	ldrh	r3, [r7, #6]
 8002b2c:	b2db      	uxtb	r3, r3
 8002b2e:	4618      	mov	r0, r3
 8002b30:	f000 faab 	bl	800308a <writedata>
 8002b34:	202b      	movs	r0, #43	@ 0x2b
 8002b36:	f000 fa95 	bl	8003064 <writecommand>
 8002b3a:	88bb      	ldrh	r3, [r7, #4]
 8002b3c:	0a1b      	lsrs	r3, r3, #8
 8002b3e:	b29b      	uxth	r3, r3
 8002b40:	b2db      	uxtb	r3, r3
 8002b42:	4618      	mov	r0, r3
 8002b44:	f000 faa1 	bl	800308a <writedata>
 8002b48:	88bb      	ldrh	r3, [r7, #4]
 8002b4a:	b2db      	uxtb	r3, r3
 8002b4c:	4618      	mov	r0, r3
 8002b4e:	f000 fa9c 	bl	800308a <writedata>
 8002b52:	88bb      	ldrh	r3, [r7, #4]
 8002b54:	0a1b      	lsrs	r3, r3, #8
 8002b56:	b29b      	uxth	r3, r3
 8002b58:	b2db      	uxtb	r3, r3
 8002b5a:	4618      	mov	r0, r3
 8002b5c:	f000 fa95 	bl	800308a <writedata>
 8002b60:	88bb      	ldrh	r3, [r7, #4]
 8002b62:	b2db      	uxtb	r3, r3
 8002b64:	4618      	mov	r0, r3
 8002b66:	f000 fa90 	bl	800308a <writedata>
 8002b6a:	202c      	movs	r0, #44	@ 0x2c
 8002b6c:	f000 fa7a 	bl	8003064 <writecommand>
 8002b70:	f000 fa42 	bl	8002ff8 <DC_DATA>
 8002b74:	f000 fa18 	bl	8002fa8 <CS_LOW>
 8002b78:	887b      	ldrh	r3, [r7, #2]
 8002b7a:	0a1b      	lsrs	r3, r3, #8
 8002b7c:	b29b      	uxth	r3, r3
 8002b7e:	b2db      	uxtb	r3, r3
 8002b80:	4618      	mov	r0, r3
 8002b82:	f000 fa45 	bl	8003010 <spi1_write>
 8002b86:	887b      	ldrh	r3, [r7, #2]
 8002b88:	b2db      	uxtb	r3, r3
 8002b8a:	4618      	mov	r0, r3
 8002b8c:	f000 fa40 	bl	8003010 <spi1_write>
 8002b90:	f000 fa18 	bl	8002fc4 <CS_HIGH>
 8002b94:	bf00      	nop
 8002b96:	3708      	adds	r7, #8
 8002b98:	46bd      	mov	sp, r7
 8002b9a:	bd80      	pop	{r7, pc}

08002b9c <gpio_init_ST7789>:
 8002b9c:	b480      	push	{r7}
 8002b9e:	af00      	add	r7, sp, #0
 8002ba0:	4b23      	ldr	r3, [pc, #140]	@ (8002c30 <gpio_init_ST7789+0x94>)
 8002ba2:	6b1b      	ldr	r3, [r3, #48]	@ 0x30
 8002ba4:	4a22      	ldr	r2, [pc, #136]	@ (8002c30 <gpio_init_ST7789+0x94>)
 8002ba6:	f043 0303 	orr.w	r3, r3, #3
 8002baa:	6313      	str	r3, [r2, #48]	@ 0x30
 8002bac:	4b21      	ldr	r3, [pc, #132]	@ (8002c34 <gpio_init_ST7789+0x98>)
 8002bae:	681b      	ldr	r3, [r3, #0]
 8002bb0:	4a20      	ldr	r2, [pc, #128]	@ (8002c34 <gpio_init_ST7789+0x98>)
 8002bb2:	f423 7340 	bic.w	r3, r3, #768	@ 0x300
 8002bb6:	6013      	str	r3, [r2, #0]
 8002bb8:	4b1e      	ldr	r3, [pc, #120]	@ (8002c34 <gpio_init_ST7789+0x98>)
 8002bba:	681b      	ldr	r3, [r3, #0]
 8002bbc:	4a1d      	ldr	r2, [pc, #116]	@ (8002c34 <gpio_init_ST7789+0x98>)
 8002bbe:	f443 7380 	orr.w	r3, r3, #256	@ 0x100
 8002bc2:	6013      	str	r3, [r2, #0]
 8002bc4:	4b1b      	ldr	r3, [pc, #108]	@ (8002c34 <gpio_init_ST7789+0x98>)
 8002bc6:	2210      	movs	r2, #16
 8002bc8:	619a      	str	r2, [r3, #24]
 8002bca:	4b1b      	ldr	r3, [pc, #108]	@ (8002c38 <gpio_init_ST7789+0x9c>)
 8002bcc:	681b      	ldr	r3, [r3, #0]
 8002bce:	4a1a      	ldr	r2, [pc, #104]	@ (8002c38 <gpio_init_ST7789+0x9c>)
 8002bd0:	f023 0303 	bic.w	r3, r3, #3
 8002bd4:	6013      	str	r3, [r2, #0]
 8002bd6:	4b18      	ldr	r3, [pc, #96]	@ (8002c38 <gpio_init_ST7789+0x9c>)
 8002bd8:	681b      	ldr	r3, [r3, #0]
 8002bda:	4a17      	ldr	r2, [pc, #92]	@ (8002c38 <gpio_init_ST7789+0x9c>)
 8002bdc:	f043 0301 	orr.w	r3, r3, #1
 8002be0:	6013      	str	r3, [r2, #0]
 8002be2:	4b15      	ldr	r3, [pc, #84]	@ (8002c38 <gpio_init_ST7789+0x9c>)
 8002be4:	2201      	movs	r2, #1
 8002be6:	619a      	str	r2, [r3, #24]
 8002be8:	4b13      	ldr	r3, [pc, #76]	@ (8002c38 <gpio_init_ST7789+0x9c>)
 8002bea:	681b      	ldr	r3, [r3, #0]
 8002bec:	4a12      	ldr	r2, [pc, #72]	@ (8002c38 <gpio_init_ST7789+0x9c>)
 8002bee:	f023 030c 	bic.w	r3, r3, #12
 8002bf2:	6013      	str	r3, [r2, #0]
 8002bf4:	4b10      	ldr	r3, [pc, #64]	@ (8002c38 <gpio_init_ST7789+0x9c>)
 8002bf6:	681b      	ldr	r3, [r3, #0]
 8002bf8:	4a0f      	ldr	r2, [pc, #60]	@ (8002c38 <gpio_init_ST7789+0x9c>)
 8002bfa:	f043 0304 	orr.w	r3, r3, #4
 8002bfe:	6013      	str	r3, [r2, #0]
 8002c00:	4b0d      	ldr	r3, [pc, #52]	@ (8002c38 <gpio_init_ST7789+0x9c>)
 8002c02:	2202      	movs	r2, #2
 8002c04:	619a      	str	r2, [r3, #24]
 8002c06:	4b0c      	ldr	r3, [pc, #48]	@ (8002c38 <gpio_init_ST7789+0x9c>)
 8002c08:	681b      	ldr	r3, [r3, #0]
 8002c0a:	4a0b      	ldr	r2, [pc, #44]	@ (8002c38 <gpio_init_ST7789+0x9c>)
 8002c0c:	f023 03c0 	bic.w	r3, r3, #192	@ 0xc0
 8002c10:	6013      	str	r3, [r2, #0]
 8002c12:	4b09      	ldr	r3, [pc, #36]	@ (8002c38 <gpio_init_ST7789+0x9c>)
 8002c14:	681b      	ldr	r3, [r3, #0]
 8002c16:	4a08      	ldr	r2, [pc, #32]	@ (8002c38 <gpio_init_ST7789+0x9c>)
 8002c18:	f043 0340 	orr.w	r3, r3, #64	@ 0x40
 8002c1c:	6013      	str	r3, [r2, #0]
 8002c1e:	4b06      	ldr	r3, [pc, #24]	@ (8002c38 <gpio_init_ST7789+0x9c>)
 8002c20:	2208      	movs	r2, #8
 8002c22:	619a      	str	r2, [r3, #24]
 8002c24:	bf00      	nop
 8002c26:	46bd      	mov	sp, r7
 8002c28:	f85d 7b04 	ldr.w	r7, [sp], #4
 8002c2c:	4770      	bx	lr
 8002c2e:	bf00      	nop
 8002c30:	40023800 	.word	0x40023800
 8002c34:	40020000 	.word	0x40020000
 8002c38:	40020400 	.word	0x40020400

08002c3c <ST7789_Init>:
 8002c3c:	b580      	push	{r7, lr}
 8002c3e:	af00      	add	r7, sp, #0
 8002c40:	f000 f8f0 	bl	8002e24 <ST7789_Reset>
 8002c44:	2001      	movs	r0, #1
 8002c46:	f000 fa0d 	bl	8003064 <writecommand>
 8002c4a:	2036      	movs	r0, #54	@ 0x36
 8002c4c:	f000 fa0a 	bl	8003064 <writecommand>
 8002c50:	2000      	movs	r0, #0
 8002c52:	f000 fa1a 	bl	800308a <writedata>
 8002c56:	20b0      	movs	r0, #176	@ 0xb0
 8002c58:	f000 fa04 	bl	8003064 <writecommand>
 8002c5c:	2000      	movs	r0, #0
 8002c5e:	f000 fa14 	bl	800308a <writedata>
 8002c62:	20e0      	movs	r0, #224	@ 0xe0
 8002c64:	f000 fa11 	bl	800308a <writedata>
 8002c68:	203a      	movs	r0, #58	@ 0x3a
 8002c6a:	f000 f9fb 	bl	8003064 <writecommand>
 8002c6e:	2055      	movs	r0, #85	@ 0x55
 8002c70:	f000 fa0b 	bl	800308a <writedata>
 8002c74:	200a      	movs	r0, #10
 8002c76:	f005 f82d 	bl	8007cd4 <delay_ms>
 8002c7a:	20b2      	movs	r0, #178	@ 0xb2
 8002c7c:	f000 f9f2 	bl	8003064 <writecommand>
 8002c80:	200c      	movs	r0, #12
 8002c82:	f000 fa02 	bl	800308a <writedata>
 8002c86:	200c      	movs	r0, #12
 8002c88:	f000 f9ff 	bl	800308a <writedata>
 8002c8c:	2000      	movs	r0, #0
 8002c8e:	f000 f9fc 	bl	800308a <writedata>
 8002c92:	2033      	movs	r0, #51	@ 0x33
 8002c94:	f000 f9f9 	bl	800308a <writedata>
 8002c98:	2033      	movs	r0, #51	@ 0x33
 8002c9a:	f000 f9f6 	bl	800308a <writedata>
 8002c9e:	20b7      	movs	r0, #183	@ 0xb7
 8002ca0:	f000 f9e0 	bl	8003064 <writecommand>
 8002ca4:	2035      	movs	r0, #53	@ 0x35
 8002ca6:	f000 f9f0 	bl	800308a <writedata>
 8002caa:	20bb      	movs	r0, #187	@ 0xbb
 8002cac:	f000 f9da 	bl	8003064 <writecommand>
 8002cb0:	2020      	movs	r0, #32
 8002cb2:	f000 f9ea 	bl	800308a <writedata>
 8002cb6:	20c0      	movs	r0, #192	@ 0xc0
 8002cb8:	f000 f9d4 	bl	8003064 <writecommand>
 8002cbc:	202c      	movs	r0, #44	@ 0x2c
 8002cbe:	f000 f9e4 	bl	800308a <writedata>
 8002cc2:	20c2      	movs	r0, #194	@ 0xc2
 8002cc4:	f000 f9ce 	bl	8003064 <writecommand>
 8002cc8:	2001      	movs	r0, #1
 8002cca:	f000 f9de 	bl	800308a <writedata>
 8002cce:	20c3      	movs	r0, #195	@ 0xc3
 8002cd0:	f000 f9c8 	bl	8003064 <writecommand>
 8002cd4:	200b      	movs	r0, #11
 8002cd6:	f000 f9d8 	bl	800308a <writedata>
 8002cda:	20c4      	movs	r0, #196	@ 0xc4
 8002cdc:	f000 f9c2 	bl	8003064 <writecommand>
 8002ce0:	2020      	movs	r0, #32
 8002ce2:	f000 f9d2 	bl	800308a <writedata>
 8002ce6:	20c6      	movs	r0, #198	@ 0xc6
 8002ce8:	f000 f9bc 	bl	8003064 <writecommand>
 8002cec:	200f      	movs	r0, #15
 8002cee:	f000 f9cc 	bl	800308a <writedata>
 8002cf2:	20d0      	movs	r0, #208	@ 0xd0
 8002cf4:	f000 f9b6 	bl	8003064 <writecommand>
 8002cf8:	20a4      	movs	r0, #164	@ 0xa4
 8002cfa:	f000 f9c6 	bl	800308a <writedata>
 8002cfe:	20a1      	movs	r0, #161	@ 0xa1
 8002d00:	f000 f9c3 	bl	800308a <writedata>
 8002d04:	20e0      	movs	r0, #224	@ 0xe0
 8002d06:	f000 f9ad 	bl	8003064 <writecommand>
 8002d0a:	20d0      	movs	r0, #208	@ 0xd0
 8002d0c:	f000 f9bd 	bl	800308a <writedata>
 8002d10:	2004      	movs	r0, #4
 8002d12:	f000 f9ba 	bl	800308a <writedata>
 8002d16:	200d      	movs	r0, #13
 8002d18:	f000 f9b7 	bl	800308a <writedata>
 8002d1c:	2011      	movs	r0, #17
 8002d1e:	f000 f9b4 	bl	800308a <writedata>
 8002d22:	2013      	movs	r0, #19
 8002d24:	f000 f9b1 	bl	800308a <writedata>
 8002d28:	202b      	movs	r0, #43	@ 0x2b
 8002d2a:	f000 f9ae 	bl	800308a <writedata>
 8002d2e:	203f      	movs	r0, #63	@ 0x3f
 8002d30:	f000 f9ab 	bl	800308a <writedata>
 8002d34:	2054      	movs	r0, #84	@ 0x54
 8002d36:	f000 f9a8 	bl	800308a <writedata>
 8002d3a:	204c      	movs	r0, #76	@ 0x4c
 8002d3c:	f000 f9a5 	bl	800308a <writedata>
 8002d40:	2018      	movs	r0, #24
 8002d42:	f000 f9a2 	bl	800308a <writedata>
 8002d46:	200d      	movs	r0, #13
 8002d48:	f000 f99f 	bl	800308a <writedata>
 8002d4c:	200b      	movs	r0, #11
 8002d4e:	f000 f99c 	bl	800308a <writedata>
 8002d52:	201f      	movs	r0, #31
 8002d54:	f000 f999 	bl	800308a <writedata>
 8002d58:	2023      	movs	r0, #35	@ 0x23
 8002d5a:	f000 f996 	bl	800308a <writedata>
 8002d5e:	20e1      	movs	r0, #225	@ 0xe1
 8002d60:	f000 f980 	bl	8003064 <writecommand>
 8002d64:	20d0      	movs	r0, #208	@ 0xd0
 8002d66:	f000 f990 	bl	800308a <writedata>
 8002d6a:	2004      	movs	r0, #4
 8002d6c:	f000 f98d 	bl	800308a <writedata>
 8002d70:	200c      	movs	r0, #12
 8002d72:	f000 f98a 	bl	800308a <writedata>
 8002d76:	2011      	movs	r0, #17
 8002d78:	f000 f987 	bl	800308a <writedata>
 8002d7c:	2013      	movs	r0, #19
 8002d7e:	f000 f984 	bl	800308a <writedata>
 8002d82:	202c      	movs	r0, #44	@ 0x2c
 8002d84:	f000 f981 	bl	800308a <writedata>
 8002d88:	203f      	movs	r0, #63	@ 0x3f
 8002d8a:	f000 f97e 	bl	800308a <writedata>
 8002d8e:	2044      	movs	r0, #68	@ 0x44
 8002d90:	f000 f97b 	bl	800308a <writedata>
 8002d94:	2051      	movs	r0, #81	@ 0x51
 8002d96:	f000 f978 	bl	800308a <writedata>
 8002d9a:	202f      	movs	r0, #47	@ 0x2f
 8002d9c:	f000 f975 	bl	800308a <writedata>
 8002da0:	201f      	movs	r0, #31
 8002da2:	f000 f972 	bl	800308a <writedata>
 8002da6:	201f      	movs	r0, #31
 8002da8:	f000 f96f 	bl	800308a <writedata>
 8002dac:	2020      	movs	r0, #32
 8002dae:	f000 f96c 	bl	800308a <writedata>
 8002db2:	2023      	movs	r0, #35	@ 0x23
 8002db4:	f000 f969 	bl	800308a <writedata>
 8002db8:	2021      	movs	r0, #33	@ 0x21
 8002dba:	f000 f953 	bl	8003064 <writecommand>
 8002dbe:	2011      	movs	r0, #17
 8002dc0:	f000 f950 	bl	8003064 <writecommand>
 8002dc4:	2096      	movs	r0, #150	@ 0x96
 8002dc6:	f004 ff85 	bl	8007cd4 <delay_ms>
 8002dca:	2013      	movs	r0, #19
 8002dcc:	f000 f94a 	bl	8003064 <writecommand>
 8002dd0:	2014      	movs	r0, #20
 8002dd2:	f004 ff7f 	bl	8007cd4 <delay_ms>
 8002dd6:	202a      	movs	r0, #42	@ 0x2a
 8002dd8:	f000 f944 	bl	8003064 <writecommand>
 8002ddc:	2000      	movs	r0, #0
 8002dde:	f000 f954 	bl	800308a <writedata>
 8002de2:	2000      	movs	r0, #0
 8002de4:	f000 f951 	bl	800308a <writedata>
 8002de8:	2000      	movs	r0, #0
 8002dea:	f000 f94e 	bl	800308a <writedata>
 8002dee:	20ef      	movs	r0, #239	@ 0xef
 8002df0:	f000 f94b 	bl	800308a <writedata>
 8002df4:	202b      	movs	r0, #43	@ 0x2b
 8002df6:	f000 f935 	bl	8003064 <writecommand>
 8002dfa:	2000      	movs	r0, #0
 8002dfc:	f000 f945 	bl	800308a <writedata>
 8002e00:	2000      	movs	r0, #0
 8002e02:	f000 f942 	bl	800308a <writedata>
 8002e06:	2001      	movs	r0, #1
 8002e08:	f000 f93f 	bl	800308a <writedata>
 8002e0c:	203f      	movs	r0, #63	@ 0x3f
 8002e0e:	f000 f93c 	bl	800308a <writedata>
 8002e12:	2029      	movs	r0, #41	@ 0x29
 8002e14:	f000 f926 	bl	8003064 <writecommand>
 8002e18:	2032      	movs	r0, #50	@ 0x32
 8002e1a:	f004 ff5b 	bl	8007cd4 <delay_ms>
 8002e1e:	bf00      	nop
 8002e20:	bd80      	pop	{r7, pc}
	...

08002e24 <ST7789_Reset>:
 8002e24:	b580      	push	{r7, lr}
 8002e26:	af00      	add	r7, sp, #0
 8002e28:	2019      	movs	r0, #25
 8002e2a:	f004 ff53 	bl	8007cd4 <delay_ms>
 8002e2e:	4b07      	ldr	r3, [pc, #28]	@ (8002e4c <ST7789_Reset+0x28>)
 8002e30:	f44f 3280 	mov.w	r2, #65536	@ 0x10000
 8002e34:	619a      	str	r2, [r3, #24]
 8002e36:	2032      	movs	r0, #50	@ 0x32
 8002e38:	f004 ff4c 	bl	8007cd4 <delay_ms>
 8002e3c:	4b03      	ldr	r3, [pc, #12]	@ (8002e4c <ST7789_Reset+0x28>)
 8002e3e:	2201      	movs	r2, #1
 8002e40:	619a      	str	r2, [r3, #24]
 8002e42:	2032      	movs	r0, #50	@ 0x32
 8002e44:	f004 ff46 	bl	8007cd4 <delay_ms>
 8002e48:	bf00      	nop
 8002e4a:	bd80      	pop	{r7, pc}
 8002e4c:	40020400 	.word	0x40020400

08002e50 <ST7789_DrawChar>:
 *
 * Modified the character draw based on input parameter size
 *
 */
void ST7789_DrawChar(uint16_t x, uint16_t y, char c, uint16_t color, uint8_t size)
{
 8002e50:	b590      	push	{r4, r7, lr}
 8002e52:	b089      	sub	sp, #36	@ 0x24
 8002e54:	af00      	add	r7, sp, #0
 8002e56:	4604      	mov	r4, r0
 8002e58:	4608      	mov	r0, r1
 8002e5a:	4611      	mov	r1, r2
 8002e5c:	461a      	mov	r2, r3
 8002e5e:	4623      	mov	r3, r4
 8002e60:	80fb      	strh	r3, [r7, #6]
 8002e62:	4603      	mov	r3, r0
 8002e64:	80bb      	strh	r3, [r7, #4]
 8002e66:	460b      	mov	r3, r1
 8002e68:	70fb      	strb	r3, [r7, #3]
 8002e6a:	4613      	mov	r3, r2
 8002e6c:	803b      	strh	r3, [r7, #0]
    if (c < 32 || c > 127) return;
 8002e6e:	78fb      	ldrb	r3, [r7, #3]
 8002e70:	2b1f      	cmp	r3, #31
 8002e72:	d964      	bls.n	8002f3e <ST7789_DrawChar+0xee>
 8002e74:	f997 3003 	ldrsb.w	r3, [r7, #3]
 8002e78:	2b00      	cmp	r3, #0
 8002e7a:	db60      	blt.n	8002f3e <ST7789_DrawChar+0xee>

    const uint8_t *bitmap = font5x7[c - 32];
 8002e7c:	78fb      	ldrb	r3, [r7, #3]
 8002e7e:	f1a3 0220 	sub.w	r2, r3, #32
 8002e82:	4613      	mov	r3, r2
 8002e84:	009b      	lsls	r3, r3, #2
 8002e86:	4413      	add	r3, r2
 8002e88:	4a2f      	ldr	r2, [pc, #188]	@ (8002f48 <ST7789_DrawChar+0xf8>)
 8002e8a:	4413      	add	r3, r2
 8002e8c:	60fb      	str	r3, [r7, #12]

    for (int col = 0; col < 5; col++)
 8002e8e:	2300      	movs	r3, #0
 8002e90:	61fb      	str	r3, [r7, #28]
 8002e92:	e050      	b.n	8002f36 <ST7789_DrawChar+0xe6>
    {
        uint8_t bits = bitmap[col];
 8002e94:	69fb      	ldr	r3, [r7, #28]
 8002e96:	68fa      	ldr	r2, [r7, #12]
 8002e98:	4413      	add	r3, r2
 8002e9a:	781b      	ldrb	r3, [r3, #0]
 8002e9c:	72fb      	strb	r3, [r7, #11]

        for (int row = 0; row < 7; row++)
 8002e9e:	2300      	movs	r3, #0
 8002ea0:	61bb      	str	r3, [r7, #24]
 8002ea2:	e042      	b.n	8002f2a <ST7789_DrawChar+0xda>
        {
            if (bits & (1 << row))
 8002ea4:	7afa      	ldrb	r2, [r7, #11]
 8002ea6:	69bb      	ldr	r3, [r7, #24]
 8002ea8:	fa42 f303 	asr.w	r3, r2, r3
 8002eac:	f003 0301 	and.w	r3, r3, #1
 8002eb0:	2b00      	cmp	r3, #0
 8002eb2:	d037      	beq.n	8002f24 <ST7789_DrawChar+0xd4>
            {
                // Draw a block size instead of 1 pixel
                for (int dx = 0; dx < size; dx++)
 8002eb4:	2300      	movs	r3, #0
 8002eb6:	617b      	str	r3, [r7, #20]
 8002eb8:	e02f      	b.n	8002f1a <ST7789_DrawChar+0xca>
                {
                    for (int dy = 0; dy < size; dy++)
 8002eba:	2300      	movs	r3, #0
 8002ebc:	613b      	str	r3, [r7, #16]
 8002ebe:	e024      	b.n	8002f0a <ST7789_DrawChar+0xba>
                    {
                        ST7789_DrawPixel(x + col * size + dx,
 8002ec0:	f897 3030 	ldrb.w	r3, [r7, #48]	@ 0x30
 8002ec4:	b29a      	uxth	r2, r3
 8002ec6:	69fb      	ldr	r3, [r7, #28]
 8002ec8:	b29b      	uxth	r3, r3
 8002eca:	fb12 f303 	smulbb	r3, r2, r3
 8002ece:	b29a      	uxth	r2, r3
 8002ed0:	88fb      	ldrh	r3, [r7, #6]
 8002ed2:	4413      	add	r3, r2
 8002ed4:	b29a      	uxth	r2, r3
 8002ed6:	697b      	ldr	r3, [r7, #20]
 8002ed8:	b29b      	uxth	r3, r3
 8002eda:	4413      	add	r3, r2
 8002edc:	b298      	uxth	r0, r3
                                         y + row * size + dy,
 8002ede:	f897 3030 	ldrb.w	r3, [r7, #48]	@ 0x30
 8002ee2:	b29a      	uxth	r2, r3
 8002ee4:	69bb      	ldr	r3, [r7, #24]
 8002ee6:	b29b      	uxth	r3, r3
 8002ee8:	fb12 f303 	smulbb	r3, r2, r3
 8002eec:	b29a      	uxth	r2, r3
 8002eee:	88bb      	ldrh	r3, [r7, #4]
 8002ef0:	4413      	add	r3, r2
 8002ef2:	b29a      	uxth	r2, r3
                        ST7789_DrawPixel(x + col * size + dx,
 8002ef4:	693b      	ldr	r3, [r7, #16]
 8002ef6:	b29b      	uxth	r3, r3
 8002ef8:	4413      	add	r3, r2
 8002efa:	b29b      	uxth	r3, r3
 8002efc:	883a      	ldrh	r2, [r7, #0]
 8002efe:	4619      	mov	r1, r3
 8002f00:	f7ff fdf4 	bl	8002aec <ST7789_DrawPixel>
                    for (int dy = 0; dy < size; dy++)
 8002f04:	693b      	ldr	r3, [r7, #16]
 8002f06:	3301      	adds	r3, #1
 8002f08:	613b      	str	r3, [r7, #16]
 8002f0a:	f897 3030 	ldrb.w	r3, [r7, #48]	@ 0x30
 8002f0e:	693a      	ldr	r2, [r7, #16]
 8002f10:	429a      	cmp	r2, r3
 8002f12:	dbd5      	blt.n	8002ec0 <ST7789_DrawChar+0x70>
                for (int dx = 0; dx < size; dx++)
 8002f14:	697b      	ldr	r3, [r7, #20]
 8002f16:	3301      	adds	r3, #1
 8002f18:	617b      	str	r3, [r7, #20]
 8002f1a:	f897 3030 	ldrb.w	r3, [r7, #48]	@ 0x30
 8002f1e:	697a      	ldr	r2, [r7, #20]
 8002f20:	429a      	cmp	r2, r3
 8002f22:	dbca      	blt.n	8002eba <ST7789_DrawChar+0x6a>
        for (int row = 0; row < 7; row++)
 8002f24:	69bb      	ldr	r3, [r7, #24]
 8002f26:	3301      	adds	r3, #1
 8002f28:	61bb      	str	r3, [r7, #24]
 8002f2a:	69bb      	ldr	r3, [r7, #24]
 8002f2c:	2b06      	cmp	r3, #6
 8002f2e:	ddb9      	ble.n	8002ea4 <ST7789_DrawChar+0x54>
    for (int col = 0; col < 5; col++)
 8002f30:	69fb      	ldr	r3, [r7, #28]
 8002f32:	3301      	adds	r3, #1
 8002f34:	61fb      	str	r3, [r7, #28]
 8002f36:	69fb      	ldr	r3, [r7, #28]
 8002f38:	2b04      	cmp	r3, #4
 8002f3a:	ddab      	ble.n	8002e94 <ST7789_DrawChar+0x44>
 8002f3c:	e000      	b.n	8002f40 <ST7789_DrawChar+0xf0>
    if (c < 32 || c > 127) return;
 8002f3e:	bf00      	nop
                    }
                }
            }
        }
    }
}
 8002f40:	3724      	adds	r7, #36	@ 0x24
 8002f42:	46bd      	mov	sp, r7
 8002f44:	bd90      	pop	{r4, r7, pc}
 8002f46:	bf00      	nop
 8002f48:	080433d4 	.word	0x080433d4

08002f4c <ST7789_DrawString>:
 *
 * Modified: Likhita Jonnakuti added space after pixel draw
 *
 */
void ST7789_DrawString(uint16_t x, uint16_t y, const char *s, uint16_t color, uint8_t size)
{
 8002f4c:	b590      	push	{r4, r7, lr}
 8002f4e:	b087      	sub	sp, #28
 8002f50:	af02      	add	r7, sp, #8
 8002f52:	60ba      	str	r2, [r7, #8]
 8002f54:	461a      	mov	r2, r3
 8002f56:	4603      	mov	r3, r0
 8002f58:	81fb      	strh	r3, [r7, #14]
 8002f5a:	460b      	mov	r3, r1
 8002f5c:	81bb      	strh	r3, [r7, #12]
 8002f5e:	4613      	mov	r3, r2
 8002f60:	80fb      	strh	r3, [r7, #6]
    while (*s)
 8002f62:	e018      	b.n	8002f96 <ST7789_DrawString+0x4a>
    {
        ST7789_DrawChar(x, y, *s, color, size);
 8002f64:	68bb      	ldr	r3, [r7, #8]
 8002f66:	781a      	ldrb	r2, [r3, #0]
 8002f68:	88fc      	ldrh	r4, [r7, #6]
 8002f6a:	89b9      	ldrh	r1, [r7, #12]
 8002f6c:	89f8      	ldrh	r0, [r7, #14]
 8002f6e:	f897 3020 	ldrb.w	r3, [r7, #32]
 8002f72:	9300      	str	r3, [sp, #0]
 8002f74:	4623      	mov	r3, r4
 8002f76:	f7ff ff6b 	bl	8002e50 <ST7789_DrawChar>
        x += (5 * size) + size;
 8002f7a:	f897 3020 	ldrb.w	r3, [r7, #32]
 8002f7e:	b29b      	uxth	r3, r3
 8002f80:	461a      	mov	r2, r3
 8002f82:	0052      	lsls	r2, r2, #1
 8002f84:	4413      	add	r3, r2
 8002f86:	005b      	lsls	r3, r3, #1
 8002f88:	b29a      	uxth	r2, r3
 8002f8a:	89fb      	ldrh	r3, [r7, #14]
 8002f8c:	4413      	add	r3, r2
 8002f8e:	81fb      	strh	r3, [r7, #14]
        s++;
 8002f90:	68bb      	ldr	r3, [r7, #8]
 8002f92:	3301      	adds	r3, #1
 8002f94:	60bb      	str	r3, [r7, #8]
    while (*s)
 8002f96:	68bb      	ldr	r3, [r7, #8]
 8002f98:	781b      	ldrb	r3, [r3, #0]
 8002f9a:	2b00      	cmp	r3, #0
 8002f9c:	d1e2      	bne.n	8002f64 <ST7789_DrawString+0x18>
    }
}
 8002f9e:	bf00      	nop
 8002fa0:	bf00      	nop
 8002fa2:	3714      	adds	r7, #20
 8002fa4:	46bd      	mov	sp, r7
 8002fa6:	bd90      	pop	{r4, r7, pc}

08002fa8 <CS_LOW>:
 8002fa8:	b480      	push	{r7}
 8002faa:	af00      	add	r7, sp, #0
 8002fac:	4b04      	ldr	r3, [pc, #16]	@ (8002fc0 <CS_LOW+0x18>)
 8002fae:	f44f 1280 	mov.w	r2, #1048576	@ 0x100000
 8002fb2:	619a      	str	r2, [r3, #24]
 8002fb4:	bf00      	nop
 8002fb6:	46bd      	mov	sp, r7
 8002fb8:	f85d 7b04 	ldr.w	r7, [sp], #4
 8002fbc:	4770      	bx	lr
 8002fbe:	bf00      	nop
 8002fc0:	40020000 	.word	0x40020000

08002fc4 <CS_HIGH>:
 8002fc4:	b480      	push	{r7}
 8002fc6:	af00      	add	r7, sp, #0
 8002fc8:	4b03      	ldr	r3, [pc, #12]	@ (8002fd8 <CS_HIGH+0x14>)
 8002fca:	2210      	movs	r2, #16
 8002fcc:	619a      	str	r2, [r3, #24]
 8002fce:	bf00      	nop
 8002fd0:	46bd      	mov	sp, r7
 8002fd2:	f85d 7b04 	ldr.w	r7, [sp], #4
 8002fd6:	4770      	bx	lr
 8002fd8:	40020000 	.word	0x40020000

08002fdc <DC_CMD>:
 8002fdc:	b480      	push	{r7}
 8002fde:	af00      	add	r7, sp, #0
 8002fe0:	4b04      	ldr	r3, [pc, #16]	@ (8002ff4 <DC_CMD+0x18>)
 8002fe2:	f44f 3200 	mov.w	r2, #131072	@ 0x20000
 8002fe6:	619a      	str	r2, [r3, #24]
 8002fe8:	bf00      	nop
 8002fea:	46bd      	mov	sp, r7
 8002fec:	f85d 7b04 	ldr.w	r7, [sp], #4
 8002ff0:	4770      	bx	lr
 8002ff2:	bf00      	nop
 8002ff4:	40020400 	.word	0x40020400

08002ff8 <DC_DATA>:
 8002ff8:	b480      	push	{r7}
 8002ffa:	af00      	add	r7, sp, #0
 8002ffc:	4b03      	ldr	r3, [pc, #12]	@ (800300c <DC_DATA+0x14>)
 8002ffe:	2202      	movs	r2, #2
 8003000:	619a      	str	r2, [r3, #24]
 8003002:	bf00      	nop
 8003004:	46bd      	mov	sp, r7
 8003006:	f85d 7b04 	ldr.w	r7, [sp], #4
 800300a:	4770      	bx	lr
 800300c:	40020400 	.word	0x40020400

08003010 <spi1_write>:
 8003010:	b480      	push	{r7}
 8003012:	b085      	sub	sp, #20
 8003014:	af00      	add	r7, sp, #0
 8003016:	4603      	mov	r3, r0
 8003018:	71fb      	strb	r3, [r7, #7]
 800301a:	bf00      	nop
 800301c:	4b10      	ldr	r3, [pc, #64]	@ (8003060 <spi1_write+0x50>)
 800301e:	689b      	ldr	r3, [r3, #8]
 8003020:	f003 0302 	and.w	r3, r3, #2
 8003024:	2b00      	cmp	r3, #0
 8003026:	d0f9      	beq.n	800301c <spi1_write+0xc>
 8003028:	4a0d      	ldr	r2, [pc, #52]	@ (8003060 <spi1_write+0x50>)
 800302a:	79fb      	ldrb	r3, [r7, #7]
 800302c:	60d3      	str	r3, [r2, #12]
 800302e:	bf00      	nop
 8003030:	4b0b      	ldr	r3, [pc, #44]	@ (8003060 <spi1_write+0x50>)
 8003032:	689b      	ldr	r3, [r3, #8]
 8003034:	f003 0301 	and.w	r3, r3, #1
 8003038:	2b00      	cmp	r3, #0
 800303a:	d0f9      	beq.n	8003030 <spi1_write+0x20>
 800303c:	4b08      	ldr	r3, [pc, #32]	@ (8003060 <spi1_write+0x50>)
 800303e:	68db      	ldr	r3, [r3, #12]
 8003040:	b2db      	uxtb	r3, r3
 8003042:	73fb      	strb	r3, [r7, #15]
 8003044:	bf00      	nop
 8003046:	4b06      	ldr	r3, [pc, #24]	@ (8003060 <spi1_write+0x50>)
 8003048:	689b      	ldr	r3, [r3, #8]
 800304a:	f003 0380 	and.w	r3, r3, #128	@ 0x80
 800304e:	2b00      	cmp	r3, #0
 8003050:	d1f9      	bne.n	8003046 <spi1_write+0x36>
 8003052:	bf00      	nop
 8003054:	bf00      	nop
 8003056:	3714      	adds	r7, #20
 8003058:	46bd      	mov	sp, r7
 800305a:	f85d 7b04 	ldr.w	r7, [sp], #4
 800305e:	4770      	bx	lr
 8003060:	40013000 	.word	0x40013000

08003064 <writecommand>:
 8003064:	b580      	push	{r7, lr}
 8003066:	b082      	sub	sp, #8
 8003068:	af00      	add	r7, sp, #0
 800306a:	4603      	mov	r3, r0
 800306c:	71fb      	strb	r3, [r7, #7]
 800306e:	f7ff ffb5 	bl	8002fdc <DC_CMD>
 8003072:	f7ff ff99 	bl	8002fa8 <CS_LOW>
 8003076:	79fb      	ldrb	r3, [r7, #7]
 8003078:	4618      	mov	r0, r3
 800307a:	f7ff ffc9 	bl	8003010 <spi1_write>
 800307e:	f7ff ffa1 	bl	8002fc4 <CS_HIGH>
 8003082:	bf00      	nop
 8003084:	3708      	adds	r7, #8
 8003086:	46bd      	mov	sp, r7
 8003088:	bd80      	pop	{r7, pc}

0800308a <writedata>:
 800308a:	b580      	push	{r7, lr}
 800308c:	b082      	sub	sp, #8
 800308e:	af00      	add	r7, sp, #0
 8003090:	4603      	mov	r3, r0
 8003092:	71fb      	strb	r3, [r7, #7]
 8003094:	f7ff ffb0 	bl	8002ff8 <DC_DATA>
 8003098:	f7ff ff86 	bl	8002fa8 <CS_LOW>
 800309c:	79fb      	ldrb	r3, [r7, #7]
 800309e:	4618      	mov	r0, r3
 80030a0:	f7ff ffb6 	bl	8003010 <spi1_write>
 80030a4:	f7ff ff8e 	bl	8002fc4 <CS_HIGH>
 80030a8:	bf00      	nop
 80030aa:	3708      	adds	r7, #8
 80030ac:	46bd      	mov	sp, r7
 80030ae:	bd80      	pop	{r7, pc}

080030b0 <LED_gpio_initialization>:
 80030b0:	b480      	push	{r7}
 80030b2:	af00      	add	r7, sp, #0
 80030b4:	4b35      	ldr	r3, [pc, #212]	@ (800318c <LED_gpio_initialization+0xdc>)
 80030b6:	6b1b      	ldr	r3, [r3, #48]	@ 0x30
 80030b8:	4a34      	ldr	r2, [pc, #208]	@ (800318c <LED_gpio_initialization+0xdc>)
 80030ba:	f043 0308 	orr.w	r3, r3, #8
 80030be:	6313      	str	r3, [r2, #48]	@ 0x30
 80030c0:	4b33      	ldr	r3, [pc, #204]	@ (8003190 <LED_gpio_initialization+0xe0>)
 80030c2:	681b      	ldr	r3, [r3, #0]
 80030c4:	4a32      	ldr	r2, [pc, #200]	@ (8003190 <LED_gpio_initialization+0xe0>)
 80030c6:	f023 7340 	bic.w	r3, r3, #50331648	@ 0x3000000
 80030ca:	6013      	str	r3, [r2, #0]
 80030cc:	4b30      	ldr	r3, [pc, #192]	@ (8003190 <LED_gpio_initialization+0xe0>)
 80030ce:	681b      	ldr	r3, [r3, #0]
 80030d0:	4a2f      	ldr	r2, [pc, #188]	@ (8003190 <LED_gpio_initialization+0xe0>)
 80030d2:	f043 7380 	orr.w	r3, r3, #16777216	@ 0x1000000
 80030d6:	6013      	str	r3, [r2, #0]
 80030d8:	4b2d      	ldr	r3, [pc, #180]	@ (8003190 <LED_gpio_initialization+0xe0>)
 80030da:	6a5b      	ldr	r3, [r3, #36]	@ 0x24
 80030dc:	4a2c      	ldr	r2, [pc, #176]	@ (8003190 <LED_gpio_initialization+0xe0>)
 80030de:	f423 2370 	bic.w	r3, r3, #983040	@ 0xf0000
 80030e2:	6253      	str	r3, [r2, #36]	@ 0x24
 80030e4:	4b2a      	ldr	r3, [pc, #168]	@ (8003190 <LED_gpio_initialization+0xe0>)
 80030e6:	681b      	ldr	r3, [r3, #0]
 80030e8:	4a29      	ldr	r2, [pc, #164]	@ (8003190 <LED_gpio_initialization+0xe0>)
 80030ea:	f023 6340 	bic.w	r3, r3, #201326592	@ 0xc000000
 80030ee:	6013      	str	r3, [r2, #0]
 80030f0:	4b27      	ldr	r3, [pc, #156]	@ (8003190 <LED_gpio_initialization+0xe0>)
 80030f2:	681b      	ldr	r3, [r3, #0]
 80030f4:	4a26      	ldr	r2, [pc, #152]	@ (8003190 <LED_gpio_initialization+0xe0>)
 80030f6:	f043 6380 	orr.w	r3, r3, #67108864	@ 0x4000000
 80030fa:	6013      	str	r3, [r2, #0]
 80030fc:	4b24      	ldr	r3, [pc, #144]	@ (8003190 <LED_gpio_initialization+0xe0>)
 80030fe:	6a5b      	ldr	r3, [r3, #36]	@ 0x24
 8003100:	4a23      	ldr	r2, [pc, #140]	@ (8003190 <LED_gpio_initialization+0xe0>)
 8003102:	f423 0370 	bic.w	r3, r3, #15728640	@ 0xf00000
 8003106:	6253      	str	r3, [r2, #36]	@ 0x24
 8003108:	4b21      	ldr	r3, [pc, #132]	@ (8003190 <LED_gpio_initialization+0xe0>)
 800310a:	681b      	ldr	r3, [r3, #0]
 800310c:	4a20      	ldr	r2, [pc, #128]	@ (8003190 <LED_gpio_initialization+0xe0>)
 800310e:	f023 5340 	bic.w	r3, r3, #805306368	@ 0x30000000
 8003112:	6013      	str	r3, [r2, #0]
 8003114:	4b1e      	ldr	r3, [pc, #120]	@ (8003190 <LED_gpio_initialization+0xe0>)
 8003116:	681b      	ldr	r3, [r3, #0]
 8003118:	4a1d      	ldr	r2, [pc, #116]	@ (8003190 <LED_gpio_initialization+0xe0>)
 800311a:	f043 5380 	orr.w	r3, r3, #268435456	@ 0x10000000
 800311e:	6013      	str	r3, [r2, #0]
 8003120:	4b1b      	ldr	r3, [pc, #108]	@ (8003190 <LED_gpio_initialization+0xe0>)
 8003122:	6a5b      	ldr	r3, [r3, #36]	@ 0x24
 8003124:	4a1a      	ldr	r2, [pc, #104]	@ (8003190 <LED_gpio_initialization+0xe0>)
 8003126:	f023 6370 	bic.w	r3, r3, #251658240	@ 0xf000000
 800312a:	6253      	str	r3, [r2, #36]	@ 0x24
 800312c:	4b18      	ldr	r3, [pc, #96]	@ (8003190 <LED_gpio_initialization+0xe0>)
 800312e:	681b      	ldr	r3, [r3, #0]
 8003130:	4a17      	ldr	r2, [pc, #92]	@ (8003190 <LED_gpio_initialization+0xe0>)
 8003132:	f023 4340 	bic.w	r3, r3, #3221225472	@ 0xc0000000
 8003136:	6013      	str	r3, [r2, #0]
 8003138:	4b15      	ldr	r3, [pc, #84]	@ (8003190 <LED_gpio_initialization+0xe0>)
 800313a:	681b      	ldr	r3, [r3, #0]
 800313c:	4a14      	ldr	r2, [pc, #80]	@ (8003190 <LED_gpio_initialization+0xe0>)
 800313e:	f043 4380 	orr.w	r3, r3, #1073741824	@ 0x40000000
 8003142:	6013      	str	r3, [r2, #0]
 8003144:	4b12      	ldr	r3, [pc, #72]	@ (8003190 <LED_gpio_initialization+0xe0>)
 8003146:	6a5b      	ldr	r3, [r3, #36]	@ 0x24
 8003148:	4a11      	ldr	r2, [pc, #68]	@ (8003190 <LED_gpio_initialization+0xe0>)
 800314a:	f023 4370 	bic.w	r3, r3, #4026531840	@ 0xf0000000
 800314e:	6253      	str	r3, [r2, #36]	@ 0x24
 8003150:	4b0f      	ldr	r3, [pc, #60]	@ (8003190 <LED_gpio_initialization+0xe0>)
 8003152:	699b      	ldr	r3, [r3, #24]
 8003154:	4a0e      	ldr	r2, [pc, #56]	@ (8003190 <LED_gpio_initialization+0xe0>)
 8003156:	f443 5300 	orr.w	r3, r3, #8192	@ 0x2000
 800315a:	6193      	str	r3, [r2, #24]
 800315c:	4b0c      	ldr	r3, [pc, #48]	@ (8003190 <LED_gpio_initialization+0xe0>)
 800315e:	699b      	ldr	r3, [r3, #24]
 8003160:	4a0b      	ldr	r2, [pc, #44]	@ (8003190 <LED_gpio_initialization+0xe0>)
 8003162:	f443 4380 	orr.w	r3, r3, #16384	@ 0x4000
 8003166:	6193      	str	r3, [r2, #24]
 8003168:	4b09      	ldr	r3, [pc, #36]	@ (8003190 <LED_gpio_initialization+0xe0>)
 800316a:	699b      	ldr	r3, [r3, #24]
 800316c:	4a08      	ldr	r2, [pc, #32]	@ (8003190 <LED_gpio_initialization+0xe0>)
 800316e:	f043 5380 	orr.w	r3, r3, #268435456	@ 0x10000000
 8003172:	6193      	str	r3, [r2, #24]
 8003174:	4b06      	ldr	r3, [pc, #24]	@ (8003190 <LED_gpio_initialization+0xe0>)
 8003176:	699b      	ldr	r3, [r3, #24]
 8003178:	4a05      	ldr	r2, [pc, #20]	@ (8003190 <LED_gpio_initialization+0xe0>)
 800317a:	f443 4300 	orr.w	r3, r3, #32768	@ 0x8000
 800317e:	6193      	str	r3, [r2, #24]
 8003180:	bf00      	nop
 8003182:	46bd      	mov	sp, r7
 8003184:	f85d 7b04 	ldr.w	r7, [sp], #4
 8003188:	4770      	bx	lr
 800318a:	bf00      	nop
 800318c:	40023800 	.word	0x40023800
 8003190:	40020c00 	.word	0x40020c00

08003194 <SPI1_GPIO_Init>:
 8003194:	b480      	push	{r7}
 8003196:	af00      	add	r7, sp, #0
 8003198:	4b1d      	ldr	r3, [pc, #116]	@ (8003210 <SPI1_GPIO_Init+0x7c>)
 800319a:	6b1b      	ldr	r3, [r3, #48]	@ 0x30
 800319c:	4a1c      	ldr	r2, [pc, #112]	@ (8003210 <SPI1_GPIO_Init+0x7c>)
 800319e:	f043 0301 	orr.w	r3, r3, #1
 80031a2:	6313      	str	r3, [r2, #48]	@ 0x30
 80031a4:	4b1b      	ldr	r3, [pc, #108]	@ (8003214 <SPI1_GPIO_Init+0x80>)
 80031a6:	681b      	ldr	r3, [r3, #0]
 80031a8:	4a1a      	ldr	r2, [pc, #104]	@ (8003214 <SPI1_GPIO_Init+0x80>)
 80031aa:	f423 6340 	bic.w	r3, r3, #3072	@ 0xc00
 80031ae:	6013      	str	r3, [r2, #0]
 80031b0:	4b18      	ldr	r3, [pc, #96]	@ (8003214 <SPI1_GPIO_Init+0x80>)
 80031b2:	681b      	ldr	r3, [r3, #0]
 80031b4:	4a17      	ldr	r2, [pc, #92]	@ (8003214 <SPI1_GPIO_Init+0x80>)
 80031b6:	f443 6300 	orr.w	r3, r3, #2048	@ 0x800
 80031ba:	6013      	str	r3, [r2, #0]
 80031bc:	4b15      	ldr	r3, [pc, #84]	@ (8003214 <SPI1_GPIO_Init+0x80>)
 80031be:	6a1b      	ldr	r3, [r3, #32]
 80031c0:	4a14      	ldr	r2, [pc, #80]	@ (8003214 <SPI1_GPIO_Init+0x80>)
 80031c2:	f423 0370 	bic.w	r3, r3, #15728640	@ 0xf00000
 80031c6:	6213      	str	r3, [r2, #32]
 80031c8:	4b12      	ldr	r3, [pc, #72]	@ (8003214 <SPI1_GPIO_Init+0x80>)
 80031ca:	6a1b      	ldr	r3, [r3, #32]
 80031cc:	4a11      	ldr	r2, [pc, #68]	@ (8003214 <SPI1_GPIO_Init+0x80>)
 80031ce:	f443 03a0 	orr.w	r3, r3, #5242880	@ 0x500000
 80031d2:	6213      	str	r3, [r2, #32]
 80031d4:	4b0f      	ldr	r3, [pc, #60]	@ (8003214 <SPI1_GPIO_Init+0x80>)
 80031d6:	681b      	ldr	r3, [r3, #0]
 80031d8:	4a0e      	ldr	r2, [pc, #56]	@ (8003214 <SPI1_GPIO_Init+0x80>)
 80031da:	f423 4340 	bic.w	r3, r3, #49152	@ 0xc000
 80031de:	6013      	str	r3, [r2, #0]
 80031e0:	4b0c      	ldr	r3, [pc, #48]	@ (8003214 <SPI1_GPIO_Init+0x80>)
 80031e2:	681b      	ldr	r3, [r3, #0]
 80031e4:	4a0b      	ldr	r2, [pc, #44]	@ (8003214 <SPI1_GPIO_Init+0x80>)
 80031e6:	f443 4300 	orr.w	r3, r3, #32768	@ 0x8000
 80031ea:	6013      	str	r3, [r2, #0]
 80031ec:	4b09      	ldr	r3, [pc, #36]	@ (8003214 <SPI1_GPIO_Init+0x80>)
 80031ee:	6a1b      	ldr	r3, [r3, #32]
 80031f0:	4a08      	ldr	r2, [pc, #32]	@ (8003214 <SPI1_GPIO_Init+0x80>)
 80031f2:	f023 4370 	bic.w	r3, r3, #4026531840	@ 0xf0000000
 80031f6:	6213      	str	r3, [r2, #32]
 80031f8:	4b06      	ldr	r3, [pc, #24]	@ (8003214 <SPI1_GPIO_Init+0x80>)
 80031fa:	6a1b      	ldr	r3, [r3, #32]
 80031fc:	4a05      	ldr	r2, [pc, #20]	@ (8003214 <SPI1_GPIO_Init+0x80>)
 80031fe:	f043 43a0 	orr.w	r3, r3, #1342177280	@ 0x50000000
 8003202:	6213      	str	r3, [r2, #32]
 8003204:	bf00      	nop
 8003206:	46bd      	mov	sp, r7
 8003208:	f85d 7b04 	ldr.w	r7, [sp], #4
 800320c:	4770      	bx	lr
 800320e:	bf00      	nop
 8003210:	40023800 	.word	0x40023800
 8003214:	40020000 	.word	0x40020000

08003218 <SPI1_Init>:
 8003218:	b480      	push	{r7}
 800321a:	af00      	add	r7, sp, #0
 800321c:	4b1d      	ldr	r3, [pc, #116]	@ (8003294 <SPI1_Init+0x7c>)
 800321e:	6c5b      	ldr	r3, [r3, #68]	@ 0x44
 8003220:	4a1c      	ldr	r2, [pc, #112]	@ (8003294 <SPI1_Init+0x7c>)
 8003222:	f443 5380 	orr.w	r3, r3, #4096	@ 0x1000
 8003226:	6453      	str	r3, [r2, #68]	@ 0x44
 8003228:	4b1b      	ldr	r3, [pc, #108]	@ (8003298 <SPI1_Init+0x80>)
 800322a:	2200      	movs	r2, #0
 800322c:	601a      	str	r2, [r3, #0]
 800322e:	4b1a      	ldr	r3, [pc, #104]	@ (8003298 <SPI1_Init+0x80>)
 8003230:	2200      	movs	r2, #0
 8003232:	605a      	str	r2, [r3, #4]
 8003234:	4b18      	ldr	r3, [pc, #96]	@ (8003298 <SPI1_Init+0x80>)
 8003236:	681b      	ldr	r3, [r3, #0]
 8003238:	4a17      	ldr	r2, [pc, #92]	@ (8003298 <SPI1_Init+0x80>)
 800323a:	f043 0304 	orr.w	r3, r3, #4
 800323e:	6013      	str	r3, [r2, #0]
 8003240:	4b15      	ldr	r3, [pc, #84]	@ (8003298 <SPI1_Init+0x80>)
 8003242:	681b      	ldr	r3, [r3, #0]
 8003244:	4a14      	ldr	r2, [pc, #80]	@ (8003298 <SPI1_Init+0x80>)
 8003246:	f443 7300 	orr.w	r3, r3, #512	@ 0x200
 800324a:	6013      	str	r3, [r2, #0]
 800324c:	4b12      	ldr	r3, [pc, #72]	@ (8003298 <SPI1_Init+0x80>)
 800324e:	681b      	ldr	r3, [r3, #0]
 8003250:	4a11      	ldr	r2, [pc, #68]	@ (8003298 <SPI1_Init+0x80>)
 8003252:	f443 7380 	orr.w	r3, r3, #256	@ 0x100
 8003256:	6013      	str	r3, [r2, #0]
 8003258:	4b0f      	ldr	r3, [pc, #60]	@ (8003298 <SPI1_Init+0x80>)
 800325a:	681b      	ldr	r3, [r3, #0]
 800325c:	4a0e      	ldr	r2, [pc, #56]	@ (8003298 <SPI1_Init+0x80>)
 800325e:	f043 0302 	orr.w	r3, r3, #2
 8003262:	6013      	str	r3, [r2, #0]
 8003264:	4b0c      	ldr	r3, [pc, #48]	@ (8003298 <SPI1_Init+0x80>)
 8003266:	681b      	ldr	r3, [r3, #0]
 8003268:	4a0b      	ldr	r2, [pc, #44]	@ (8003298 <SPI1_Init+0x80>)
 800326a:	f043 0301 	orr.w	r3, r3, #1
 800326e:	6013      	str	r3, [r2, #0]
 8003270:	4b09      	ldr	r3, [pc, #36]	@ (8003298 <SPI1_Init+0x80>)
 8003272:	681b      	ldr	r3, [r3, #0]
 8003274:	4a08      	ldr	r2, [pc, #32]	@ (8003298 <SPI1_Init+0x80>)
 8003276:	f043 0308 	orr.w	r3, r3, #8
 800327a:	6013      	str	r3, [r2, #0]
 800327c:	4b06      	ldr	r3, [pc, #24]	@ (8003298 <SPI1_Init+0x80>)
 800327e:	681b      	ldr	r3, [r3, #0]
 8003280:	4a05      	ldr	r2, [pc, #20]	@ (8003298 <SPI1_Init+0x80>)
 8003282:	f043 0340 	orr.w	r3, r3, #64	@ 0x40
 8003286:	6013      	str	r3, [r2, #0]
 8003288:	bf00      	nop
 800328a:	46bd      	mov	sp, r7
 800328c:	f85d 7b04 	ldr.w	r7, [sp], #4
 8003290:	4770      	bx	lr
 8003292:	bf00      	nop
 8003294:	40023800 	.word	0x40023800
 8003298:	40013000 	.word	0x40013000

0800329c <__NVIC_EnableIRQ>:
 800329c:	b480      	push	{r7}
 800329e:	b083      	sub	sp, #12
 80032a0:	af00      	add	r7, sp, #0
 80032a2:	4603      	mov	r3, r0
 80032a4:	71fb      	strb	r3, [r7, #7]
 80032a6:	f997 3007 	ldrsb.w	r3, [r7, #7]
 80032aa:	2b00      	cmp	r3, #0
 80032ac:	db0b      	blt.n	80032c6 <__NVIC_EnableIRQ+0x2a>
 80032ae:	79fb      	ldrb	r3, [r7, #7]
 80032b0:	f003 021f 	and.w	r2, r3, #31
 80032b4:	4907      	ldr	r1, [pc, #28]	@ (80032d4 <__NVIC_EnableIRQ+0x38>)
 80032b6:	f997 3007 	ldrsb.w	r3, [r7, #7]
 80032ba:	095b      	lsrs	r3, r3, #5
 80032bc:	2001      	movs	r0, #1
 80032be:	fa00 f202 	lsl.w	r2, r0, r2
 80032c2:	f841 2023 	str.w	r2, [r1, r3, lsl #2]
 80032c6:	bf00      	nop
 80032c8:	370c      	adds	r7, #12
 80032ca:	46bd      	mov	sp, r7
 80032cc:	f85d 7b04 	ldr.w	r7, [sp], #4
 80032d0:	4770      	bx	lr
 80032d2:	bf00      	nop
 80032d4:	e000e100 	.word	0xe000e100

080032d8 <exti0_initialization>:
 80032d8:	b580      	push	{r7, lr}
 80032da:	af00      	add	r7, sp, #0
 80032dc:	4b14      	ldr	r3, [pc, #80]	@ (8003330 <exti0_initialization+0x58>)
 80032de:	6c5b      	ldr	r3, [r3, #68]	@ 0x44
 80032e0:	4a13      	ldr	r2, [pc, #76]	@ (8003330 <exti0_initialization+0x58>)
 80032e2:	f443 4380 	orr.w	r3, r3, #16384	@ 0x4000
 80032e6:	6453      	str	r3, [r2, #68]	@ 0x44
 80032e8:	4b12      	ldr	r3, [pc, #72]	@ (8003334 <exti0_initialization+0x5c>)
 80032ea:	689b      	ldr	r3, [r3, #8]
 80032ec:	4a11      	ldr	r2, [pc, #68]	@ (8003334 <exti0_initialization+0x5c>)
 80032ee:	f023 030f 	bic.w	r3, r3, #15
 80032f2:	6093      	str	r3, [r2, #8]
 80032f4:	4b0f      	ldr	r3, [pc, #60]	@ (8003334 <exti0_initialization+0x5c>)
 80032f6:	689b      	ldr	r3, [r3, #8]
 80032f8:	4a0e      	ldr	r2, [pc, #56]	@ (8003334 <exti0_initialization+0x5c>)
 80032fa:	f043 0302 	orr.w	r3, r3, #2
 80032fe:	6093      	str	r3, [r2, #8]
 8003300:	4b0d      	ldr	r3, [pc, #52]	@ (8003338 <exti0_initialization+0x60>)
 8003302:	681b      	ldr	r3, [r3, #0]
 8003304:	4a0c      	ldr	r2, [pc, #48]	@ (8003338 <exti0_initialization+0x60>)
 8003306:	f043 0301 	orr.w	r3, r3, #1
 800330a:	6013      	str	r3, [r2, #0]
 800330c:	4b0a      	ldr	r3, [pc, #40]	@ (8003338 <exti0_initialization+0x60>)
 800330e:	689b      	ldr	r3, [r3, #8]
 8003310:	4a09      	ldr	r2, [pc, #36]	@ (8003338 <exti0_initialization+0x60>)
 8003312:	f043 0301 	orr.w	r3, r3, #1
 8003316:	6093      	str	r3, [r2, #8]
 8003318:	4b07      	ldr	r3, [pc, #28]	@ (8003338 <exti0_initialization+0x60>)
 800331a:	68db      	ldr	r3, [r3, #12]
 800331c:	4a06      	ldr	r2, [pc, #24]	@ (8003338 <exti0_initialization+0x60>)
 800331e:	f023 0301 	bic.w	r3, r3, #1
 8003322:	60d3      	str	r3, [r2, #12]
 8003324:	2006      	movs	r0, #6
 8003326:	f7ff ffb9 	bl	800329c <__NVIC_EnableIRQ>
 800332a:	bf00      	nop
 800332c:	bd80      	pop	{r7, pc}
 800332e:	bf00      	nop
 8003330:	40023800 	.word	0x40023800
 8003334:	40013800 	.word	0x40013800
 8003338:	40013c00 	.word	0x40013c00

0800333c <exti1_initialization>:
 800333c:	b580      	push	{r7, lr}
 800333e:	af00      	add	r7, sp, #0
 8003340:	4b11      	ldr	r3, [pc, #68]	@ (8003388 <exti1_initialization+0x4c>)
 8003342:	689b      	ldr	r3, [r3, #8]
 8003344:	4a10      	ldr	r2, [pc, #64]	@ (8003388 <exti1_initialization+0x4c>)
 8003346:	f023 03f0 	bic.w	r3, r3, #240	@ 0xf0
 800334a:	6093      	str	r3, [r2, #8]
 800334c:	4b0e      	ldr	r3, [pc, #56]	@ (8003388 <exti1_initialization+0x4c>)
 800334e:	689b      	ldr	r3, [r3, #8]
 8003350:	4a0d      	ldr	r2, [pc, #52]	@ (8003388 <exti1_initialization+0x4c>)
 8003352:	f043 0320 	orr.w	r3, r3, #32
 8003356:	6093      	str	r3, [r2, #8]
 8003358:	4b0c      	ldr	r3, [pc, #48]	@ (800338c <exti1_initialization+0x50>)
 800335a:	681b      	ldr	r3, [r3, #0]
 800335c:	4a0b      	ldr	r2, [pc, #44]	@ (800338c <exti1_initialization+0x50>)
 800335e:	f043 0302 	orr.w	r3, r3, #2
 8003362:	6013      	str	r3, [r2, #0]
 8003364:	4b09      	ldr	r3, [pc, #36]	@ (800338c <exti1_initialization+0x50>)
 8003366:	689b      	ldr	r3, [r3, #8]
 8003368:	4a08      	ldr	r2, [pc, #32]	@ (800338c <exti1_initialization+0x50>)
 800336a:	f043 0302 	orr.w	r3, r3, #2
 800336e:	6093      	str	r3, [r2, #8]
 8003370:	4b06      	ldr	r3, [pc, #24]	@ (800338c <exti1_initialization+0x50>)
 8003372:	68db      	ldr	r3, [r3, #12]
 8003374:	4a05      	ldr	r2, [pc, #20]	@ (800338c <exti1_initialization+0x50>)
 8003376:	f023 0302 	bic.w	r3, r3, #2
 800337a:	60d3      	str	r3, [r2, #12]
 800337c:	2007      	movs	r0, #7
 800337e:	f7ff ff8d 	bl	800329c <__NVIC_EnableIRQ>
 8003382:	bf00      	nop
 8003384:	bd80      	pop	{r7, pc}
 8003386:	bf00      	nop
 8003388:	40013800 	.word	0x40013800
 800338c:	40013c00 	.word	0x40013c00

08003390 <exti2_initialization>:
 8003390:	b580      	push	{r7, lr}
 8003392:	af00      	add	r7, sp, #0
 8003394:	4b11      	ldr	r3, [pc, #68]	@ (80033dc <exti2_initialization+0x4c>)
 8003396:	689b      	ldr	r3, [r3, #8]
 8003398:	4a10      	ldr	r2, [pc, #64]	@ (80033dc <exti2_initialization+0x4c>)
 800339a:	f423 6370 	bic.w	r3, r3, #3840	@ 0xf00
 800339e:	6093      	str	r3, [r2, #8]
 80033a0:	4b0e      	ldr	r3, [pc, #56]	@ (80033dc <exti2_initialization+0x4c>)
 80033a2:	689b      	ldr	r3, [r3, #8]
 80033a4:	4a0d      	ldr	r2, [pc, #52]	@ (80033dc <exti2_initialization+0x4c>)
 80033a6:	f443 7300 	orr.w	r3, r3, #512	@ 0x200
 80033aa:	6093      	str	r3, [r2, #8]
 80033ac:	4b0c      	ldr	r3, [pc, #48]	@ (80033e0 <exti2_initialization+0x50>)
 80033ae:	681b      	ldr	r3, [r3, #0]
 80033b0:	4a0b      	ldr	r2, [pc, #44]	@ (80033e0 <exti2_initialization+0x50>)
 80033b2:	f043 0304 	orr.w	r3, r3, #4
 80033b6:	6013      	str	r3, [r2, #0]
 80033b8:	4b09      	ldr	r3, [pc, #36]	@ (80033e0 <exti2_initialization+0x50>)
 80033ba:	689b      	ldr	r3, [r3, #8]
 80033bc:	4a08      	ldr	r2, [pc, #32]	@ (80033e0 <exti2_initialization+0x50>)
 80033be:	f043 0304 	orr.w	r3, r3, #4
 80033c2:	6093      	str	r3, [r2, #8]
 80033c4:	4b06      	ldr	r3, [pc, #24]	@ (80033e0 <exti2_initialization+0x50>)
 80033c6:	68db      	ldr	r3, [r3, #12]
 80033c8:	4a05      	ldr	r2, [pc, #20]	@ (80033e0 <exti2_initialization+0x50>)
 80033ca:	f023 0304 	bic.w	r3, r3, #4
 80033ce:	60d3      	str	r3, [r2, #12]
 80033d0:	2008      	movs	r0, #8
 80033d2:	f7ff ff63 	bl	800329c <__NVIC_EnableIRQ>
 80033d6:	bf00      	nop
 80033d8:	bd80      	pop	{r7, pc}
 80033da:	bf00      	nop
 80033dc:	40013800 	.word	0x40013800
 80033e0:	40013c00 	.word	0x40013c00

080033e4 <gpio_button_initialization>:
 80033e4:	b480      	push	{r7}
 80033e6:	af00      	add	r7, sp, #0
 80033e8:	4b17      	ldr	r3, [pc, #92]	@ (8003448 <gpio_button_initialization+0x64>)
 80033ea:	6b1b      	ldr	r3, [r3, #48]	@ 0x30
 80033ec:	4a16      	ldr	r2, [pc, #88]	@ (8003448 <gpio_button_initialization+0x64>)
 80033ee:	f043 0304 	orr.w	r3, r3, #4
 80033f2:	6313      	str	r3, [r2, #48]	@ 0x30
 80033f4:	4b15      	ldr	r3, [pc, #84]	@ (800344c <gpio_button_initialization+0x68>)
 80033f6:	681b      	ldr	r3, [r3, #0]
 80033f8:	4a14      	ldr	r2, [pc, #80]	@ (800344c <gpio_button_initialization+0x68>)
 80033fa:	f023 0303 	bic.w	r3, r3, #3
 80033fe:	6013      	str	r3, [r2, #0]
 8003400:	4b12      	ldr	r3, [pc, #72]	@ (800344c <gpio_button_initialization+0x68>)
 8003402:	68db      	ldr	r3, [r3, #12]
 8003404:	4a11      	ldr	r2, [pc, #68]	@ (800344c <gpio_button_initialization+0x68>)
 8003406:	f043 0301 	orr.w	r3, r3, #1
 800340a:	60d3      	str	r3, [r2, #12]
 800340c:	4b0f      	ldr	r3, [pc, #60]	@ (800344c <gpio_button_initialization+0x68>)
 800340e:	681b      	ldr	r3, [r3, #0]
 8003410:	4a0e      	ldr	r2, [pc, #56]	@ (800344c <gpio_button_initialization+0x68>)
 8003412:	f023 030c 	bic.w	r3, r3, #12
 8003416:	6013      	str	r3, [r2, #0]
 8003418:	4b0c      	ldr	r3, [pc, #48]	@ (800344c <gpio_button_initialization+0x68>)
 800341a:	68db      	ldr	r3, [r3, #12]
 800341c:	4a0b      	ldr	r2, [pc, #44]	@ (800344c <gpio_button_initialization+0x68>)
 800341e:	f043 0304 	orr.w	r3, r3, #4
 8003422:	60d3      	str	r3, [r2, #12]
 8003424:	4b09      	ldr	r3, [pc, #36]	@ (800344c <gpio_button_initialization+0x68>)
 8003426:	681b      	ldr	r3, [r3, #0]
 8003428:	4a08      	ldr	r2, [pc, #32]	@ (800344c <gpio_button_initialization+0x68>)
 800342a:	f023 0330 	bic.w	r3, r3, #48	@ 0x30
 800342e:	6013      	str	r3, [r2, #0]
 8003430:	4b06      	ldr	r3, [pc, #24]	@ (800344c <gpio_button_initialization+0x68>)
 8003432:	68db      	ldr	r3, [r3, #12]
 8003434:	4a05      	ldr	r2, [pc, #20]	@ (800344c <gpio_button_initialization+0x68>)
 8003436:	f043 0310 	orr.w	r3, r3, #16
 800343a:	60d3      	str	r3, [r2, #12]
 800343c:	bf00      	nop
 800343e:	46bd      	mov	sp, r7
 8003440:	f85d 7b04 	ldr.w	r7, [sp], #4
 8003444:	4770      	bx	lr
 8003446:	bf00      	nop
 8003448:	40023800 	.word	0x40023800
 800344c:	40020800 	.word	0x40020800

08003450 <button_interrupt_initialization>:
 8003450:	b580      	push	{r7, lr}
 8003452:	af00      	add	r7, sp, #0
 8003454:	f7ff ff40 	bl	80032d8 <exti0_initialization>
 8003458:	f7ff ff70 	bl	800333c <exti1_initialization>
 800345c:	f7ff ff98 	bl	8003390 <exti2_initialization>
 8003460:	bf00      	nop
 8003462:	bd80      	pop	{r7, pc}

08003464 <accumulate_line>:


//function to receive user input into a line
//This function is attributed to Kenneth Alcineus' Assignment 6 Submission in Principles of Embedded Systems ECEN5813.
void accumulate_line(char *s)
{
 8003464:	b580      	push	{r7, lr}
 8003466:	b084      	sub	sp, #16
 8003468:	af00      	add	r7, sp, #0
 800346a:	6078      	str	r0, [r7, #4]
	char c = 0xFF;
 800346c:	23ff      	movs	r3, #255	@ 0xff
 800346e:	73fb      	strb	r3, [r7, #15]
	int len = 0;
 8003470:	2300      	movs	r3, #0
 8003472:	60bb      	str	r3, [r7, #8]

	while (len != MAX_STR_LEN)
 8003474:	e03a      	b.n	80034ec <accumulate_line+0x88>
	{
		while (c == 0xFF)
		{
			c = (char)getc(stdin);
 8003476:	4b28      	ldr	r3, [pc, #160]	@ (8003518 <accumulate_line+0xb4>)
 8003478:	681b      	ldr	r3, [r3, #0]
 800347a:	685b      	ldr	r3, [r3, #4]
 800347c:	4618      	mov	r0, r3
 800347e:	f005 fda7 	bl	8008fd0 <getc>
 8003482:	4603      	mov	r3, r0
 8003484:	73fb      	strb	r3, [r7, #15]
		while (c == 0xFF)
 8003486:	7bfb      	ldrb	r3, [r7, #15]
 8003488:	2bff      	cmp	r3, #255	@ 0xff
 800348a:	d0f4      	beq.n	8003476 <accumulate_line+0x12>
		}

		if (c == '\t' || c == '\v')
 800348c:	7bfb      	ldrb	r3, [r7, #15]
 800348e:	2b09      	cmp	r3, #9
 8003490:	d002      	beq.n	8003498 <accumulate_line+0x34>
 8003492:	7bfb      	ldrb	r3, [r7, #15]
 8003494:	2b0b      	cmp	r3, #11
 8003496:	d101      	bne.n	800349c <accumulate_line+0x38>
		{
			c = ' ';
 8003498:	2320      	movs	r3, #32
 800349a:	73fb      	strb	r3, [r7, #15]
		}

		if (c == '\b' || c == 0x7F)
 800349c:	7bfb      	ldrb	r3, [r7, #15]
 800349e:	2b08      	cmp	r3, #8
 80034a0:	d002      	beq.n	80034a8 <accumulate_line+0x44>
 80034a2:	7bfb      	ldrb	r3, [r7, #15]
 80034a4:	2b7f      	cmp	r3, #127	@ 0x7f
 80034a6:	d110      	bne.n	80034ca <accumulate_line+0x66>
		{
			if (len > 0)
 80034a8:	68bb      	ldr	r3, [r7, #8]
 80034aa:	2b00      	cmp	r3, #0
 80034ac:	dd0a      	ble.n	80034c4 <accumulate_line+0x60>
			{
				s[--len] = '\0';
 80034ae:	68bb      	ldr	r3, [r7, #8]
 80034b0:	3b01      	subs	r3, #1
 80034b2:	60bb      	str	r3, [r7, #8]
 80034b4:	68bb      	ldr	r3, [r7, #8]
 80034b6:	687a      	ldr	r2, [r7, #4]
 80034b8:	4413      	add	r3, r2
 80034ba:	2200      	movs	r2, #0
 80034bc:	701a      	strb	r2, [r3, #0]
				printf("\b \b");
 80034be:	4817      	ldr	r0, [pc, #92]	@ (800351c <accumulate_line+0xb8>)
 80034c0:	f005 fdb6 	bl	8009030 <iprintf>
			}
			c = 0xFF;
 80034c4:	23ff      	movs	r3, #255	@ 0xff
 80034c6:	73fb      	strb	r3, [r7, #15]
			continue;
 80034c8:	e010      	b.n	80034ec <accumulate_line+0x88>
		}

		printf("%c", c);
 80034ca:	7bfb      	ldrb	r3, [r7, #15]
 80034cc:	4618      	mov	r0, r3
 80034ce:	f005 fdc1 	bl	8009054 <putchar>
		s[len++] = c;
 80034d2:	68bb      	ldr	r3, [r7, #8]
 80034d4:	1c5a      	adds	r2, r3, #1
 80034d6:	60ba      	str	r2, [r7, #8]
 80034d8:	461a      	mov	r2, r3
 80034da:	687b      	ldr	r3, [r7, #4]
 80034dc:	4413      	add	r3, r2
 80034de:	7bfa      	ldrb	r2, [r7, #15]
 80034e0:	701a      	strb	r2, [r3, #0]

		if (c == '\r')
 80034e2:	7bfb      	ldrb	r3, [r7, #15]
 80034e4:	2b0d      	cmp	r3, #13
 80034e6:	d006      	beq.n	80034f6 <accumulate_line+0x92>
		{
			break;
		}

		c = 0xFF;
 80034e8:	23ff      	movs	r3, #255	@ 0xff
 80034ea:	73fb      	strb	r3, [r7, #15]
	while (len != MAX_STR_LEN)
 80034ec:	68bb      	ldr	r3, [r7, #8]
 80034ee:	f5b3 7f80 	cmp.w	r3, #256	@ 0x100
 80034f2:	d1c8      	bne.n	8003486 <accumulate_line+0x22>
 80034f4:	e000      	b.n	80034f8 <accumulate_line+0x94>
			break;
 80034f6:	bf00      	nop
	}

	printf("\n");
 80034f8:	200a      	movs	r0, #10
 80034fa:	f005 fdab 	bl	8009054 <putchar>

	if (len != MAX_STR_LEN)
 80034fe:	68bb      	ldr	r3, [r7, #8]
 8003500:	f5b3 7f80 	cmp.w	r3, #256	@ 0x100
 8003504:	d004      	beq.n	8003510 <accumulate_line+0xac>
	{
		s[len] = '\0';
 8003506:	68bb      	ldr	r3, [r7, #8]
 8003508:	687a      	ldr	r2, [r7, #4]
 800350a:	4413      	add	r3, r2
 800350c:	2200      	movs	r2, #0
 800350e:	701a      	strb	r2, [r3, #0]
	}
}
 8003510:	bf00      	nop
 8003512:	3710      	adds	r7, #16
 8003514:	46bd      	mov	sp, r7
 8003516:	bd80      	pop	{r7, pc}
 8003518:	200005a4 	.word	0x200005a4
 800351c:	0800a5a8 	.word	0x0800a5a8

08003520 <unknown_command>:

//function to check for invalid commands
//This function is attributed to Kenneth Alcineus' Assignment 6 Submission in Principles of Embedded Systems ECEN5813.
void unknown_command(int argc, char argv[][MAX_STR_LEN])
{
 8003520:	b580      	push	{r7, lr}
 8003522:	b084      	sub	sp, #16
 8003524:	af00      	add	r7, sp, #0
 8003526:	6078      	str	r0, [r7, #4]
 8003528:	6039      	str	r1, [r7, #0]
	printf("Unknown command <");
 800352a:	4810      	ldr	r0, [pc, #64]	@ (800356c <unknown_command+0x4c>)
 800352c:	f005 fd80 	bl	8009030 <iprintf>
	printf("%s", argv[0]);
 8003530:	6839      	ldr	r1, [r7, #0]
 8003532:	480f      	ldr	r0, [pc, #60]	@ (8003570 <unknown_command+0x50>)
 8003534:	f005 fd7c 	bl	8009030 <iprintf>

	for (int i = 1; i < argc; i++)
 8003538:	2301      	movs	r3, #1
 800353a:	60fb      	str	r3, [r7, #12]
 800353c:	e00a      	b.n	8003554 <unknown_command+0x34>
	{
		printf(" %s", argv[i]);
 800353e:	68fb      	ldr	r3, [r7, #12]
 8003540:	021b      	lsls	r3, r3, #8
 8003542:	683a      	ldr	r2, [r7, #0]
 8003544:	4413      	add	r3, r2
 8003546:	4619      	mov	r1, r3
 8003548:	480a      	ldr	r0, [pc, #40]	@ (8003574 <unknown_command+0x54>)
 800354a:	f005 fd71 	bl	8009030 <iprintf>
	for (int i = 1; i < argc; i++)
 800354e:	68fb      	ldr	r3, [r7, #12]
 8003550:	3301      	adds	r3, #1
 8003552:	60fb      	str	r3, [r7, #12]
 8003554:	68fa      	ldr	r2, [r7, #12]
 8003556:	687b      	ldr	r3, [r7, #4]
 8003558:	429a      	cmp	r2, r3
 800355a:	dbf0      	blt.n	800353e <unknown_command+0x1e>
	}

	printf(">.\r\n");
 800355c:	4806      	ldr	r0, [pc, #24]	@ (8003578 <unknown_command+0x58>)
 800355e:	f005 fdd7 	bl	8009110 <puts>
}
 8003562:	bf00      	nop
 8003564:	3710      	adds	r7, #16
 8003566:	46bd      	mov	sp, r7
 8003568:	bd80      	pop	{r7, pc}
 800356a:	bf00      	nop
 800356c:	0800a5ac 	.word	0x0800a5ac
 8003570:	0800a5c0 	.word	0x0800a5c0
 8003574:	0800a5c4 	.word	0x0800a5c4
 8003578:	0800a5c8 	.word	0x0800a5c8

0800357c <handle_author>:

//function to print the authors of the program
//This function is attributed to Kenneth Alcineus' Assignment 6 Submission in Principles of Embedded Systems ECEN5813.
void handle_author(int argc, char argv[][MAX_STR_LEN])
{
 800357c:	b580      	push	{r7, lr}
 800357e:	b082      	sub	sp, #8
 8003580:	af00      	add	r7, sp, #0
 8003582:	6078      	str	r0, [r7, #4]
 8003584:	6039      	str	r1, [r7, #0]
	if (argc > 1)
 8003586:	687b      	ldr	r3, [r7, #4]
 8003588:	2b01      	cmp	r3, #1
 800358a:	dd04      	ble.n	8003596 <handle_author+0x1a>
	{
		unknown_command(argc, argv);
 800358c:	6839      	ldr	r1, [r7, #0]
 800358e:	6878      	ldr	r0, [r7, #4]
 8003590:	f7ff ffc6 	bl	8003520 <unknown_command>
		return;
 8003594:	e002      	b.n	800359c <handle_author+0x20>
	}

	printf("Kenneth Alcineus & Likhita Jonnakuti\r\n");
 8003596:	4803      	ldr	r0, [pc, #12]	@ (80035a4 <handle_author+0x28>)
 8003598:	f005 fdba 	bl	8009110 <puts>
}
 800359c:	3708      	adds	r7, #8
 800359e:	46bd      	mov	sp, r7
 80035a0:	bd80      	pop	{r7, pc}
 80035a2:	bf00      	nop
 80035a4:	0800a5cc 	.word	0x0800a5cc

080035a8 <handle_test>:

//function to test if the solenoid is in working condition
//This function represents the handle_led function attributed to Kenneth Alcineus' Assignment 6 Submission in Principles of Embedded Systems ECEN5813.
void handle_test(int argc, char argv[][MAX_STR_LEN])
{
 80035a8:	b580      	push	{r7, lr}
 80035aa:	b088      	sub	sp, #32
 80035ac:	af00      	add	r7, sp, #0
 80035ae:	6078      	str	r0, [r7, #4]
 80035b0:	6039      	str	r1, [r7, #0]
	if (argc > 2)
 80035b2:	687b      	ldr	r3, [r7, #4]
 80035b4:	2b02      	cmp	r3, #2
 80035b6:	dd04      	ble.n	80035c2 <handle_test+0x1a>
	{
		unknown_command(argc, argv);
 80035b8:	6839      	ldr	r1, [r7, #0]
 80035ba:	6878      	ldr	r0, [r7, #4]
 80035bc:	f7ff ffb0 	bl	8003520 <unknown_command>
		return;
 80035c0:	e0b3      	b.n	800372a <handle_test+0x182>
	}

	int blink_count = 0;
 80035c2:	2300      	movs	r3, #0
 80035c4:	61fb      	str	r3, [r7, #28]

	//the following if condition is attributed to https://stackoverflow.com/a/39052987 (also referenced in Assignment 1)
	if (argv[1][0] == '0' && (argv[1][1] == 'x' || argv[1][1] == 'X'))
 80035c6:	683b      	ldr	r3, [r7, #0]
 80035c8:	f503 7380 	add.w	r3, r3, #256	@ 0x100
 80035cc:	781b      	ldrb	r3, [r3, #0]
 80035ce:	2b30      	cmp	r3, #48	@ 0x30
 80035d0:	d172      	bne.n	80036b8 <handle_test+0x110>
 80035d2:	683b      	ldr	r3, [r7, #0]
 80035d4:	f503 7380 	add.w	r3, r3, #256	@ 0x100
 80035d8:	785b      	ldrb	r3, [r3, #1]
 80035da:	2b78      	cmp	r3, #120	@ 0x78
 80035dc:	d005      	beq.n	80035ea <handle_test+0x42>
 80035de:	683b      	ldr	r3, [r7, #0]
 80035e0:	f503 7380 	add.w	r3, r3, #256	@ 0x100
 80035e4:	785b      	ldrb	r3, [r3, #1]
 80035e6:	2b58      	cmp	r3, #88	@ 0x58
 80035e8:	d166      	bne.n	80036b8 <handle_test+0x110>
	{
		int hexstr_len = 2;
 80035ea:	2302      	movs	r3, #2
 80035ec:	61bb      	str	r3, [r7, #24]
	    while (argv[1][hexstr_len] != '\0')
 80035ee:	e05a      	b.n	80036a6 <handle_test+0xfe>
	    {
	    	blink_count <<= 4;
 80035f0:	69fb      	ldr	r3, [r7, #28]
 80035f2:	011b      	lsls	r3, r3, #4
 80035f4:	61fb      	str	r3, [r7, #28]
	        if ((argv[1][hexstr_len] >= '0' && argv[1][hexstr_len] <= '9'))
 80035f6:	683b      	ldr	r3, [r7, #0]
 80035f8:	f503 7280 	add.w	r2, r3, #256	@ 0x100
 80035fc:	69bb      	ldr	r3, [r7, #24]
 80035fe:	4413      	add	r3, r2
 8003600:	781b      	ldrb	r3, [r3, #0]
 8003602:	2b2f      	cmp	r3, #47	@ 0x2f
 8003604:	d912      	bls.n	800362c <handle_test+0x84>
 8003606:	683b      	ldr	r3, [r7, #0]
 8003608:	f503 7280 	add.w	r2, r3, #256	@ 0x100
 800360c:	69bb      	ldr	r3, [r7, #24]
 800360e:	4413      	add	r3, r2
 8003610:	781b      	ldrb	r3, [r3, #0]
 8003612:	2b39      	cmp	r3, #57	@ 0x39
 8003614:	d80a      	bhi.n	800362c <handle_test+0x84>
	        {
	        	blink_count += (argv[1][hexstr_len] - '0');
 8003616:	683b      	ldr	r3, [r7, #0]
 8003618:	f503 7280 	add.w	r2, r3, #256	@ 0x100
 800361c:	69bb      	ldr	r3, [r7, #24]
 800361e:	4413      	add	r3, r2
 8003620:	781b      	ldrb	r3, [r3, #0]
 8003622:	3b30      	subs	r3, #48	@ 0x30
 8003624:	69fa      	ldr	r2, [r7, #28]
 8003626:	4413      	add	r3, r2
 8003628:	61fb      	str	r3, [r7, #28]
 800362a:	e039      	b.n	80036a0 <handle_test+0xf8>
	        }
	        else if ((argv[1][hexstr_len] >= 'A' && argv[1][hexstr_len] <= 'F'))
 800362c:	683b      	ldr	r3, [r7, #0]
 800362e:	f503 7280 	add.w	r2, r3, #256	@ 0x100
 8003632:	69bb      	ldr	r3, [r7, #24]
 8003634:	4413      	add	r3, r2
 8003636:	781b      	ldrb	r3, [r3, #0]
 8003638:	2b40      	cmp	r3, #64	@ 0x40
 800363a:	d912      	bls.n	8003662 <handle_test+0xba>
 800363c:	683b      	ldr	r3, [r7, #0]
 800363e:	f503 7280 	add.w	r2, r3, #256	@ 0x100
 8003642:	69bb      	ldr	r3, [r7, #24]
 8003644:	4413      	add	r3, r2
 8003646:	781b      	ldrb	r3, [r3, #0]
 8003648:	2b46      	cmp	r3, #70	@ 0x46
 800364a:	d80a      	bhi.n	8003662 <handle_test+0xba>
	        {
	        	blink_count += (argv[1][hexstr_len] - 'A' + 10);
 800364c:	683b      	ldr	r3, [r7, #0]
 800364e:	f503 7280 	add.w	r2, r3, #256	@ 0x100
 8003652:	69bb      	ldr	r3, [r7, #24]
 8003654:	4413      	add	r3, r2
 8003656:	781b      	ldrb	r3, [r3, #0]
 8003658:	3b37      	subs	r3, #55	@ 0x37
 800365a:	69fa      	ldr	r2, [r7, #28]
 800365c:	4413      	add	r3, r2
 800365e:	61fb      	str	r3, [r7, #28]
 8003660:	e01e      	b.n	80036a0 <handle_test+0xf8>
	        }
	        else if ((argv[1][hexstr_len] >= 'a' && argv[1][hexstr_len] <= 'f'))
 8003662:	683b      	ldr	r3, [r7, #0]
 8003664:	f503 7280 	add.w	r2, r3, #256	@ 0x100
 8003668:	69bb      	ldr	r3, [r7, #24]
 800366a:	4413      	add	r3, r2
 800366c:	781b      	ldrb	r3, [r3, #0]
 800366e:	2b60      	cmp	r3, #96	@ 0x60
 8003670:	d912      	bls.n	8003698 <handle_test+0xf0>
 8003672:	683b      	ldr	r3, [r7, #0]
 8003674:	f503 7280 	add.w	r2, r3, #256	@ 0x100
 8003678:	69bb      	ldr	r3, [r7, #24]
 800367a:	4413      	add	r3, r2
 800367c:	781b      	ldrb	r3, [r3, #0]
 800367e:	2b66      	cmp	r3, #102	@ 0x66
 8003680:	d80a      	bhi.n	8003698 <handle_test+0xf0>
	        {
	        	blink_count += (argv[1][hexstr_len] - 'a' + 10);
 8003682:	683b      	ldr	r3, [r7, #0]
 8003684:	f503 7280 	add.w	r2, r3, #256	@ 0x100
 8003688:	69bb      	ldr	r3, [r7, #24]
 800368a:	4413      	add	r3, r2
 800368c:	781b      	ldrb	r3, [r3, #0]
 800368e:	3b57      	subs	r3, #87	@ 0x57
 8003690:	69fa      	ldr	r2, [r7, #28]
 8003692:	4413      	add	r3, r2
 8003694:	61fb      	str	r3, [r7, #28]
 8003696:	e003      	b.n	80036a0 <handle_test+0xf8>
	        }
	        else
	        {
	            blink_count = 0;
 8003698:	2300      	movs	r3, #0
 800369a:	61fb      	str	r3, [r7, #28]
	            break;
 800369c:	bf00      	nop
	{
 800369e:	e012      	b.n	80036c6 <handle_test+0x11e>
	        }
	        hexstr_len++;
 80036a0:	69bb      	ldr	r3, [r7, #24]
 80036a2:	3301      	adds	r3, #1
 80036a4:	61bb      	str	r3, [r7, #24]
	    while (argv[1][hexstr_len] != '\0')
 80036a6:	683b      	ldr	r3, [r7, #0]
 80036a8:	f503 7280 	add.w	r2, r3, #256	@ 0x100
 80036ac:	69bb      	ldr	r3, [r7, #24]
 80036ae:	4413      	add	r3, r2
 80036b0:	781b      	ldrb	r3, [r3, #0]
 80036b2:	2b00      	cmp	r3, #0
 80036b4:	d19c      	bne.n	80035f0 <handle_test+0x48>
	{
 80036b6:	e006      	b.n	80036c6 <handle_test+0x11e>
	    }
	}

	else
	{
		blink_count = atoi(argv[1]);
 80036b8:	683b      	ldr	r3, [r7, #0]
 80036ba:	f503 7380 	add.w	r3, r3, #256	@ 0x100
 80036be:	4618      	mov	r0, r3
 80036c0:	f005 fb3c 	bl	8008d3c <atoi>
 80036c4:	61f8      	str	r0, [r7, #28]
	}

	if (blink_count <= 0)
 80036c6:	69fb      	ldr	r3, [r7, #28]
 80036c8:	2b00      	cmp	r3, #0
 80036ca:	dc04      	bgt.n	80036d6 <handle_test+0x12e>
	{
		unknown_command(argc, argv);
 80036cc:	6839      	ldr	r1, [r7, #0]
 80036ce:	6878      	ldr	r0, [r7, #4]
 80036d0:	f7ff ff26 	bl	8003520 <unknown_command>
		return;
 80036d4:	e029      	b.n	800372a <handle_test+0x182>
	}

	//simple test routine for the LED pin which also controls the solenoid
	for (int i = 0; i < blink_count; i++)
 80036d6:	2300      	movs	r3, #0
 80036d8:	617b      	str	r3, [r7, #20]
 80036da:	e022      	b.n	8003722 <handle_test+0x17a>
	{
		  GPIOD->BSRR |= GPIO_BSRR_BR12;
 80036dc:	4b14      	ldr	r3, [pc, #80]	@ (8003730 <handle_test+0x188>)
 80036de:	699b      	ldr	r3, [r3, #24]
 80036e0:	4a13      	ldr	r2, [pc, #76]	@ (8003730 <handle_test+0x188>)
 80036e2:	f043 5380 	orr.w	r3, r3, #268435456	@ 0x10000000
 80036e6:	6193      	str	r3, [r2, #24]
		  for(volatile int i = 0; i < 10000000; i++);
 80036e8:	2300      	movs	r3, #0
 80036ea:	60fb      	str	r3, [r7, #12]
 80036ec:	e002      	b.n	80036f4 <handle_test+0x14c>
 80036ee:	68fb      	ldr	r3, [r7, #12]
 80036f0:	3301      	adds	r3, #1
 80036f2:	60fb      	str	r3, [r7, #12]
 80036f4:	68fb      	ldr	r3, [r7, #12]
 80036f6:	4a0f      	ldr	r2, [pc, #60]	@ (8003734 <handle_test+0x18c>)
 80036f8:	4293      	cmp	r3, r2
 80036fa:	dbf8      	blt.n	80036ee <handle_test+0x146>
		  GPIOD->BSRR |= GPIO_BSRR_BS12;
 80036fc:	4b0c      	ldr	r3, [pc, #48]	@ (8003730 <handle_test+0x188>)
 80036fe:	699b      	ldr	r3, [r3, #24]
 8003700:	4a0b      	ldr	r2, [pc, #44]	@ (8003730 <handle_test+0x188>)
 8003702:	f443 5380 	orr.w	r3, r3, #4096	@ 0x1000
 8003706:	6193      	str	r3, [r2, #24]
		  for(int i = 0; i < 10000000; i++);
 8003708:	2300      	movs	r3, #0
 800370a:	613b      	str	r3, [r7, #16]
 800370c:	e002      	b.n	8003714 <handle_test+0x16c>
 800370e:	693b      	ldr	r3, [r7, #16]
 8003710:	3301      	adds	r3, #1
 8003712:	613b      	str	r3, [r7, #16]
 8003714:	693b      	ldr	r3, [r7, #16]
 8003716:	4a07      	ldr	r2, [pc, #28]	@ (8003734 <handle_test+0x18c>)
 8003718:	4293      	cmp	r3, r2
 800371a:	dbf8      	blt.n	800370e <handle_test+0x166>
	for (int i = 0; i < blink_count; i++)
 800371c:	697b      	ldr	r3, [r7, #20]
 800371e:	3301      	adds	r3, #1
 8003720:	617b      	str	r3, [r7, #20]
 8003722:	697a      	ldr	r2, [r7, #20]
 8003724:	69fb      	ldr	r3, [r7, #28]
 8003726:	429a      	cmp	r2, r3
 8003728:	dbd8      	blt.n	80036dc <handle_test+0x134>
	}
}
 800372a:	3720      	adds	r7, #32
 800372c:	46bd      	mov	sp, r7
 800372e:	bd80      	pop	{r7, pc}
 8003730:	40020c00 	.word	0x40020c00
 8003734:	00989680 	.word	0x00989680

08003738 <handle_hexedit>:

//this command allows for writing bytes to an address on the EEPROM or performing a full data dump for the entire address space
void handle_hexedit(int argc, char argv[][MAX_STR_LEN])
{
 8003738:	b580      	push	{r7, lr}
 800373a:	b088      	sub	sp, #32
 800373c:	af00      	add	r7, sp, #0
 800373e:	6078      	str	r0, [r7, #4]
 8003740:	6039      	str	r1, [r7, #0]
	if (argc > 4)
 8003742:	687b      	ldr	r3, [r7, #4]
 8003744:	2b04      	cmp	r3, #4
 8003746:	dd04      	ble.n	8003752 <handle_hexedit+0x1a>
	{
		unknown_command(argc, argv);
 8003748:	6839      	ldr	r1, [r7, #0]
 800374a:	6878      	ldr	r0, [r7, #4]
 800374c:	f7ff fee8 	bl	8003520 <unknown_command>
		return;
 8003750:	e173      	b.n	8003a3a <handle_hexedit+0x302>
	}

	if (strcasecmp(argv[1], "DUMP") == 0)
 8003752:	683b      	ldr	r3, [r7, #0]
 8003754:	f503 7380 	add.w	r3, r3, #256	@ 0x100
 8003758:	499d      	ldr	r1, [pc, #628]	@ (80039d0 <handle_hexedit+0x298>)
 800375a:	4618      	mov	r0, r3
 800375c:	f005 fdfa 	bl	8009354 <strcasecmp>
 8003760:	4603      	mov	r3, r0
 8003762:	2b00      	cmp	r3, #0
 8003764:	d130      	bne.n	80037c8 <handle_hexedit+0x90>
	{
		for (int i = 0; i < 0x800; i += 16)
 8003766:	2300      	movs	r3, #0
 8003768:	61fb      	str	r3, [r7, #28]
 800376a:	e028      	b.n	80037be <handle_hexedit+0x86>
		{
			uint8_t byte_read = 0;
 800376c:	2300      	movs	r3, #0
 800376e:	72fb      	strb	r3, [r7, #11]
			printf("%03X : ", i);
 8003770:	69f9      	ldr	r1, [r7, #28]
 8003772:	4898      	ldr	r0, [pc, #608]	@ (80039d4 <handle_hexedit+0x29c>)
 8003774:	f005 fc5c 	bl	8009030 <iprintf>
			for (int j = 0; j < 16; j++)
 8003778:	2300      	movs	r3, #0
 800377a:	61bb      	str	r3, [r7, #24]
 800377c:	e016      	b.n	80037ac <handle_hexedit+0x74>
			{
				EEPROM_ReadByte((i + j), &byte_read);
 800377e:	69fb      	ldr	r3, [r7, #28]
 8003780:	b29a      	uxth	r2, r3
 8003782:	69bb      	ldr	r3, [r7, #24]
 8003784:	b29b      	uxth	r3, r3
 8003786:	4413      	add	r3, r2
 8003788:	b29b      	uxth	r3, r3
 800378a:	f107 020b 	add.w	r2, r7, #11
 800378e:	4611      	mov	r1, r2
 8003790:	4618      	mov	r0, r3
 8003792:	f7fc ff13 	bl	80005bc <EEPROM_ReadByte>
				delay_ms(10);
 8003796:	200a      	movs	r0, #10
 8003798:	f004 fa9c 	bl	8007cd4 <delay_ms>
				printf("%02X ", (int)byte_read);
 800379c:	7afb      	ldrb	r3, [r7, #11]
 800379e:	4619      	mov	r1, r3
 80037a0:	488d      	ldr	r0, [pc, #564]	@ (80039d8 <handle_hexedit+0x2a0>)
 80037a2:	f005 fc45 	bl	8009030 <iprintf>
			for (int j = 0; j < 16; j++)
 80037a6:	69bb      	ldr	r3, [r7, #24]
 80037a8:	3301      	adds	r3, #1
 80037aa:	61bb      	str	r3, [r7, #24]
 80037ac:	69bb      	ldr	r3, [r7, #24]
 80037ae:	2b0f      	cmp	r3, #15
 80037b0:	dde5      	ble.n	800377e <handle_hexedit+0x46>
			}
			printf("\r\n");
 80037b2:	488a      	ldr	r0, [pc, #552]	@ (80039dc <handle_hexedit+0x2a4>)
 80037b4:	f005 fcac 	bl	8009110 <puts>
		for (int i = 0; i < 0x800; i += 16)
 80037b8:	69fb      	ldr	r3, [r7, #28]
 80037ba:	3310      	adds	r3, #16
 80037bc:	61fb      	str	r3, [r7, #28]
 80037be:	69fb      	ldr	r3, [r7, #28]
 80037c0:	f5b3 6f00 	cmp.w	r3, #2048	@ 0x800
 80037c4:	dbd2      	blt.n	800376c <handle_hexedit+0x34>
		}
		return;
 80037c6:	e138      	b.n	8003a3a <handle_hexedit+0x302>
	}

	if ((strcasecmp(argv[1], "WRITE") == 0))
 80037c8:	683b      	ldr	r3, [r7, #0]
 80037ca:	f503 7380 	add.w	r3, r3, #256	@ 0x100
 80037ce:	4984      	ldr	r1, [pc, #528]	@ (80039e0 <handle_hexedit+0x2a8>)
 80037d0:	4618      	mov	r0, r3
 80037d2:	f005 fdbf 	bl	8009354 <strcasecmp>
 80037d6:	4603      	mov	r3, r0
 80037d8:	2b00      	cmp	r3, #0
 80037da:	f040 812e 	bne.w	8003a3a <handle_hexedit+0x302>
	{
		int hexstr_len;
		int address;

		//the following if condition is attributed to https://stackoverflow.com/a/39052987 (also referenced in Assignment 1)
		if (argv[2][0] == '0' && (argv[2][1] == 'x' || argv[2][1] == 'X'))
 80037de:	683b      	ldr	r3, [r7, #0]
 80037e0:	f503 7300 	add.w	r3, r3, #512	@ 0x200
 80037e4:	781b      	ldrb	r3, [r3, #0]
 80037e6:	2b30      	cmp	r3, #48	@ 0x30
 80037e8:	d172      	bne.n	80038d0 <handle_hexedit+0x198>
 80037ea:	683b      	ldr	r3, [r7, #0]
 80037ec:	f503 7300 	add.w	r3, r3, #512	@ 0x200
 80037f0:	785b      	ldrb	r3, [r3, #1]
 80037f2:	2b78      	cmp	r3, #120	@ 0x78
 80037f4:	d005      	beq.n	8003802 <handle_hexedit+0xca>
 80037f6:	683b      	ldr	r3, [r7, #0]
 80037f8:	f503 7300 	add.w	r3, r3, #512	@ 0x200
 80037fc:	785b      	ldrb	r3, [r3, #1]
 80037fe:	2b58      	cmp	r3, #88	@ 0x58
 8003800:	d166      	bne.n	80038d0 <handle_hexedit+0x198>
		{
			hexstr_len = 2;
 8003802:	2302      	movs	r3, #2
 8003804:	617b      	str	r3, [r7, #20]
		    while (argv[2][hexstr_len] != '\0')
 8003806:	e05a      	b.n	80038be <handle_hexedit+0x186>
		    {
		    	address <<= 4;
 8003808:	693b      	ldr	r3, [r7, #16]
 800380a:	011b      	lsls	r3, r3, #4
 800380c:	613b      	str	r3, [r7, #16]
		        if ((argv[2][hexstr_len] >= '0' && argv[2][hexstr_len] <= '9'))
 800380e:	683b      	ldr	r3, [r7, #0]
 8003810:	f503 7200 	add.w	r2, r3, #512	@ 0x200
 8003814:	697b      	ldr	r3, [r7, #20]
 8003816:	4413      	add	r3, r2
 8003818:	781b      	ldrb	r3, [r3, #0]
 800381a:	2b2f      	cmp	r3, #47	@ 0x2f
 800381c:	d912      	bls.n	8003844 <handle_hexedit+0x10c>
 800381e:	683b      	ldr	r3, [r7, #0]
 8003820:	f503 7200 	add.w	r2, r3, #512	@ 0x200
 8003824:	697b      	ldr	r3, [r7, #20]
 8003826:	4413      	add	r3, r2
 8003828:	781b      	ldrb	r3, [r3, #0]
 800382a:	2b39      	cmp	r3, #57	@ 0x39
 800382c:	d80a      	bhi.n	8003844 <handle_hexedit+0x10c>
		        {
		        	address += (argv[2][hexstr_len] - '0');
 800382e:	683b      	ldr	r3, [r7, #0]
 8003830:	f503 7200 	add.w	r2, r3, #512	@ 0x200
 8003834:	697b      	ldr	r3, [r7, #20]
 8003836:	4413      	add	r3, r2
 8003838:	781b      	ldrb	r3, [r3, #0]
 800383a:	3b30      	subs	r3, #48	@ 0x30
 800383c:	693a      	ldr	r2, [r7, #16]
 800383e:	4413      	add	r3, r2
 8003840:	613b      	str	r3, [r7, #16]
 8003842:	e039      	b.n	80038b8 <handle_hexedit+0x180>
		        }
		        else if ((argv[2][hexstr_len] >= 'A' && argv[2][hexstr_len] <= 'F'))
 8003844:	683b      	ldr	r3, [r7, #0]
 8003846:	f503 7200 	add.w	r2, r3, #512	@ 0x200
 800384a:	697b      	ldr	r3, [r7, #20]
 800384c:	4413      	add	r3, r2
 800384e:	781b      	ldrb	r3, [r3, #0]
 8003850:	2b40      	cmp	r3, #64	@ 0x40
 8003852:	d912      	bls.n	800387a <handle_hexedit+0x142>
 8003854:	683b      	ldr	r3, [r7, #0]
 8003856:	f503 7200 	add.w	r2, r3, #512	@ 0x200
 800385a:	697b      	ldr	r3, [r7, #20]
 800385c:	4413      	add	r3, r2
 800385e:	781b      	ldrb	r3, [r3, #0]
 8003860:	2b46      	cmp	r3, #70	@ 0x46
 8003862:	d80a      	bhi.n	800387a <handle_hexedit+0x142>
		        {
		        	address += (argv[2][hexstr_len] - 'A' + 10);
 8003864:	683b      	ldr	r3, [r7, #0]
 8003866:	f503 7200 	add.w	r2, r3, #512	@ 0x200
 800386a:	697b      	ldr	r3, [r7, #20]
 800386c:	4413      	add	r3, r2
 800386e:	781b      	ldrb	r3, [r3, #0]
 8003870:	3b37      	subs	r3, #55	@ 0x37
 8003872:	693a      	ldr	r2, [r7, #16]
 8003874:	4413      	add	r3, r2
 8003876:	613b      	str	r3, [r7, #16]
 8003878:	e01e      	b.n	80038b8 <handle_hexedit+0x180>
		        }
		        else if ((argv[2][hexstr_len] >= 'a' && argv[2][hexstr_len] <= 'f'))
 800387a:	683b      	ldr	r3, [r7, #0]
 800387c:	f503 7200 	add.w	r2, r3, #512	@ 0x200
 8003880:	697b      	ldr	r3, [r7, #20]
 8003882:	4413      	add	r3, r2
 8003884:	781b      	ldrb	r3, [r3, #0]
 8003886:	2b60      	cmp	r3, #96	@ 0x60
 8003888:	d912      	bls.n	80038b0 <handle_hexedit+0x178>
 800388a:	683b      	ldr	r3, [r7, #0]
 800388c:	f503 7200 	add.w	r2, r3, #512	@ 0x200
 8003890:	697b      	ldr	r3, [r7, #20]
 8003892:	4413      	add	r3, r2
 8003894:	781b      	ldrb	r3, [r3, #0]
 8003896:	2b66      	cmp	r3, #102	@ 0x66
 8003898:	d80a      	bhi.n	80038b0 <handle_hexedit+0x178>
		        {
		        	address += (argv[2][hexstr_len] - 'a' + 10);
 800389a:	683b      	ldr	r3, [r7, #0]
 800389c:	f503 7200 	add.w	r2, r3, #512	@ 0x200
 80038a0:	697b      	ldr	r3, [r7, #20]
 80038a2:	4413      	add	r3, r2
 80038a4:	781b      	ldrb	r3, [r3, #0]
 80038a6:	3b57      	subs	r3, #87	@ 0x57
 80038a8:	693a      	ldr	r2, [r7, #16]
 80038aa:	4413      	add	r3, r2
 80038ac:	613b      	str	r3, [r7, #16]
 80038ae:	e003      	b.n	80038b8 <handle_hexedit+0x180>
		        }
		        else
		        {
		        	address = 0;
 80038b0:	2300      	movs	r3, #0
 80038b2:	613b      	str	r3, [r7, #16]
		            break;
 80038b4:	bf00      	nop
		if (argv[2][0] == '0' && (argv[2][1] == 'x' || argv[2][1] == 'X'))
 80038b6:	e012      	b.n	80038de <handle_hexedit+0x1a6>
		        }
		        hexstr_len++;
 80038b8:	697b      	ldr	r3, [r7, #20]
 80038ba:	3301      	adds	r3, #1
 80038bc:	617b      	str	r3, [r7, #20]
		    while (argv[2][hexstr_len] != '\0')
 80038be:	683b      	ldr	r3, [r7, #0]
 80038c0:	f503 7200 	add.w	r2, r3, #512	@ 0x200
 80038c4:	697b      	ldr	r3, [r7, #20]
 80038c6:	4413      	add	r3, r2
 80038c8:	781b      	ldrb	r3, [r3, #0]
 80038ca:	2b00      	cmp	r3, #0
 80038cc:	d19c      	bne.n	8003808 <handle_hexedit+0xd0>
		if (argv[2][0] == '0' && (argv[2][1] == 'x' || argv[2][1] == 'X'))
 80038ce:	e006      	b.n	80038de <handle_hexedit+0x1a6>
		    }
		}

		else
		{
			address = atoi(argv[2]);
 80038d0:	683b      	ldr	r3, [r7, #0]
 80038d2:	f503 7300 	add.w	r3, r3, #512	@ 0x200
 80038d6:	4618      	mov	r0, r3
 80038d8:	f005 fa30 	bl	8008d3c <atoi>
 80038dc:	6138      	str	r0, [r7, #16]
		}

		if (address > 0x7FF || address < 0)
 80038de:	693b      	ldr	r3, [r7, #16]
 80038e0:	f5b3 6f00 	cmp.w	r3, #2048	@ 0x800
 80038e4:	da02      	bge.n	80038ec <handle_hexedit+0x1b4>
 80038e6:	693b      	ldr	r3, [r7, #16]
 80038e8:	2b00      	cmp	r3, #0
 80038ea:	da03      	bge.n	80038f4 <handle_hexedit+0x1bc>
		{
			printf("Invalid address!");
 80038ec:	483d      	ldr	r0, [pc, #244]	@ (80039e4 <handle_hexedit+0x2ac>)
 80038ee:	f005 fb9f 	bl	8009030 <iprintf>
			return;
 80038f2:	e0a2      	b.n	8003a3a <handle_hexedit+0x302>
		}

		int data;
		//the following if condition is attributed to https://stackoverflow.com/a/39052987 (also referenced in Assignment 1)
		if (argv[3][0] == '0' && (argv[3][1] == 'x' || argv[3][1] == 'X'))
 80038f4:	683b      	ldr	r3, [r7, #0]
 80038f6:	f503 7340 	add.w	r3, r3, #768	@ 0x300
 80038fa:	781b      	ldrb	r3, [r3, #0]
 80038fc:	2b30      	cmp	r3, #48	@ 0x30
 80038fe:	d17f      	bne.n	8003a00 <handle_hexedit+0x2c8>
 8003900:	683b      	ldr	r3, [r7, #0]
 8003902:	f503 7340 	add.w	r3, r3, #768	@ 0x300
 8003906:	785b      	ldrb	r3, [r3, #1]
 8003908:	2b78      	cmp	r3, #120	@ 0x78
 800390a:	d005      	beq.n	8003918 <handle_hexedit+0x1e0>
 800390c:	683b      	ldr	r3, [r7, #0]
 800390e:	f503 7340 	add.w	r3, r3, #768	@ 0x300
 8003912:	785b      	ldrb	r3, [r3, #1]
 8003914:	2b58      	cmp	r3, #88	@ 0x58
 8003916:	d173      	bne.n	8003a00 <handle_hexedit+0x2c8>
		{
			hexstr_len = 2;
 8003918:	2302      	movs	r3, #2
 800391a:	617b      	str	r3, [r7, #20]
		    while (argv[3][hexstr_len] != '\0')
 800391c:	e067      	b.n	80039ee <handle_hexedit+0x2b6>
		    {
		    	address <<= 4;
 800391e:	693b      	ldr	r3, [r7, #16]
 8003920:	011b      	lsls	r3, r3, #4
 8003922:	613b      	str	r3, [r7, #16]
		        if ((argv[3][hexstr_len] >= '0' && argv[3][hexstr_len] <= '9'))
 8003924:	683b      	ldr	r3, [r7, #0]
 8003926:	f503 7240 	add.w	r2, r3, #768	@ 0x300
 800392a:	697b      	ldr	r3, [r7, #20]
 800392c:	4413      	add	r3, r2
 800392e:	781b      	ldrb	r3, [r3, #0]
 8003930:	2b2f      	cmp	r3, #47	@ 0x2f
 8003932:	d912      	bls.n	800395a <handle_hexedit+0x222>
 8003934:	683b      	ldr	r3, [r7, #0]
 8003936:	f503 7240 	add.w	r2, r3, #768	@ 0x300
 800393a:	697b      	ldr	r3, [r7, #20]
 800393c:	4413      	add	r3, r2
 800393e:	781b      	ldrb	r3, [r3, #0]
 8003940:	2b39      	cmp	r3, #57	@ 0x39
 8003942:	d80a      	bhi.n	800395a <handle_hexedit+0x222>
		        {
		        	data += (argv[3][hexstr_len] - '0');
 8003944:	683b      	ldr	r3, [r7, #0]
 8003946:	f503 7240 	add.w	r2, r3, #768	@ 0x300
 800394a:	697b      	ldr	r3, [r7, #20]
 800394c:	4413      	add	r3, r2
 800394e:	781b      	ldrb	r3, [r3, #0]
 8003950:	3b30      	subs	r3, #48	@ 0x30
 8003952:	68fa      	ldr	r2, [r7, #12]
 8003954:	4413      	add	r3, r2
 8003956:	60fb      	str	r3, [r7, #12]
 8003958:	e046      	b.n	80039e8 <handle_hexedit+0x2b0>
		        }
		        else if ((argv[3][hexstr_len] >= 'A' && argv[3][hexstr_len] <= 'F'))
 800395a:	683b      	ldr	r3, [r7, #0]
 800395c:	f503 7240 	add.w	r2, r3, #768	@ 0x300
 8003960:	697b      	ldr	r3, [r7, #20]
 8003962:	4413      	add	r3, r2
 8003964:	781b      	ldrb	r3, [r3, #0]
 8003966:	2b40      	cmp	r3, #64	@ 0x40
 8003968:	d912      	bls.n	8003990 <handle_hexedit+0x258>
 800396a:	683b      	ldr	r3, [r7, #0]
 800396c:	f503 7240 	add.w	r2, r3, #768	@ 0x300
 8003970:	697b      	ldr	r3, [r7, #20]
 8003972:	4413      	add	r3, r2
 8003974:	781b      	ldrb	r3, [r3, #0]
 8003976:	2b46      	cmp	r3, #70	@ 0x46
 8003978:	d80a      	bhi.n	8003990 <handle_hexedit+0x258>
		        {
		        	data += (argv[3][hexstr_len] - 'A' + 10);
 800397a:	683b      	ldr	r3, [r7, #0]
 800397c:	f503 7240 	add.w	r2, r3, #768	@ 0x300
 8003980:	697b      	ldr	r3, [r7, #20]
 8003982:	4413      	add	r3, r2
 8003984:	781b      	ldrb	r3, [r3, #0]
 8003986:	3b37      	subs	r3, #55	@ 0x37
 8003988:	68fa      	ldr	r2, [r7, #12]
 800398a:	4413      	add	r3, r2
 800398c:	60fb      	str	r3, [r7, #12]
 800398e:	e02b      	b.n	80039e8 <handle_hexedit+0x2b0>
		        }
		        else if ((argv[3][hexstr_len] >= 'a' && argv[3][hexstr_len] <= 'f'))
 8003990:	683b      	ldr	r3, [r7, #0]
 8003992:	f503 7240 	add.w	r2, r3, #768	@ 0x300
 8003996:	697b      	ldr	r3, [r7, #20]
 8003998:	4413      	add	r3, r2
 800399a:	781b      	ldrb	r3, [r3, #0]
 800399c:	2b60      	cmp	r3, #96	@ 0x60
 800399e:	d912      	bls.n	80039c6 <handle_hexedit+0x28e>
 80039a0:	683b      	ldr	r3, [r7, #0]
 80039a2:	f503 7240 	add.w	r2, r3, #768	@ 0x300
 80039a6:	697b      	ldr	r3, [r7, #20]
 80039a8:	4413      	add	r3, r2
 80039aa:	781b      	ldrb	r3, [r3, #0]
 80039ac:	2b66      	cmp	r3, #102	@ 0x66
 80039ae:	d80a      	bhi.n	80039c6 <handle_hexedit+0x28e>
		        {
		        	data += (argv[3][hexstr_len] - 'a' + 10);
 80039b0:	683b      	ldr	r3, [r7, #0]
 80039b2:	f503 7240 	add.w	r2, r3, #768	@ 0x300
 80039b6:	697b      	ldr	r3, [r7, #20]
 80039b8:	4413      	add	r3, r2
 80039ba:	781b      	ldrb	r3, [r3, #0]
 80039bc:	3b57      	subs	r3, #87	@ 0x57
 80039be:	68fa      	ldr	r2, [r7, #12]
 80039c0:	4413      	add	r3, r2
 80039c2:	60fb      	str	r3, [r7, #12]
 80039c4:	e010      	b.n	80039e8 <handle_hexedit+0x2b0>
		        }
		        else
		        {
		        	data = 0;
 80039c6:	2300      	movs	r3, #0
 80039c8:	60fb      	str	r3, [r7, #12]
		            break;
 80039ca:	bf00      	nop
		if (argv[3][0] == '0' && (argv[3][1] == 'x' || argv[3][1] == 'X'))
 80039cc:	e01f      	b.n	8003a0e <handle_hexedit+0x2d6>
 80039ce:	bf00      	nop
 80039d0:	0800a5f4 	.word	0x0800a5f4
 80039d4:	0800a5fc 	.word	0x0800a5fc
 80039d8:	0800a604 	.word	0x0800a604
 80039dc:	0800a60c 	.word	0x0800a60c
 80039e0:	0800a610 	.word	0x0800a610
 80039e4:	0800a618 	.word	0x0800a618
		        }
		        hexstr_len++;
 80039e8:	697b      	ldr	r3, [r7, #20]
 80039ea:	3301      	adds	r3, #1
 80039ec:	617b      	str	r3, [r7, #20]
		    while (argv[3][hexstr_len] != '\0')
 80039ee:	683b      	ldr	r3, [r7, #0]
 80039f0:	f503 7240 	add.w	r2, r3, #768	@ 0x300
 80039f4:	697b      	ldr	r3, [r7, #20]
 80039f6:	4413      	add	r3, r2
 80039f8:	781b      	ldrb	r3, [r3, #0]
 80039fa:	2b00      	cmp	r3, #0
 80039fc:	d18f      	bne.n	800391e <handle_hexedit+0x1e6>
		if (argv[3][0] == '0' && (argv[3][1] == 'x' || argv[3][1] == 'X'))
 80039fe:	e006      	b.n	8003a0e <handle_hexedit+0x2d6>
		    }
		}

		else
		{
			data = atoi(argv[3]);
 8003a00:	683b      	ldr	r3, [r7, #0]
 8003a02:	f503 7340 	add.w	r3, r3, #768	@ 0x300
 8003a06:	4618      	mov	r0, r3
 8003a08:	f005 f998 	bl	8008d3c <atoi>
 8003a0c:	60f8      	str	r0, [r7, #12]
		}

		if (data > 0xFF || data < 0)
 8003a0e:	68fb      	ldr	r3, [r7, #12]
 8003a10:	2bff      	cmp	r3, #255	@ 0xff
 8003a12:	dc02      	bgt.n	8003a1a <handle_hexedit+0x2e2>
 8003a14:	68fb      	ldr	r3, [r7, #12]
 8003a16:	2b00      	cmp	r3, #0
 8003a18:	da03      	bge.n	8003a22 <handle_hexedit+0x2ea>
		{
			printf("Invalid data!");
 8003a1a:	4809      	ldr	r0, [pc, #36]	@ (8003a40 <handle_hexedit+0x308>)
 8003a1c:	f005 fb08 	bl	8009030 <iprintf>
			return;
 8003a20:	e00b      	b.n	8003a3a <handle_hexedit+0x302>
		}

		EEPROM_WriteByte((uint16_t)address, (uint8_t)data);
 8003a22:	693b      	ldr	r3, [r7, #16]
 8003a24:	b29b      	uxth	r3, r3
 8003a26:	68fa      	ldr	r2, [r7, #12]
 8003a28:	b2d2      	uxtb	r2, r2
 8003a2a:	4611      	mov	r1, r2
 8003a2c:	4618      	mov	r0, r3
 8003a2e:	f7fc fe43 	bl	80006b8 <EEPROM_WriteByte>
		printf("Data written!\r\n");
 8003a32:	4804      	ldr	r0, [pc, #16]	@ (8003a44 <handle_hexedit+0x30c>)
 8003a34:	f005 fb6c 	bl	8009110 <puts>
		return;
 8003a38:	bf00      	nop
	}

}
 8003a3a:	3720      	adds	r7, #32
 8003a3c:	46bd      	mov	sp, r7
 8003a3e:	bd80      	pop	{r7, pc}
 8003a40:	0800a62c 	.word	0x0800a62c
 8003a44:	0800a63c 	.word	0x0800a63c

08003a48 <get_int_input>:

int get_int_input(int max_value, int min_value, char* input_str)
{
 8003a48:	b580      	push	{r7, lr}
 8003a4a:	b086      	sub	sp, #24
 8003a4c:	af00      	add	r7, sp, #0
 8003a4e:	60f8      	str	r0, [r7, #12]
 8003a50:	60b9      	str	r1, [r7, #8]
 8003a52:	607a      	str	r2, [r7, #4]
  //
  accumulate_line(input_str);
 8003a54:	6878      	ldr	r0, [r7, #4]
 8003a56:	f7ff fd05 	bl	8003464 <accumulate_line>
  int temp_int = 0;
 8003a5a:	2300      	movs	r3, #0
 8003a5c:	617b      	str	r3, [r7, #20]
  char input_string_digits[2];
  input_string_digits[0] = 0;
 8003a5e:	2300      	movs	r3, #0
 8003a60:	743b      	strb	r3, [r7, #16]
  input_string_digits[1] = 0;
 8003a62:	2300      	movs	r3, #0
 8003a64:	747b      	strb	r3, [r7, #17]
  input_string_digits[0] = input_str[0];
 8003a66:	687b      	ldr	r3, [r7, #4]
 8003a68:	781b      	ldrb	r3, [r3, #0]
 8003a6a:	743b      	strb	r3, [r7, #16]
  input_string_digits[1] = input_str[1];
 8003a6c:	687b      	ldr	r3, [r7, #4]
 8003a6e:	785b      	ldrb	r3, [r3, #1]
 8003a70:	747b      	strb	r3, [r7, #17]
  temp_int = atoi(input_string_digits);
 8003a72:	f107 0310 	add.w	r3, r7, #16
 8003a76:	4618      	mov	r0, r3
 8003a78:	f005 f960 	bl	8008d3c <atoi>
 8003a7c:	6178      	str	r0, [r7, #20]
  if (temp_int > max_value || temp_int < min_value)
 8003a7e:	697a      	ldr	r2, [r7, #20]
 8003a80:	68fb      	ldr	r3, [r7, #12]
 8003a82:	429a      	cmp	r2, r3
 8003a84:	dc03      	bgt.n	8003a8e <get_int_input+0x46>
 8003a86:	697a      	ldr	r2, [r7, #20]
 8003a88:	68bb      	ldr	r3, [r7, #8]
 8003a8a:	429a      	cmp	r2, r3
 8003a8c:	da04      	bge.n	8003a98 <get_int_input+0x50>
  {
          printf("Invalid input, aborting character creation...\r\n");
 8003a8e:	4805      	ldr	r0, [pc, #20]	@ (8003aa4 <get_int_input+0x5c>)
 8003a90:	f005 fb3e 	bl	8009110 <puts>
          return -1000;
 8003a94:	4b04      	ldr	r3, [pc, #16]	@ (8003aa8 <get_int_input+0x60>)
 8003a96:	e000      	b.n	8003a9a <get_int_input+0x52>
  }
  return temp_int;
 8003a98:	697b      	ldr	r3, [r7, #20]
}
 8003a9a:	4618      	mov	r0, r3
 8003a9c:	3718      	adds	r7, #24
 8003a9e:	46bd      	mov	sp, r7
 8003aa0:	bd80      	pop	{r7, pc}
 8003aa2:	bf00      	nop
 8003aa4:	0800a64c 	.word	0x0800a64c
 8003aa8:	fffffc18 	.word	0xfffffc18

08003aac <handle_character>:

//this command allows users to create, read, update, list, and delete characters
void handle_character(int argc, char argv[][MAX_STR_LEN])
{
 8003aac:	b590      	push	{r4, r7, lr}
 8003aae:	f2ad 4d54 	subw	sp, sp, #1108	@ 0x454
 8003ab2:	af00      	add	r7, sp, #0
 8003ab4:	f507 638a 	add.w	r3, r7, #1104	@ 0x450
 8003ab8:	f5a3 735d 	sub.w	r3, r3, #884	@ 0x374
 8003abc:	6018      	str	r0, [r3, #0]
 8003abe:	f507 638a 	add.w	r3, r7, #1104	@ 0x450
 8003ac2:	f5a3 735e 	sub.w	r3, r3, #888	@ 0x378
 8003ac6:	6019      	str	r1, [r3, #0]
	char input_string[MAX_STR_LEN];
	uint8_t character_data[0x100];
	int data_index = 0;
 8003ac8:	2300      	movs	r3, #0
 8003aca:	f8c7 344c 	str.w	r3, [r7, #1100]	@ 0x44c
	int data_int = 0;
 8003ace:	2300      	movs	r3, #0
 8003ad0:	f8c7 3448 	str.w	r3, [r7, #1096]	@ 0x448

	if (argc == 1)
 8003ad4:	f507 638a 	add.w	r3, r7, #1104	@ 0x450
 8003ad8:	f5a3 735d 	sub.w	r3, r3, #884	@ 0x374
 8003adc:	681b      	ldr	r3, [r3, #0]
 8003ade:	2b01      	cmp	r3, #1
 8003ae0:	d10d      	bne.n	8003afe <handle_character+0x52>
	{
		unknown_command(argc, argv);
 8003ae2:	f507 638a 	add.w	r3, r7, #1104	@ 0x450
 8003ae6:	f5a3 725e 	sub.w	r2, r3, #888	@ 0x378
 8003aea:	f507 638a 	add.w	r3, r7, #1104	@ 0x450
 8003aee:	f5a3 735d 	sub.w	r3, r3, #884	@ 0x374
 8003af2:	6811      	ldr	r1, [r2, #0]
 8003af4:	6818      	ldr	r0, [r3, #0]
 8003af6:	f7ff fd13 	bl	8003520 <unknown_command>
		return;
 8003afa:	f002 ba18 	b.w	8005f2e <handle_character+0x2482>
	}

	if (argc > 3)
 8003afe:	f507 638a 	add.w	r3, r7, #1104	@ 0x450
 8003b02:	f5a3 735d 	sub.w	r3, r3, #884	@ 0x374
 8003b06:	681b      	ldr	r3, [r3, #0]
 8003b08:	2b03      	cmp	r3, #3
 8003b0a:	dd0d      	ble.n	8003b28 <handle_character+0x7c>
	{
		unknown_command(argc, argv);
 8003b0c:	f507 638a 	add.w	r3, r7, #1104	@ 0x450
 8003b10:	f5a3 725e 	sub.w	r2, r3, #888	@ 0x378
 8003b14:	f507 638a 	add.w	r3, r7, #1104	@ 0x450
 8003b18:	f5a3 735d 	sub.w	r3, r3, #884	@ 0x374
 8003b1c:	6811      	ldr	r1, [r2, #0]
 8003b1e:	6818      	ldr	r0, [r3, #0]
 8003b20:	f7ff fcfe 	bl	8003520 <unknown_command>
		return;
 8003b24:	f002 ba03 	b.w	8005f2e <handle_character+0x2482>
	}

	if (strcasecmp(argv[1], "CREATE") == 0 || strcasecmp(argv[1], "UPDATE") == 0)
 8003b28:	f507 638a 	add.w	r3, r7, #1104	@ 0x450
 8003b2c:	f5a3 735e 	sub.w	r3, r3, #888	@ 0x378
 8003b30:	681b      	ldr	r3, [r3, #0]
 8003b32:	f503 7380 	add.w	r3, r3, #256	@ 0x100
 8003b36:	4960      	ldr	r1, [pc, #384]	@ (8003cb8 <handle_character+0x20c>)
 8003b38:	4618      	mov	r0, r3
 8003b3a:	f005 fc0b 	bl	8009354 <strcasecmp>
 8003b3e:	4603      	mov	r3, r0
 8003b40:	2b00      	cmp	r3, #0
 8003b42:	d00e      	beq.n	8003b62 <handle_character+0xb6>
 8003b44:	f507 638a 	add.w	r3, r7, #1104	@ 0x450
 8003b48:	f5a3 735e 	sub.w	r3, r3, #888	@ 0x378
 8003b4c:	681b      	ldr	r3, [r3, #0]
 8003b4e:	f503 7380 	add.w	r3, r3, #256	@ 0x100
 8003b52:	495a      	ldr	r1, [pc, #360]	@ (8003cbc <handle_character+0x210>)
 8003b54:	4618      	mov	r0, r3
 8003b56:	f005 fbfd 	bl	8009354 <strcasecmp>
 8003b5a:	4603      	mov	r3, r0
 8003b5c:	2b00      	cmp	r3, #0
 8003b5e:	f041 8545 	bne.w	80055ec <handle_character+0x1b40>
	{
		if (argc > 3 && strcasecmp(argv[1], "UPDATE") == 0)
 8003b62:	f507 638a 	add.w	r3, r7, #1104	@ 0x450
 8003b66:	f5a3 735d 	sub.w	r3, r3, #884	@ 0x374
 8003b6a:	681b      	ldr	r3, [r3, #0]
 8003b6c:	2b03      	cmp	r3, #3
 8003b6e:	dd1b      	ble.n	8003ba8 <handle_character+0xfc>
 8003b70:	f507 638a 	add.w	r3, r7, #1104	@ 0x450
 8003b74:	f5a3 735e 	sub.w	r3, r3, #888	@ 0x378
 8003b78:	681b      	ldr	r3, [r3, #0]
 8003b7a:	f503 7380 	add.w	r3, r3, #256	@ 0x100
 8003b7e:	494f      	ldr	r1, [pc, #316]	@ (8003cbc <handle_character+0x210>)
 8003b80:	4618      	mov	r0, r3
 8003b82:	f005 fbe7 	bl	8009354 <strcasecmp>
 8003b86:	4603      	mov	r3, r0
 8003b88:	2b00      	cmp	r3, #0
 8003b8a:	d10d      	bne.n	8003ba8 <handle_character+0xfc>
		{
			unknown_command(argc, argv);
 8003b8c:	f507 638a 	add.w	r3, r7, #1104	@ 0x450
 8003b90:	f5a3 725e 	sub.w	r2, r3, #888	@ 0x378
 8003b94:	f507 638a 	add.w	r3, r7, #1104	@ 0x450
 8003b98:	f5a3 735d 	sub.w	r3, r3, #884	@ 0x374
 8003b9c:	6811      	ldr	r1, [r2, #0]
 8003b9e:	6818      	ldr	r0, [r3, #0]
 8003ba0:	f7ff fcbe 	bl	8003520 <unknown_command>
			return;
 8003ba4:	f002 b9c3 	b.w	8005f2e <handle_character+0x2482>
		}

		if (argc > 2)
 8003ba8:	f507 638a 	add.w	r3, r7, #1104	@ 0x450
 8003bac:	f5a3 735d 	sub.w	r3, r3, #884	@ 0x374
 8003bb0:	681b      	ldr	r3, [r3, #0]
 8003bb2:	2b02      	cmp	r3, #2
 8003bb4:	dd0d      	ble.n	8003bd2 <handle_character+0x126>
		{
			unknown_command(argc, argv);
 8003bb6:	f507 638a 	add.w	r3, r7, #1104	@ 0x450
 8003bba:	f5a3 725e 	sub.w	r2, r3, #888	@ 0x378
 8003bbe:	f507 638a 	add.w	r3, r7, #1104	@ 0x450
 8003bc2:	f5a3 735d 	sub.w	r3, r3, #884	@ 0x374
 8003bc6:	6811      	ldr	r1, [r2, #0]
 8003bc8:	6818      	ldr	r0, [r3, #0]
 8003bca:	f7ff fca9 	bl	8003520 <unknown_command>
			return;
 8003bce:	f002 b9ae 	b.w	8005f2e <handle_character+0x2482>
		}

		int character_num = 0;
 8003bd2:	2300      	movs	r3, #0
 8003bd4:	f8c7 3444 	str.w	r3, [r7, #1092]	@ 0x444

		if (strcasecmp(argv[1], "UPDATE") == 0)
 8003bd8:	f507 638a 	add.w	r3, r7, #1104	@ 0x450
 8003bdc:	f5a3 735e 	sub.w	r3, r3, #888	@ 0x378
 8003be0:	681b      	ldr	r3, [r3, #0]
 8003be2:	f503 7380 	add.w	r3, r3, #256	@ 0x100
 8003be6:	4935      	ldr	r1, [pc, #212]	@ (8003cbc <handle_character+0x210>)
 8003be8:	4618      	mov	r0, r3
 8003bea:	f005 fbb3 	bl	8009354 <strcasecmp>
 8003bee:	4603      	mov	r3, r0
 8003bf0:	2b00      	cmp	r3, #0
 8003bf2:	d12d      	bne.n	8003c50 <handle_character+0x1a4>
		{
			character_num = atoi(argv[2]);
 8003bf4:	f507 638a 	add.w	r3, r7, #1104	@ 0x450
 8003bf8:	f5a3 735e 	sub.w	r3, r3, #888	@ 0x378
 8003bfc:	681b      	ldr	r3, [r3, #0]
 8003bfe:	f503 7300 	add.w	r3, r3, #512	@ 0x200
 8003c02:	4618      	mov	r0, r3
 8003c04:	f005 f89a 	bl	8008d3c <atoi>
 8003c08:	f8c7 0444 	str.w	r0, [r7, #1092]	@ 0x444
			if (character_num > 6 || character_num < 1)
 8003c0c:	f8d7 3444 	ldr.w	r3, [r7, #1092]	@ 0x444
 8003c10:	2b06      	cmp	r3, #6
 8003c12:	dc03      	bgt.n	8003c1c <handle_character+0x170>
 8003c14:	f8d7 3444 	ldr.w	r3, [r7, #1092]	@ 0x444
 8003c18:	2b00      	cmp	r3, #0
 8003c1a:	dc04      	bgt.n	8003c26 <handle_character+0x17a>
			{
					printf("Invalid input!\r\n");
 8003c1c:	4828      	ldr	r0, [pc, #160]	@ (8003cc0 <handle_character+0x214>)
 8003c1e:	f005 fa77 	bl	8009110 <puts>
					return;
 8003c22:	f002 b984 	b.w	8005f2e <handle_character+0x2482>
			}
			character_t c = get_character(character_num);
 8003c26:	f507 638a 	add.w	r3, r7, #1104	@ 0x450
 8003c2a:	f5a3 734b 	sub.w	r3, r3, #812	@ 0x32c
 8003c2e:	f8d7 1444 	ldr.w	r1, [r7, #1092]	@ 0x444
 8003c32:	4618      	mov	r0, r3
 8003c34:	f002 fa7e 	bl	8006134 <get_character>
			if (c.name[0] == 0)
 8003c38:	f507 638a 	add.w	r3, r7, #1104	@ 0x450
 8003c3c:	f5a3 734b 	sub.w	r3, r3, #812	@ 0x32c
 8003c40:	781b      	ldrb	r3, [r3, #0]
 8003c42:	2b00      	cmp	r3, #0
 8003c44:	d12f      	bne.n	8003ca6 <handle_character+0x1fa>
			{
				printf("A character does not exist in this slot!\r\n");
 8003c46:	481f      	ldr	r0, [pc, #124]	@ (8003cc4 <handle_character+0x218>)
 8003c48:	f005 fa62 	bl	8009110 <puts>
				return;
 8003c4c:	f002 b96f 	b.w	8005f2e <handle_character+0x2482>
			}
		}

		else
		{
			for (int i = 1; i < 7; i++)
 8003c50:	2301      	movs	r3, #1
 8003c52:	f8c7 3440 	str.w	r3, [r7, #1088]	@ 0x440
 8003c56:	e019      	b.n	8003c8c <handle_character+0x1e0>
			{
				character_t c = get_character(i);
 8003c58:	f507 638a 	add.w	r3, r7, #1104	@ 0x450
 8003c5c:	f5a3 734b 	sub.w	r3, r3, #812	@ 0x32c
 8003c60:	f8d7 1440 	ldr.w	r1, [r7, #1088]	@ 0x440
 8003c64:	4618      	mov	r0, r3
 8003c66:	f002 fa65 	bl	8006134 <get_character>
				if (c.name[0] == 0)
 8003c6a:	f507 638a 	add.w	r3, r7, #1104	@ 0x450
 8003c6e:	f5a3 734b 	sub.w	r3, r3, #812	@ 0x32c
 8003c72:	781b      	ldrb	r3, [r3, #0]
 8003c74:	2b00      	cmp	r3, #0
 8003c76:	d104      	bne.n	8003c82 <handle_character+0x1d6>
				{
					character_num = i;
 8003c78:	f8d7 3440 	ldr.w	r3, [r7, #1088]	@ 0x440
 8003c7c:	f8c7 3444 	str.w	r3, [r7, #1092]	@ 0x444
 8003c80:	e008      	b.n	8003c94 <handle_character+0x1e8>
			for (int i = 1; i < 7; i++)
 8003c82:	f8d7 3440 	ldr.w	r3, [r7, #1088]	@ 0x440
 8003c86:	3301      	adds	r3, #1
 8003c88:	f8c7 3440 	str.w	r3, [r7, #1088]	@ 0x440
 8003c8c:	f8d7 3440 	ldr.w	r3, [r7, #1088]	@ 0x440
 8003c90:	2b06      	cmp	r3, #6
 8003c92:	dde1      	ble.n	8003c58 <handle_character+0x1ac>
					break;
				}
			}

			if (character_num == 0)
 8003c94:	f8d7 3444 	ldr.w	r3, [r7, #1092]	@ 0x444
 8003c98:	2b00      	cmp	r3, #0
 8003c9a:	d104      	bne.n	8003ca6 <handle_character+0x1fa>
			{
				printf("There are no free character slots remaining! Delete a character or clear all characters in order to create a new one.\r\n");
 8003c9c:	480a      	ldr	r0, [pc, #40]	@ (8003cc8 <handle_character+0x21c>)
 8003c9e:	f005 fa37 	bl	8009110 <puts>
				return;
 8003ca2:	f002 b944 	b.w	8005f2e <handle_character+0x2482>
			}
		}

		printf("Enter character name (up to 64 characters): ");
 8003ca6:	4809      	ldr	r0, [pc, #36]	@ (8003ccc <handle_character+0x220>)
 8003ca8:	f005 f9c2 	bl	8009030 <iprintf>
		accumulate_line(input_string);
 8003cac:	f507 733e 	add.w	r3, r7, #760	@ 0x2f8
 8003cb0:	4618      	mov	r0, r3
 8003cb2:	f7ff fbd7 	bl	8003464 <accumulate_line>

		while (data_index < 64)
 8003cb6:	e021      	b.n	8003cfc <handle_character+0x250>
 8003cb8:	0800a67c 	.word	0x0800a67c
 8003cbc:	0800a684 	.word	0x0800a684
 8003cc0:	0800a68c 	.word	0x0800a68c
 8003cc4:	0800a69c 	.word	0x0800a69c
 8003cc8:	0800a6c8 	.word	0x0800a6c8
 8003ccc:	0800a740 	.word	0x0800a740
		{
			character_data[data_index] = (uint8_t)input_string[data_index];
 8003cd0:	f507 638a 	add.w	r3, r7, #1104	@ 0x450
 8003cd4:	f5a3 72ac 	sub.w	r2, r3, #344	@ 0x158
 8003cd8:	f8d7 344c 	ldr.w	r3, [r7, #1100]	@ 0x44c
 8003cdc:	4413      	add	r3, r2
 8003cde:	7819      	ldrb	r1, [r3, #0]
 8003ce0:	f507 638a 	add.w	r3, r7, #1104	@ 0x450
 8003ce4:	f5a3 7216 	sub.w	r2, r3, #600	@ 0x258
 8003ce8:	f8d7 344c 	ldr.w	r3, [r7, #1100]	@ 0x44c
 8003cec:	4413      	add	r3, r2
 8003cee:	460a      	mov	r2, r1
 8003cf0:	701a      	strb	r2, [r3, #0]
			data_index++;
 8003cf2:	f8d7 344c 	ldr.w	r3, [r7, #1100]	@ 0x44c
 8003cf6:	3301      	adds	r3, #1
 8003cf8:	f8c7 344c 	str.w	r3, [r7, #1100]	@ 0x44c
		while (data_index < 64)
 8003cfc:	f8d7 344c 	ldr.w	r3, [r7, #1100]	@ 0x44c
 8003d00:	2b3f      	cmp	r3, #63	@ 0x3f
 8003d02:	dde5      	ble.n	8003cd0 <handle_character+0x224>
		}

		printf("\r\nSpecies:\r\n");
 8003d04:	48c5      	ldr	r0, [pc, #788]	@ (800401c <handle_character+0x570>)
 8003d06:	f005 fa03 	bl	8009110 <puts>
		printf("1 - Aasimar\r\n");
 8003d0a:	48c5      	ldr	r0, [pc, #788]	@ (8004020 <handle_character+0x574>)
 8003d0c:	f005 fa00 	bl	8009110 <puts>
		printf("2 - Dragonborn\r\n");
 8003d10:	48c4      	ldr	r0, [pc, #784]	@ (8004024 <handle_character+0x578>)
 8003d12:	f005 f9fd 	bl	8009110 <puts>
		printf("3 - Dwarf\r\n");
 8003d16:	48c4      	ldr	r0, [pc, #784]	@ (8004028 <handle_character+0x57c>)
 8003d18:	f005 f9fa 	bl	8009110 <puts>
		printf("4 - Elf\r\n");
 8003d1c:	48c3      	ldr	r0, [pc, #780]	@ (800402c <handle_character+0x580>)
 8003d1e:	f005 f9f7 	bl	8009110 <puts>
		printf("5 - Gnome\r\n");
 8003d22:	48c3      	ldr	r0, [pc, #780]	@ (8004030 <handle_character+0x584>)
 8003d24:	f005 f9f4 	bl	8009110 <puts>
		printf("6 - Goliath\r\n");
 8003d28:	48c2      	ldr	r0, [pc, #776]	@ (8004034 <handle_character+0x588>)
 8003d2a:	f005 f9f1 	bl	8009110 <puts>
		printf("7 - Halfling\r\n");
 8003d2e:	48c2      	ldr	r0, [pc, #776]	@ (8004038 <handle_character+0x58c>)
 8003d30:	f005 f9ee 	bl	8009110 <puts>
		printf("8 - Human\r\n");
 8003d34:	48c1      	ldr	r0, [pc, #772]	@ (800403c <handle_character+0x590>)
 8003d36:	f005 f9eb 	bl	8009110 <puts>
		printf("9 - Orc\r\n");
 8003d3a:	48c1      	ldr	r0, [pc, #772]	@ (8004040 <handle_character+0x594>)
 8003d3c:	f005 f9e8 	bl	8009110 <puts>
		printf("10 - Tiefling\r\n");
 8003d40:	48c0      	ldr	r0, [pc, #768]	@ (8004044 <handle_character+0x598>)
 8003d42:	f005 f9e5 	bl	8009110 <puts>
		printf("Enter a number representing character species: ");
 8003d46:	48c0      	ldr	r0, [pc, #768]	@ (8004048 <handle_character+0x59c>)
 8003d48:	f005 f972 	bl	8009030 <iprintf>
		data_int = get_int_input(10, 1, input_string);
 8003d4c:	f507 733e 	add.w	r3, r7, #760	@ 0x2f8
 8003d50:	461a      	mov	r2, r3
 8003d52:	2101      	movs	r1, #1
 8003d54:	200a      	movs	r0, #10
 8003d56:	f7ff fe77 	bl	8003a48 <get_int_input>
 8003d5a:	f8c7 0448 	str.w	r0, [r7, #1096]	@ 0x448
		if (data_int == -1000)
 8003d5e:	f8d7 3448 	ldr.w	r3, [r7, #1096]	@ 0x448
 8003d62:	f513 7f7a 	cmn.w	r3, #1000	@ 0x3e8
 8003d66:	f002 803a 	beq.w	8005dde <handle_character+0x2332>
		{
		    return;
		}
		character_data[data_index] = (uint8_t)data_int;
 8003d6a:	f8d7 3448 	ldr.w	r3, [r7, #1096]	@ 0x448
 8003d6e:	b2d9      	uxtb	r1, r3
 8003d70:	f507 638a 	add.w	r3, r7, #1104	@ 0x450
 8003d74:	f5a3 7216 	sub.w	r2, r3, #600	@ 0x258
 8003d78:	f8d7 344c 	ldr.w	r3, [r7, #1100]	@ 0x44c
 8003d7c:	4413      	add	r3, r2
 8003d7e:	460a      	mov	r2, r1
 8003d80:	701a      	strb	r2, [r3, #0]
		data_index++;
 8003d82:	f8d7 344c 	ldr.w	r3, [r7, #1100]	@ 0x44c
 8003d86:	3301      	adds	r3, #1
 8003d88:	f8c7 344c 	str.w	r3, [r7, #1100]	@ 0x44c
		
		printf("\r\nClass:\r\n");
 8003d8c:	48af      	ldr	r0, [pc, #700]	@ (800404c <handle_character+0x5a0>)
 8003d8e:	f005 f9bf 	bl	8009110 <puts>
		printf("1 - Barbarian\r\n");
 8003d92:	48af      	ldr	r0, [pc, #700]	@ (8004050 <handle_character+0x5a4>)
 8003d94:	f005 f9bc 	bl	8009110 <puts>
		printf("2 - Bard\r\n");
 8003d98:	48ae      	ldr	r0, [pc, #696]	@ (8004054 <handle_character+0x5a8>)
 8003d9a:	f005 f9b9 	bl	8009110 <puts>
		printf("3 - Cleric\r\n");
 8003d9e:	48ae      	ldr	r0, [pc, #696]	@ (8004058 <handle_character+0x5ac>)
 8003da0:	f005 f9b6 	bl	8009110 <puts>
		printf("4 - Druid\r\n");
 8003da4:	48ad      	ldr	r0, [pc, #692]	@ (800405c <handle_character+0x5b0>)
 8003da6:	f005 f9b3 	bl	8009110 <puts>
		printf("5 - Fighter\r\n");
 8003daa:	48ad      	ldr	r0, [pc, #692]	@ (8004060 <handle_character+0x5b4>)
 8003dac:	f005 f9b0 	bl	8009110 <puts>
		printf("6 - Monk\r\n");
 8003db0:	48ac      	ldr	r0, [pc, #688]	@ (8004064 <handle_character+0x5b8>)
 8003db2:	f005 f9ad 	bl	8009110 <puts>
		printf("7 - Paladin\r\n");
 8003db6:	48ac      	ldr	r0, [pc, #688]	@ (8004068 <handle_character+0x5bc>)
 8003db8:	f005 f9aa 	bl	8009110 <puts>
		printf("8 - Ranger\r\n");
 8003dbc:	48ab      	ldr	r0, [pc, #684]	@ (800406c <handle_character+0x5c0>)
 8003dbe:	f005 f9a7 	bl	8009110 <puts>
		printf("9 - Rogue\r\n");
 8003dc2:	48ab      	ldr	r0, [pc, #684]	@ (8004070 <handle_character+0x5c4>)
 8003dc4:	f005 f9a4 	bl	8009110 <puts>
		printf("10 - Sorcerer\r\n");
 8003dc8:	48aa      	ldr	r0, [pc, #680]	@ (8004074 <handle_character+0x5c8>)
 8003dca:	f005 f9a1 	bl	8009110 <puts>
		printf("11 - Warlock\r\n");
 8003dce:	48aa      	ldr	r0, [pc, #680]	@ (8004078 <handle_character+0x5cc>)
 8003dd0:	f005 f99e 	bl	8009110 <puts>
		printf("12 - Wizard\r\n");
 8003dd4:	48a9      	ldr	r0, [pc, #676]	@ (800407c <handle_character+0x5d0>)
 8003dd6:	f005 f99b 	bl	8009110 <puts>
		printf("Enter a number representing character class: ");
 8003dda:	48a9      	ldr	r0, [pc, #676]	@ (8004080 <handle_character+0x5d4>)
 8003ddc:	f005 f928 	bl	8009030 <iprintf>
		data_int = get_int_input(12, 1, input_string);
 8003de0:	f507 733e 	add.w	r3, r7, #760	@ 0x2f8
 8003de4:	461a      	mov	r2, r3
 8003de6:	2101      	movs	r1, #1
 8003de8:	200c      	movs	r0, #12
 8003dea:	f7ff fe2d 	bl	8003a48 <get_int_input>
 8003dee:	f8c7 0448 	str.w	r0, [r7, #1096]	@ 0x448
		if (data_int == -1000)
 8003df2:	f8d7 3448 	ldr.w	r3, [r7, #1096]	@ 0x448
 8003df6:	f513 7f7a 	cmn.w	r3, #1000	@ 0x3e8
 8003dfa:	f001 87f2 	beq.w	8005de2 <handle_character+0x2336>
		{
		    return;
		}
		character_data[data_index] = (uint8_t)data_int;
 8003dfe:	f8d7 3448 	ldr.w	r3, [r7, #1096]	@ 0x448
 8003e02:	b2d9      	uxtb	r1, r3
 8003e04:	f507 638a 	add.w	r3, r7, #1104	@ 0x450
 8003e08:	f5a3 7216 	sub.w	r2, r3, #600	@ 0x258
 8003e0c:	f8d7 344c 	ldr.w	r3, [r7, #1100]	@ 0x44c
 8003e10:	4413      	add	r3, r2
 8003e12:	460a      	mov	r2, r1
 8003e14:	701a      	strb	r2, [r3, #0]
		data_index++;
 8003e16:	f8d7 344c 	ldr.w	r3, [r7, #1100]	@ 0x44c
 8003e1a:	3301      	adds	r3, #1
 8003e1c:	f8c7 344c 	str.w	r3, [r7, #1100]	@ 0x44c
		
		printf("Enter a number representing class level: ");
 8003e20:	4898      	ldr	r0, [pc, #608]	@ (8004084 <handle_character+0x5d8>)
 8003e22:	f005 f905 	bl	8009030 <iprintf>
		data_int = get_int_input(20, 1, input_string);
 8003e26:	f507 733e 	add.w	r3, r7, #760	@ 0x2f8
 8003e2a:	461a      	mov	r2, r3
 8003e2c:	2101      	movs	r1, #1
 8003e2e:	2014      	movs	r0, #20
 8003e30:	f7ff fe0a 	bl	8003a48 <get_int_input>
 8003e34:	f8c7 0448 	str.w	r0, [r7, #1096]	@ 0x448
		if (data_int == -1000)
 8003e38:	f8d7 3448 	ldr.w	r3, [r7, #1096]	@ 0x448
 8003e3c:	f513 7f7a 	cmn.w	r3, #1000	@ 0x3e8
 8003e40:	f001 87d1 	beq.w	8005de6 <handle_character+0x233a>
		{
		    return;
		}
		character_data[data_index] = (uint8_t)data_int;
 8003e44:	f8d7 3448 	ldr.w	r3, [r7, #1096]	@ 0x448
 8003e48:	b2d9      	uxtb	r1, r3
 8003e4a:	f507 638a 	add.w	r3, r7, #1104	@ 0x450
 8003e4e:	f5a3 7216 	sub.w	r2, r3, #600	@ 0x258
 8003e52:	f8d7 344c 	ldr.w	r3, [r7, #1100]	@ 0x44c
 8003e56:	4413      	add	r3, r2
 8003e58:	460a      	mov	r2, r1
 8003e5a:	701a      	strb	r2, [r3, #0]
		data_index++;
 8003e5c:	f8d7 344c 	ldr.w	r3, [r7, #1100]	@ 0x44c
 8003e60:	3301      	adds	r3, #1
 8003e62:	f8c7 344c 	str.w	r3, [r7, #1100]	@ 0x44c
		
		printf("Enter a number representing character secondary class, or enter 0 if not applicable: ");
 8003e66:	4888      	ldr	r0, [pc, #544]	@ (8004088 <handle_character+0x5dc>)
 8003e68:	f005 f8e2 	bl	8009030 <iprintf>
		data_int = get_int_input(12, 0, input_string);
 8003e6c:	f507 733e 	add.w	r3, r7, #760	@ 0x2f8
 8003e70:	461a      	mov	r2, r3
 8003e72:	2100      	movs	r1, #0
 8003e74:	200c      	movs	r0, #12
 8003e76:	f7ff fde7 	bl	8003a48 <get_int_input>
 8003e7a:	f8c7 0448 	str.w	r0, [r7, #1096]	@ 0x448
		if (data_int == -1000)
 8003e7e:	f8d7 3448 	ldr.w	r3, [r7, #1096]	@ 0x448
 8003e82:	f513 7f7a 	cmn.w	r3, #1000	@ 0x3e8
 8003e86:	f001 87b0 	beq.w	8005dea <handle_character+0x233e>
		{
		    return;
		}
		character_data[data_index] = (uint8_t)data_int;
 8003e8a:	f8d7 3448 	ldr.w	r3, [r7, #1096]	@ 0x448
 8003e8e:	b2d9      	uxtb	r1, r3
 8003e90:	f507 638a 	add.w	r3, r7, #1104	@ 0x450
 8003e94:	f5a3 7216 	sub.w	r2, r3, #600	@ 0x258
 8003e98:	f8d7 344c 	ldr.w	r3, [r7, #1100]	@ 0x44c
 8003e9c:	4413      	add	r3, r2
 8003e9e:	460a      	mov	r2, r1
 8003ea0:	701a      	strb	r2, [r3, #0]
		data_index++;
 8003ea2:	f8d7 344c 	ldr.w	r3, [r7, #1100]	@ 0x44c
 8003ea6:	3301      	adds	r3, #1
 8003ea8:	f8c7 344c 	str.w	r3, [r7, #1100]	@ 0x44c
		if (data_int == 0)
 8003eac:	f8d7 3448 	ldr.w	r3, [r7, #1096]	@ 0x448
 8003eb0:	2b00      	cmp	r3, #0
 8003eb2:	d124      	bne.n	8003efe <handle_character+0x452>
		{
		        character_data[data_index++] = 0;
 8003eb4:	f8d7 344c 	ldr.w	r3, [r7, #1100]	@ 0x44c
 8003eb8:	1c5a      	adds	r2, r3, #1
 8003eba:	f8c7 244c 	str.w	r2, [r7, #1100]	@ 0x44c
 8003ebe:	f507 628a 	add.w	r2, r7, #1104	@ 0x450
 8003ec2:	f5a2 7216 	sub.w	r2, r2, #600	@ 0x258
 8003ec6:	2100      	movs	r1, #0
 8003ec8:	54d1      	strb	r1, [r2, r3]
		        character_data[data_index++] = 0;
 8003eca:	f8d7 344c 	ldr.w	r3, [r7, #1100]	@ 0x44c
 8003ece:	1c5a      	adds	r2, r3, #1
 8003ed0:	f8c7 244c 	str.w	r2, [r7, #1100]	@ 0x44c
 8003ed4:	f507 628a 	add.w	r2, r7, #1104	@ 0x450
 8003ed8:	f5a2 7216 	sub.w	r2, r2, #600	@ 0x258
 8003edc:	2100      	movs	r1, #0
 8003ede:	54d1      	strb	r1, [r2, r3]
		        character_data[data_index++] = 0;
 8003ee0:	f8d7 344c 	ldr.w	r3, [r7, #1100]	@ 0x44c
 8003ee4:	1c5a      	adds	r2, r3, #1
 8003ee6:	f8c7 244c 	str.w	r2, [r7, #1100]	@ 0x44c
 8003eea:	f507 628a 	add.w	r2, r7, #1104	@ 0x450
 8003eee:	f5a2 7216 	sub.w	r2, r2, #600	@ 0x258
 8003ef2:	2100      	movs	r1, #0
 8003ef4:	54d1      	strb	r1, [r2, r3]
		        data_int = 1;
 8003ef6:	2301      	movs	r3, #1
 8003ef8:	f8c7 3448 	str.w	r3, [r7, #1096]	@ 0x448
 8003efc:	e07b      	b.n	8003ff6 <handle_character+0x54a>
		}
		else
		{
		        printf("Enter a number representing secondary class level: ");
 8003efe:	4863      	ldr	r0, [pc, #396]	@ (800408c <handle_character+0x5e0>)
 8003f00:	f005 f896 	bl	8009030 <iprintf>
		        data_int = get_int_input(20, 1, input_string);
 8003f04:	f507 733e 	add.w	r3, r7, #760	@ 0x2f8
 8003f08:	461a      	mov	r2, r3
 8003f0a:	2101      	movs	r1, #1
 8003f0c:	2014      	movs	r0, #20
 8003f0e:	f7ff fd9b 	bl	8003a48 <get_int_input>
 8003f12:	f8c7 0448 	str.w	r0, [r7, #1096]	@ 0x448
		        if (data_int == -1000)
 8003f16:	f8d7 3448 	ldr.w	r3, [r7, #1096]	@ 0x448
 8003f1a:	f513 7f7a 	cmn.w	r3, #1000	@ 0x3e8
 8003f1e:	f001 8766 	beq.w	8005dee <handle_character+0x2342>
		        {
		            return;
		        }
		        character_data[data_index] = (uint8_t)data_int;
 8003f22:	f8d7 3448 	ldr.w	r3, [r7, #1096]	@ 0x448
 8003f26:	b2d9      	uxtb	r1, r3
 8003f28:	f507 638a 	add.w	r3, r7, #1104	@ 0x450
 8003f2c:	f5a3 7216 	sub.w	r2, r3, #600	@ 0x258
 8003f30:	f8d7 344c 	ldr.w	r3, [r7, #1100]	@ 0x44c
 8003f34:	4413      	add	r3, r2
 8003f36:	460a      	mov	r2, r1
 8003f38:	701a      	strb	r2, [r3, #0]
		        data_index++;
 8003f3a:	f8d7 344c 	ldr.w	r3, [r7, #1100]	@ 0x44c
 8003f3e:	3301      	adds	r3, #1
 8003f40:	f8c7 344c 	str.w	r3, [r7, #1100]	@ 0x44c
		        
		        printf("Enter a number representing character tertiary class, or enter 0 if not applicable: ");
 8003f44:	4852      	ldr	r0, [pc, #328]	@ (8004090 <handle_character+0x5e4>)
 8003f46:	f005 f873 	bl	8009030 <iprintf>
		        data_int = get_int_input(12, 0, input_string);
 8003f4a:	f507 733e 	add.w	r3, r7, #760	@ 0x2f8
 8003f4e:	461a      	mov	r2, r3
 8003f50:	2100      	movs	r1, #0
 8003f52:	200c      	movs	r0, #12
 8003f54:	f7ff fd78 	bl	8003a48 <get_int_input>
 8003f58:	f8c7 0448 	str.w	r0, [r7, #1096]	@ 0x448
		        if (data_int == -1000)
 8003f5c:	f8d7 3448 	ldr.w	r3, [r7, #1096]	@ 0x448
 8003f60:	f513 7f7a 	cmn.w	r3, #1000	@ 0x3e8
 8003f64:	f001 8745 	beq.w	8005df2 <handle_character+0x2346>
		        {
		            return;
		        }
		        character_data[data_index] = (uint8_t)data_int;
 8003f68:	f8d7 3448 	ldr.w	r3, [r7, #1096]	@ 0x448
 8003f6c:	b2d9      	uxtb	r1, r3
 8003f6e:	f507 638a 	add.w	r3, r7, #1104	@ 0x450
 8003f72:	f5a3 7216 	sub.w	r2, r3, #600	@ 0x258
 8003f76:	f8d7 344c 	ldr.w	r3, [r7, #1100]	@ 0x44c
 8003f7a:	4413      	add	r3, r2
 8003f7c:	460a      	mov	r2, r1
 8003f7e:	701a      	strb	r2, [r3, #0]
		        data_index++;
 8003f80:	f8d7 344c 	ldr.w	r3, [r7, #1100]	@ 0x44c
 8003f84:	3301      	adds	r3, #1
 8003f86:	f8c7 344c 	str.w	r3, [r7, #1100]	@ 0x44c
		    
		        if (data_int == 0)
 8003f8a:	f8d7 3448 	ldr.w	r3, [r7, #1096]	@ 0x448
 8003f8e:	2b00      	cmp	r3, #0
 8003f90:	d10e      	bne.n	8003fb0 <handle_character+0x504>
		        {
		                character_data[data_index++] = 0;
 8003f92:	f8d7 344c 	ldr.w	r3, [r7, #1100]	@ 0x44c
 8003f96:	1c5a      	adds	r2, r3, #1
 8003f98:	f8c7 244c 	str.w	r2, [r7, #1100]	@ 0x44c
 8003f9c:	f507 628a 	add.w	r2, r7, #1104	@ 0x450
 8003fa0:	f5a2 7216 	sub.w	r2, r2, #600	@ 0x258
 8003fa4:	2100      	movs	r1, #0
 8003fa6:	54d1      	strb	r1, [r2, r3]
		                data_int = 1;
 8003fa8:	2301      	movs	r3, #1
 8003faa:	f8c7 3448 	str.w	r3, [r7, #1096]	@ 0x448
 8003fae:	e022      	b.n	8003ff6 <handle_character+0x54a>
		        }
		        else
		        {

		                printf("Enter a number representing tertiary class level: ");
 8003fb0:	4838      	ldr	r0, [pc, #224]	@ (8004094 <handle_character+0x5e8>)
 8003fb2:	f005 f83d 	bl	8009030 <iprintf>
		                data_int = get_int_input(20, 1, input_string);
 8003fb6:	f507 733e 	add.w	r3, r7, #760	@ 0x2f8
 8003fba:	461a      	mov	r2, r3
 8003fbc:	2101      	movs	r1, #1
 8003fbe:	2014      	movs	r0, #20
 8003fc0:	f7ff fd42 	bl	8003a48 <get_int_input>
 8003fc4:	f8c7 0448 	str.w	r0, [r7, #1096]	@ 0x448
		                if (data_int == -1000)
 8003fc8:	f8d7 3448 	ldr.w	r3, [r7, #1096]	@ 0x448
 8003fcc:	f513 7f7a 	cmn.w	r3, #1000	@ 0x3e8
 8003fd0:	f001 8711 	beq.w	8005df6 <handle_character+0x234a>
		                {
		                    return;
		                }
		                character_data[data_index] = (uint8_t)data_int;
 8003fd4:	f8d7 3448 	ldr.w	r3, [r7, #1096]	@ 0x448
 8003fd8:	b2d9      	uxtb	r1, r3
 8003fda:	f507 638a 	add.w	r3, r7, #1104	@ 0x450
 8003fde:	f5a3 7216 	sub.w	r2, r3, #600	@ 0x258
 8003fe2:	f8d7 344c 	ldr.w	r3, [r7, #1100]	@ 0x44c
 8003fe6:	4413      	add	r3, r2
 8003fe8:	460a      	mov	r2, r1
 8003fea:	701a      	strb	r2, [r3, #0]
		                data_index++;
 8003fec:	f8d7 344c 	ldr.w	r3, [r7, #1100]	@ 0x44c
 8003ff0:	3301      	adds	r3, #1
 8003ff2:	f8c7 344c 	str.w	r3, [r7, #1100]	@ 0x44c
		        }
		}
		if (data_int == 0)
 8003ff6:	f8d7 3448 	ldr.w	r3, [r7, #1096]	@ 0x448
 8003ffa:	2b00      	cmp	r3, #0
 8003ffc:	d104      	bne.n	8004008 <handle_character+0x55c>
		{
		        printf("Invalid input, aborting character creation...\r\n");
 8003ffe:	4826      	ldr	r0, [pc, #152]	@ (8004098 <handle_character+0x5ec>)
 8004000:	f005 f886 	bl	8009110 <puts>
		        return;
 8004004:	f001 bf93 	b.w	8005f2e <handle_character+0x2482>
		}
		
		printf("\r\nFeats:\r\n");
 8004008:	4824      	ldr	r0, [pc, #144]	@ (800409c <handle_character+0x5f0>)
 800400a:	f005 f881 	bl	8009110 <puts>
		printf("Entering feats is currently unimplemented, moving on...\r\n");
 800400e:	4824      	ldr	r0, [pc, #144]	@ (80040a0 <handle_character+0x5f4>)
 8004010:	f005 f87e 	bl	8009110 <puts>
		for (int i = 0; i < 8; i++)
 8004014:	2300      	movs	r3, #0
 8004016:	f8c7 343c 	str.w	r3, [r7, #1084]	@ 0x43c
 800401a:	e056      	b.n	80040ca <handle_character+0x61e>
 800401c:	0800a770 	.word	0x0800a770
 8004020:	0800a77c 	.word	0x0800a77c
 8004024:	0800a78c 	.word	0x0800a78c
 8004028:	0800a79c 	.word	0x0800a79c
 800402c:	0800a7a8 	.word	0x0800a7a8
 8004030:	0800a7b4 	.word	0x0800a7b4
 8004034:	0800a7c0 	.word	0x0800a7c0
 8004038:	0800a7d0 	.word	0x0800a7d0
 800403c:	0800a7e0 	.word	0x0800a7e0
 8004040:	0800a7ec 	.word	0x0800a7ec
 8004044:	0800a7f8 	.word	0x0800a7f8
 8004048:	0800a808 	.word	0x0800a808
 800404c:	0800a838 	.word	0x0800a838
 8004050:	0800a844 	.word	0x0800a844
 8004054:	0800a854 	.word	0x0800a854
 8004058:	0800a860 	.word	0x0800a860
 800405c:	0800a86c 	.word	0x0800a86c
 8004060:	0800a878 	.word	0x0800a878
 8004064:	0800a888 	.word	0x0800a888
 8004068:	0800a894 	.word	0x0800a894
 800406c:	0800a8a4 	.word	0x0800a8a4
 8004070:	0800a8b0 	.word	0x0800a8b0
 8004074:	0800a8bc 	.word	0x0800a8bc
 8004078:	0800a8cc 	.word	0x0800a8cc
 800407c:	0800a8dc 	.word	0x0800a8dc
 8004080:	0800a8ec 	.word	0x0800a8ec
 8004084:	0800a91c 	.word	0x0800a91c
 8004088:	0800a948 	.word	0x0800a948
 800408c:	0800a9a0 	.word	0x0800a9a0
 8004090:	0800a9d4 	.word	0x0800a9d4
 8004094:	0800aa2c 	.word	0x0800aa2c
 8004098:	0800a64c 	.word	0x0800a64c
 800409c:	0800aa60 	.word	0x0800aa60
 80040a0:	0800aa6c 	.word	0x0800aa6c
		{
		        character_data[data_index] = 0;
 80040a4:	f507 638a 	add.w	r3, r7, #1104	@ 0x450
 80040a8:	f5a3 7216 	sub.w	r2, r3, #600	@ 0x258
 80040ac:	f8d7 344c 	ldr.w	r3, [r7, #1100]	@ 0x44c
 80040b0:	4413      	add	r3, r2
 80040b2:	2200      	movs	r2, #0
 80040b4:	701a      	strb	r2, [r3, #0]
		        data_index++;
 80040b6:	f8d7 344c 	ldr.w	r3, [r7, #1100]	@ 0x44c
 80040ba:	3301      	adds	r3, #1
 80040bc:	f8c7 344c 	str.w	r3, [r7, #1100]	@ 0x44c
		for (int i = 0; i < 8; i++)
 80040c0:	f8d7 343c 	ldr.w	r3, [r7, #1084]	@ 0x43c
 80040c4:	3301      	adds	r3, #1
 80040c6:	f8c7 343c 	str.w	r3, [r7, #1084]	@ 0x43c
 80040ca:	f8d7 343c 	ldr.w	r3, [r7, #1084]	@ 0x43c
 80040ce:	2b07      	cmp	r3, #7
 80040d0:	dde8      	ble.n	80040a4 <handle_character+0x5f8>
		}
		
		printf("Enter character proficiency bonus: ");
 80040d2:	48ea      	ldr	r0, [pc, #936]	@ (800447c <handle_character+0x9d0>)
 80040d4:	f004 ffac 	bl	8009030 <iprintf>
		data_int = get_int_input(12, 1, input_string);
 80040d8:	f507 733e 	add.w	r3, r7, #760	@ 0x2f8
 80040dc:	461a      	mov	r2, r3
 80040de:	2101      	movs	r1, #1
 80040e0:	200c      	movs	r0, #12
 80040e2:	f7ff fcb1 	bl	8003a48 <get_int_input>
 80040e6:	f8c7 0448 	str.w	r0, [r7, #1096]	@ 0x448
	        if (data_int == -1000)
 80040ea:	f8d7 3448 	ldr.w	r3, [r7, #1096]	@ 0x448
 80040ee:	f513 7f7a 	cmn.w	r3, #1000	@ 0x3e8
 80040f2:	f001 8682 	beq.w	8005dfa <handle_character+0x234e>
	        {
	            return;
	        }
	        character_data[data_index] = (uint8_t)data_int;
 80040f6:	f8d7 3448 	ldr.w	r3, [r7, #1096]	@ 0x448
 80040fa:	b2d9      	uxtb	r1, r3
 80040fc:	f507 638a 	add.w	r3, r7, #1104	@ 0x450
 8004100:	f5a3 7216 	sub.w	r2, r3, #600	@ 0x258
 8004104:	f8d7 344c 	ldr.w	r3, [r7, #1100]	@ 0x44c
 8004108:	4413      	add	r3, r2
 800410a:	460a      	mov	r2, r1
 800410c:	701a      	strb	r2, [r3, #0]
	        data_index++;
 800410e:	f8d7 344c 	ldr.w	r3, [r7, #1100]	@ 0x44c
 8004112:	3301      	adds	r3, #1
 8004114:	f8c7 344c 	str.w	r3, [r7, #1100]	@ 0x44c
		
		printf("Enter character armor class: ");
 8004118:	48d9      	ldr	r0, [pc, #868]	@ (8004480 <handle_character+0x9d4>)
 800411a:	f004 ff89 	bl	8009030 <iprintf>
		data_int = get_int_input(50, 1, input_string);
 800411e:	f507 733e 	add.w	r3, r7, #760	@ 0x2f8
 8004122:	461a      	mov	r2, r3
 8004124:	2101      	movs	r1, #1
 8004126:	2032      	movs	r0, #50	@ 0x32
 8004128:	f7ff fc8e 	bl	8003a48 <get_int_input>
 800412c:	f8c7 0448 	str.w	r0, [r7, #1096]	@ 0x448
	        if (data_int == -1000)
 8004130:	f8d7 3448 	ldr.w	r3, [r7, #1096]	@ 0x448
 8004134:	f513 7f7a 	cmn.w	r3, #1000	@ 0x3e8
 8004138:	f001 8661 	beq.w	8005dfe <handle_character+0x2352>
	        {
	            return;
	        }
	        character_data[data_index] = (uint8_t)data_int;
 800413c:	f8d7 3448 	ldr.w	r3, [r7, #1096]	@ 0x448
 8004140:	b2d9      	uxtb	r1, r3
 8004142:	f507 638a 	add.w	r3, r7, #1104	@ 0x450
 8004146:	f5a3 7216 	sub.w	r2, r3, #600	@ 0x258
 800414a:	f8d7 344c 	ldr.w	r3, [r7, #1100]	@ 0x44c
 800414e:	4413      	add	r3, r2
 8004150:	460a      	mov	r2, r1
 8004152:	701a      	strb	r2, [r3, #0]
	        data_index++;
 8004154:	f8d7 344c 	ldr.w	r3, [r7, #1100]	@ 0x44c
 8004158:	3301      	adds	r3, #1
 800415a:	f8c7 344c 	str.w	r3, [r7, #1100]	@ 0x44c
		
		printf("Enter character initiative: ");
 800415e:	48c9      	ldr	r0, [pc, #804]	@ (8004484 <handle_character+0x9d8>)
 8004160:	f004 ff66 	bl	8009030 <iprintf>
		data_int = get_int_input(50, 1, input_string);
 8004164:	f507 733e 	add.w	r3, r7, #760	@ 0x2f8
 8004168:	461a      	mov	r2, r3
 800416a:	2101      	movs	r1, #1
 800416c:	2032      	movs	r0, #50	@ 0x32
 800416e:	f7ff fc6b 	bl	8003a48 <get_int_input>
 8004172:	f8c7 0448 	str.w	r0, [r7, #1096]	@ 0x448
	        if (data_int == -1000)
 8004176:	f8d7 3448 	ldr.w	r3, [r7, #1096]	@ 0x448
 800417a:	f513 7f7a 	cmn.w	r3, #1000	@ 0x3e8
 800417e:	f001 8640 	beq.w	8005e02 <handle_character+0x2356>
	        {
	            return;
	        }
	        character_data[data_index] = (uint8_t)data_int;
 8004182:	f8d7 3448 	ldr.w	r3, [r7, #1096]	@ 0x448
 8004186:	b2d9      	uxtb	r1, r3
 8004188:	f507 638a 	add.w	r3, r7, #1104	@ 0x450
 800418c:	f5a3 7216 	sub.w	r2, r3, #600	@ 0x258
 8004190:	f8d7 344c 	ldr.w	r3, [r7, #1100]	@ 0x44c
 8004194:	4413      	add	r3, r2
 8004196:	460a      	mov	r2, r1
 8004198:	701a      	strb	r2, [r3, #0]
	        data_index++;
 800419a:	f8d7 344c 	ldr.w	r3, [r7, #1100]	@ 0x44c
 800419e:	3301      	adds	r3, #1
 80041a0:	f8c7 344c 	str.w	r3, [r7, #1100]	@ 0x44c
		
		printf("Enter character current hit points: ");
 80041a4:	48b8      	ldr	r0, [pc, #736]	@ (8004488 <handle_character+0x9dc>)
 80041a6:	f004 ff43 	bl	8009030 <iprintf>
		data_int = get_int_input(255, 1, input_string);
 80041aa:	f507 733e 	add.w	r3, r7, #760	@ 0x2f8
 80041ae:	461a      	mov	r2, r3
 80041b0:	2101      	movs	r1, #1
 80041b2:	20ff      	movs	r0, #255	@ 0xff
 80041b4:	f7ff fc48 	bl	8003a48 <get_int_input>
 80041b8:	f8c7 0448 	str.w	r0, [r7, #1096]	@ 0x448
	        if (data_int == -1000)
 80041bc:	f8d7 3448 	ldr.w	r3, [r7, #1096]	@ 0x448
 80041c0:	f513 7f7a 	cmn.w	r3, #1000	@ 0x3e8
 80041c4:	f001 861f 	beq.w	8005e06 <handle_character+0x235a>
	        {
	            return;
	        }
	        character_data[data_index] = (uint8_t)data_int;
 80041c8:	f8d7 3448 	ldr.w	r3, [r7, #1096]	@ 0x448
 80041cc:	b2d9      	uxtb	r1, r3
 80041ce:	f507 638a 	add.w	r3, r7, #1104	@ 0x450
 80041d2:	f5a3 7216 	sub.w	r2, r3, #600	@ 0x258
 80041d6:	f8d7 344c 	ldr.w	r3, [r7, #1100]	@ 0x44c
 80041da:	4413      	add	r3, r2
 80041dc:	460a      	mov	r2, r1
 80041de:	701a      	strb	r2, [r3, #0]
	        data_index++;
 80041e0:	f8d7 344c 	ldr.w	r3, [r7, #1100]	@ 0x44c
 80041e4:	3301      	adds	r3, #1
 80041e6:	f8c7 344c 	str.w	r3, [r7, #1100]	@ 0x44c
		
		printf("Enter character maximum hit points: ");
 80041ea:	48a8      	ldr	r0, [pc, #672]	@ (800448c <handle_character+0x9e0>)
 80041ec:	f004 ff20 	bl	8009030 <iprintf>
		data_int = get_int_input(255, 1, input_string);
 80041f0:	f507 733e 	add.w	r3, r7, #760	@ 0x2f8
 80041f4:	461a      	mov	r2, r3
 80041f6:	2101      	movs	r1, #1
 80041f8:	20ff      	movs	r0, #255	@ 0xff
 80041fa:	f7ff fc25 	bl	8003a48 <get_int_input>
 80041fe:	f8c7 0448 	str.w	r0, [r7, #1096]	@ 0x448
	        if (data_int == -1000)
 8004202:	f8d7 3448 	ldr.w	r3, [r7, #1096]	@ 0x448
 8004206:	f513 7f7a 	cmn.w	r3, #1000	@ 0x3e8
 800420a:	f001 85fe 	beq.w	8005e0a <handle_character+0x235e>
	        {
	            return;
	        }
	        character_data[data_index] = (uint8_t)data_int;
 800420e:	f8d7 3448 	ldr.w	r3, [r7, #1096]	@ 0x448
 8004212:	b2d9      	uxtb	r1, r3
 8004214:	f507 638a 	add.w	r3, r7, #1104	@ 0x450
 8004218:	f5a3 7216 	sub.w	r2, r3, #600	@ 0x258
 800421c:	f8d7 344c 	ldr.w	r3, [r7, #1100]	@ 0x44c
 8004220:	4413      	add	r3, r2
 8004222:	460a      	mov	r2, r1
 8004224:	701a      	strb	r2, [r3, #0]
	        data_index++;
 8004226:	f8d7 344c 	ldr.w	r3, [r7, #1100]	@ 0x44c
 800422a:	3301      	adds	r3, #1
 800422c:	f8c7 344c 	str.w	r3, [r7, #1100]	@ 0x44c
		
		printf("Enter character temporary hit points: ");
 8004230:	4897      	ldr	r0, [pc, #604]	@ (8004490 <handle_character+0x9e4>)
 8004232:	f004 fefd 	bl	8009030 <iprintf>
		data_int = get_int_input(255, 1, input_string);
 8004236:	f507 733e 	add.w	r3, r7, #760	@ 0x2f8
 800423a:	461a      	mov	r2, r3
 800423c:	2101      	movs	r1, #1
 800423e:	20ff      	movs	r0, #255	@ 0xff
 8004240:	f7ff fc02 	bl	8003a48 <get_int_input>
 8004244:	f8c7 0448 	str.w	r0, [r7, #1096]	@ 0x448
	        if (data_int == -1000)
 8004248:	f8d7 3448 	ldr.w	r3, [r7, #1096]	@ 0x448
 800424c:	f513 7f7a 	cmn.w	r3, #1000	@ 0x3e8
 8004250:	f001 85dd 	beq.w	8005e0e <handle_character+0x2362>
	        {
	            return;
	        }
	        character_data[data_index] = (uint8_t)data_int;
 8004254:	f8d7 3448 	ldr.w	r3, [r7, #1096]	@ 0x448
 8004258:	b2d9      	uxtb	r1, r3
 800425a:	f507 638a 	add.w	r3, r7, #1104	@ 0x450
 800425e:	f5a3 7216 	sub.w	r2, r3, #600	@ 0x258
 8004262:	f8d7 344c 	ldr.w	r3, [r7, #1100]	@ 0x44c
 8004266:	4413      	add	r3, r2
 8004268:	460a      	mov	r2, r1
 800426a:	701a      	strb	r2, [r3, #0]
	        data_index++;
 800426c:	f8d7 344c 	ldr.w	r3, [r7, #1100]	@ 0x44c
 8004270:	3301      	adds	r3, #1
 8004272:	f8c7 344c 	str.w	r3, [r7, #1100]	@ 0x44c
		
		printf("Enter character strength ability modifier: ");
 8004276:	4887      	ldr	r0, [pc, #540]	@ (8004494 <handle_character+0x9e8>)
 8004278:	f004 feda 	bl	8009030 <iprintf>
		data_int = get_int_input(20, -20, input_string);
 800427c:	f507 733e 	add.w	r3, r7, #760	@ 0x2f8
 8004280:	461a      	mov	r2, r3
 8004282:	f06f 0113 	mvn.w	r1, #19
 8004286:	2014      	movs	r0, #20
 8004288:	f7ff fbde 	bl	8003a48 <get_int_input>
 800428c:	f8c7 0448 	str.w	r0, [r7, #1096]	@ 0x448
	        if (data_int == -1000)
 8004290:	f8d7 3448 	ldr.w	r3, [r7, #1096]	@ 0x448
 8004294:	f513 7f7a 	cmn.w	r3, #1000	@ 0x3e8
 8004298:	f001 85bb 	beq.w	8005e12 <handle_character+0x2366>
	        {
	            return;
	        }
	        character_data[data_index] = (uint8_t)data_int;
 800429c:	f8d7 3448 	ldr.w	r3, [r7, #1096]	@ 0x448
 80042a0:	b2d9      	uxtb	r1, r3
 80042a2:	f507 638a 	add.w	r3, r7, #1104	@ 0x450
 80042a6:	f5a3 7216 	sub.w	r2, r3, #600	@ 0x258
 80042aa:	f8d7 344c 	ldr.w	r3, [r7, #1100]	@ 0x44c
 80042ae:	4413      	add	r3, r2
 80042b0:	460a      	mov	r2, r1
 80042b2:	701a      	strb	r2, [r3, #0]
	        data_index++;
 80042b4:	f8d7 344c 	ldr.w	r3, [r7, #1100]	@ 0x44c
 80042b8:	3301      	adds	r3, #1
 80042ba:	f8c7 344c 	str.w	r3, [r7, #1100]	@ 0x44c
		
		printf("Enter character strength saving throw modifier: ");
 80042be:	4876      	ldr	r0, [pc, #472]	@ (8004498 <handle_character+0x9ec>)
 80042c0:	f004 feb6 	bl	8009030 <iprintf>
		data_int = get_int_input(20, -20, input_string);
 80042c4:	f507 733e 	add.w	r3, r7, #760	@ 0x2f8
 80042c8:	461a      	mov	r2, r3
 80042ca:	f06f 0113 	mvn.w	r1, #19
 80042ce:	2014      	movs	r0, #20
 80042d0:	f7ff fbba 	bl	8003a48 <get_int_input>
 80042d4:	f8c7 0448 	str.w	r0, [r7, #1096]	@ 0x448
	        if (data_int == -1000)
 80042d8:	f8d7 3448 	ldr.w	r3, [r7, #1096]	@ 0x448
 80042dc:	f513 7f7a 	cmn.w	r3, #1000	@ 0x3e8
 80042e0:	f001 8599 	beq.w	8005e16 <handle_character+0x236a>
	        {
	            return;
	        }
	        character_data[data_index] = (uint8_t)data_int;
 80042e4:	f8d7 3448 	ldr.w	r3, [r7, #1096]	@ 0x448
 80042e8:	b2d9      	uxtb	r1, r3
 80042ea:	f507 638a 	add.w	r3, r7, #1104	@ 0x450
 80042ee:	f5a3 7216 	sub.w	r2, r3, #600	@ 0x258
 80042f2:	f8d7 344c 	ldr.w	r3, [r7, #1100]	@ 0x44c
 80042f6:	4413      	add	r3, r2
 80042f8:	460a      	mov	r2, r1
 80042fa:	701a      	strb	r2, [r3, #0]
	        data_index++;
 80042fc:	f8d7 344c 	ldr.w	r3, [r7, #1100]	@ 0x44c
 8004300:	3301      	adds	r3, #1
 8004302:	f8c7 344c 	str.w	r3, [r7, #1100]	@ 0x44c
		
		printf("Enter character dexterity ability modifier: ");
 8004306:	4865      	ldr	r0, [pc, #404]	@ (800449c <handle_character+0x9f0>)
 8004308:	f004 fe92 	bl	8009030 <iprintf>
		data_int = get_int_input(20, -20, input_string);
 800430c:	f507 733e 	add.w	r3, r7, #760	@ 0x2f8
 8004310:	461a      	mov	r2, r3
 8004312:	f06f 0113 	mvn.w	r1, #19
 8004316:	2014      	movs	r0, #20
 8004318:	f7ff fb96 	bl	8003a48 <get_int_input>
 800431c:	f8c7 0448 	str.w	r0, [r7, #1096]	@ 0x448
	        if (data_int == -1000)
 8004320:	f8d7 3448 	ldr.w	r3, [r7, #1096]	@ 0x448
 8004324:	f513 7f7a 	cmn.w	r3, #1000	@ 0x3e8
 8004328:	f001 8577 	beq.w	8005e1a <handle_character+0x236e>
	        {
	            return;
	        }
	        character_data[data_index] = (uint8_t)data_int;
 800432c:	f8d7 3448 	ldr.w	r3, [r7, #1096]	@ 0x448
 8004330:	b2d9      	uxtb	r1, r3
 8004332:	f507 638a 	add.w	r3, r7, #1104	@ 0x450
 8004336:	f5a3 7216 	sub.w	r2, r3, #600	@ 0x258
 800433a:	f8d7 344c 	ldr.w	r3, [r7, #1100]	@ 0x44c
 800433e:	4413      	add	r3, r2
 8004340:	460a      	mov	r2, r1
 8004342:	701a      	strb	r2, [r3, #0]
	        data_index++;
 8004344:	f8d7 344c 	ldr.w	r3, [r7, #1100]	@ 0x44c
 8004348:	3301      	adds	r3, #1
 800434a:	f8c7 344c 	str.w	r3, [r7, #1100]	@ 0x44c
		
		printf("Enter character dexterity saving throw modifier: ");
 800434e:	4854      	ldr	r0, [pc, #336]	@ (80044a0 <handle_character+0x9f4>)
 8004350:	f004 fe6e 	bl	8009030 <iprintf>
		data_int = get_int_input(20, -20, input_string);
 8004354:	f507 733e 	add.w	r3, r7, #760	@ 0x2f8
 8004358:	461a      	mov	r2, r3
 800435a:	f06f 0113 	mvn.w	r1, #19
 800435e:	2014      	movs	r0, #20
 8004360:	f7ff fb72 	bl	8003a48 <get_int_input>
 8004364:	f8c7 0448 	str.w	r0, [r7, #1096]	@ 0x448
	        if (data_int == -1000)
 8004368:	f8d7 3448 	ldr.w	r3, [r7, #1096]	@ 0x448
 800436c:	f513 7f7a 	cmn.w	r3, #1000	@ 0x3e8
 8004370:	f001 8555 	beq.w	8005e1e <handle_character+0x2372>
	        {
	            return;
	        }
	        character_data[data_index] = (uint8_t)data_int;
 8004374:	f8d7 3448 	ldr.w	r3, [r7, #1096]	@ 0x448
 8004378:	b2d9      	uxtb	r1, r3
 800437a:	f507 638a 	add.w	r3, r7, #1104	@ 0x450
 800437e:	f5a3 7216 	sub.w	r2, r3, #600	@ 0x258
 8004382:	f8d7 344c 	ldr.w	r3, [r7, #1100]	@ 0x44c
 8004386:	4413      	add	r3, r2
 8004388:	460a      	mov	r2, r1
 800438a:	701a      	strb	r2, [r3, #0]
	        data_index++;
 800438c:	f8d7 344c 	ldr.w	r3, [r7, #1100]	@ 0x44c
 8004390:	3301      	adds	r3, #1
 8004392:	f8c7 344c 	str.w	r3, [r7, #1100]	@ 0x44c
		
		printf("Enter character constitution ability modifier: ");
 8004396:	4843      	ldr	r0, [pc, #268]	@ (80044a4 <handle_character+0x9f8>)
 8004398:	f004 fe4a 	bl	8009030 <iprintf>
		data_int = get_int_input(20, -20, input_string);
 800439c:	f507 733e 	add.w	r3, r7, #760	@ 0x2f8
 80043a0:	461a      	mov	r2, r3
 80043a2:	f06f 0113 	mvn.w	r1, #19
 80043a6:	2014      	movs	r0, #20
 80043a8:	f7ff fb4e 	bl	8003a48 <get_int_input>
 80043ac:	f8c7 0448 	str.w	r0, [r7, #1096]	@ 0x448
	        if (data_int == -1000)
 80043b0:	f8d7 3448 	ldr.w	r3, [r7, #1096]	@ 0x448
 80043b4:	f513 7f7a 	cmn.w	r3, #1000	@ 0x3e8
 80043b8:	f001 8533 	beq.w	8005e22 <handle_character+0x2376>
	        {
	            return;
	        }
	        character_data[data_index] = (uint8_t)data_int;
 80043bc:	f8d7 3448 	ldr.w	r3, [r7, #1096]	@ 0x448
 80043c0:	b2d9      	uxtb	r1, r3
 80043c2:	f507 638a 	add.w	r3, r7, #1104	@ 0x450
 80043c6:	f5a3 7216 	sub.w	r2, r3, #600	@ 0x258
 80043ca:	f8d7 344c 	ldr.w	r3, [r7, #1100]	@ 0x44c
 80043ce:	4413      	add	r3, r2
 80043d0:	460a      	mov	r2, r1
 80043d2:	701a      	strb	r2, [r3, #0]
	        data_index++;
 80043d4:	f8d7 344c 	ldr.w	r3, [r7, #1100]	@ 0x44c
 80043d8:	3301      	adds	r3, #1
 80043da:	f8c7 344c 	str.w	r3, [r7, #1100]	@ 0x44c
		
		printf("Enter character constitution saving throw modifier: ");
 80043de:	4832      	ldr	r0, [pc, #200]	@ (80044a8 <handle_character+0x9fc>)
 80043e0:	f004 fe26 	bl	8009030 <iprintf>
		data_int = get_int_input(20, -20, input_string);
 80043e4:	f507 733e 	add.w	r3, r7, #760	@ 0x2f8
 80043e8:	461a      	mov	r2, r3
 80043ea:	f06f 0113 	mvn.w	r1, #19
 80043ee:	2014      	movs	r0, #20
 80043f0:	f7ff fb2a 	bl	8003a48 <get_int_input>
 80043f4:	f8c7 0448 	str.w	r0, [r7, #1096]	@ 0x448
	        if (data_int == -1000)
 80043f8:	f8d7 3448 	ldr.w	r3, [r7, #1096]	@ 0x448
 80043fc:	f513 7f7a 	cmn.w	r3, #1000	@ 0x3e8
 8004400:	f001 853a 	beq.w	8005e78 <handle_character+0x23cc>
	        {
	            return;
	        }
	        character_data[data_index] = (uint8_t)data_int;
 8004404:	f8d7 3448 	ldr.w	r3, [r7, #1096]	@ 0x448
 8004408:	b2d9      	uxtb	r1, r3
 800440a:	f507 638a 	add.w	r3, r7, #1104	@ 0x450
 800440e:	f5a3 7216 	sub.w	r2, r3, #600	@ 0x258
 8004412:	f8d7 344c 	ldr.w	r3, [r7, #1100]	@ 0x44c
 8004416:	4413      	add	r3, r2
 8004418:	460a      	mov	r2, r1
 800441a:	701a      	strb	r2, [r3, #0]
	        data_index++;
 800441c:	f8d7 344c 	ldr.w	r3, [r7, #1100]	@ 0x44c
 8004420:	3301      	adds	r3, #1
 8004422:	f8c7 344c 	str.w	r3, [r7, #1100]	@ 0x44c
		
		printf("Enter character intelligence ability modifier: ");
 8004426:	4821      	ldr	r0, [pc, #132]	@ (80044ac <handle_character+0xa00>)
 8004428:	f004 fe02 	bl	8009030 <iprintf>
		data_int = get_int_input(20, -20, input_string);
 800442c:	f507 733e 	add.w	r3, r7, #760	@ 0x2f8
 8004430:	461a      	mov	r2, r3
 8004432:	f06f 0113 	mvn.w	r1, #19
 8004436:	2014      	movs	r0, #20
 8004438:	f7ff fb06 	bl	8003a48 <get_int_input>
 800443c:	f8c7 0448 	str.w	r0, [r7, #1096]	@ 0x448
	        if (data_int == -1000)
 8004440:	f8d7 3448 	ldr.w	r3, [r7, #1096]	@ 0x448
 8004444:	f513 7f7a 	cmn.w	r3, #1000	@ 0x3e8
 8004448:	f001 8518 	beq.w	8005e7c <handle_character+0x23d0>
	        {
	            return;
	        }
	        character_data[data_index] = (uint8_t)data_int;
 800444c:	f8d7 3448 	ldr.w	r3, [r7, #1096]	@ 0x448
 8004450:	b2d9      	uxtb	r1, r3
 8004452:	f507 638a 	add.w	r3, r7, #1104	@ 0x450
 8004456:	f5a3 7216 	sub.w	r2, r3, #600	@ 0x258
 800445a:	f8d7 344c 	ldr.w	r3, [r7, #1100]	@ 0x44c
 800445e:	4413      	add	r3, r2
 8004460:	460a      	mov	r2, r1
 8004462:	701a      	strb	r2, [r3, #0]
	        data_index++;
 8004464:	f8d7 344c 	ldr.w	r3, [r7, #1100]	@ 0x44c
 8004468:	3301      	adds	r3, #1
 800446a:	f8c7 344c 	str.w	r3, [r7, #1100]	@ 0x44c
		
		printf("Enter character intelligence saving throw modifier: ");
 800446e:	4810      	ldr	r0, [pc, #64]	@ (80044b0 <handle_character+0xa04>)
 8004470:	f004 fdde 	bl	8009030 <iprintf>
		data_int = get_int_input(20, -20, input_string);
 8004474:	f507 733e 	add.w	r3, r7, #760	@ 0x2f8
 8004478:	461a      	mov	r2, r3
 800447a:	e01b      	b.n	80044b4 <handle_character+0xa08>
 800447c:	0800aaa8 	.word	0x0800aaa8
 8004480:	0800aacc 	.word	0x0800aacc
 8004484:	0800aaec 	.word	0x0800aaec
 8004488:	0800ab0c 	.word	0x0800ab0c
 800448c:	0800ab34 	.word	0x0800ab34
 8004490:	0800ab5c 	.word	0x0800ab5c
 8004494:	0800ab84 	.word	0x0800ab84
 8004498:	0800abb0 	.word	0x0800abb0
 800449c:	0800abe4 	.word	0x0800abe4
 80044a0:	0800ac14 	.word	0x0800ac14
 80044a4:	0800ac48 	.word	0x0800ac48
 80044a8:	0800ac78 	.word	0x0800ac78
 80044ac:	0800acb0 	.word	0x0800acb0
 80044b0:	0800ace0 	.word	0x0800ace0
 80044b4:	f06f 0113 	mvn.w	r1, #19
 80044b8:	2014      	movs	r0, #20
 80044ba:	f7ff fac5 	bl	8003a48 <get_int_input>
 80044be:	f8c7 0448 	str.w	r0, [r7, #1096]	@ 0x448
	        if (data_int == -1000)
 80044c2:	f8d7 3448 	ldr.w	r3, [r7, #1096]	@ 0x448
 80044c6:	f513 7f7a 	cmn.w	r3, #1000	@ 0x3e8
 80044ca:	f001 84d9 	beq.w	8005e80 <handle_character+0x23d4>
	        {
	            return;
	        }
	        character_data[data_index] = (uint8_t)data_int;
 80044ce:	f8d7 3448 	ldr.w	r3, [r7, #1096]	@ 0x448
 80044d2:	b2d9      	uxtb	r1, r3
 80044d4:	f507 638a 	add.w	r3, r7, #1104	@ 0x450
 80044d8:	f5a3 7216 	sub.w	r2, r3, #600	@ 0x258
 80044dc:	f8d7 344c 	ldr.w	r3, [r7, #1100]	@ 0x44c
 80044e0:	4413      	add	r3, r2
 80044e2:	460a      	mov	r2, r1
 80044e4:	701a      	strb	r2, [r3, #0]
	        data_index++;
 80044e6:	f8d7 344c 	ldr.w	r3, [r7, #1100]	@ 0x44c
 80044ea:	3301      	adds	r3, #1
 80044ec:	f8c7 344c 	str.w	r3, [r7, #1100]	@ 0x44c
		
		printf("Enter character wisdom ability modifier: ");
 80044f0:	484c      	ldr	r0, [pc, #304]	@ (8004624 <handle_character+0xb78>)
 80044f2:	f004 fd9d 	bl	8009030 <iprintf>
		data_int = get_int_input(20, -20, input_string);
 80044f6:	f507 733e 	add.w	r3, r7, #760	@ 0x2f8
 80044fa:	461a      	mov	r2, r3
 80044fc:	f06f 0113 	mvn.w	r1, #19
 8004500:	2014      	movs	r0, #20
 8004502:	f7ff faa1 	bl	8003a48 <get_int_input>
 8004506:	f8c7 0448 	str.w	r0, [r7, #1096]	@ 0x448
	        if (data_int == -1000)
 800450a:	f8d7 3448 	ldr.w	r3, [r7, #1096]	@ 0x448
 800450e:	f513 7f7a 	cmn.w	r3, #1000	@ 0x3e8
 8004512:	f001 84b7 	beq.w	8005e84 <handle_character+0x23d8>
	        {
	            return;
	        }
	        character_data[data_index] = (uint8_t)data_int;
 8004516:	f8d7 3448 	ldr.w	r3, [r7, #1096]	@ 0x448
 800451a:	b2d9      	uxtb	r1, r3
 800451c:	f507 638a 	add.w	r3, r7, #1104	@ 0x450
 8004520:	f5a3 7216 	sub.w	r2, r3, #600	@ 0x258
 8004524:	f8d7 344c 	ldr.w	r3, [r7, #1100]	@ 0x44c
 8004528:	4413      	add	r3, r2
 800452a:	460a      	mov	r2, r1
 800452c:	701a      	strb	r2, [r3, #0]
	        data_index++;
 800452e:	f8d7 344c 	ldr.w	r3, [r7, #1100]	@ 0x44c
 8004532:	3301      	adds	r3, #1
 8004534:	f8c7 344c 	str.w	r3, [r7, #1100]	@ 0x44c
		
		printf("Enter character wisdom saving throw modifier: ");
 8004538:	483b      	ldr	r0, [pc, #236]	@ (8004628 <handle_character+0xb7c>)
 800453a:	f004 fd79 	bl	8009030 <iprintf>
		data_int = get_int_input(20, -20, input_string);
 800453e:	f507 733e 	add.w	r3, r7, #760	@ 0x2f8
 8004542:	461a      	mov	r2, r3
 8004544:	f06f 0113 	mvn.w	r1, #19
 8004548:	2014      	movs	r0, #20
 800454a:	f7ff fa7d 	bl	8003a48 <get_int_input>
 800454e:	f8c7 0448 	str.w	r0, [r7, #1096]	@ 0x448
	        if (data_int == -1000)
 8004552:	f8d7 3448 	ldr.w	r3, [r7, #1096]	@ 0x448
 8004556:	f513 7f7a 	cmn.w	r3, #1000	@ 0x3e8
 800455a:	f001 8495 	beq.w	8005e88 <handle_character+0x23dc>
	        {
	            return;
	        }
	        character_data[data_index] = (uint8_t)data_int;
 800455e:	f8d7 3448 	ldr.w	r3, [r7, #1096]	@ 0x448
 8004562:	b2d9      	uxtb	r1, r3
 8004564:	f507 638a 	add.w	r3, r7, #1104	@ 0x450
 8004568:	f5a3 7216 	sub.w	r2, r3, #600	@ 0x258
 800456c:	f8d7 344c 	ldr.w	r3, [r7, #1100]	@ 0x44c
 8004570:	4413      	add	r3, r2
 8004572:	460a      	mov	r2, r1
 8004574:	701a      	strb	r2, [r3, #0]
	        data_index++;
 8004576:	f8d7 344c 	ldr.w	r3, [r7, #1100]	@ 0x44c
 800457a:	3301      	adds	r3, #1
 800457c:	f8c7 344c 	str.w	r3, [r7, #1100]	@ 0x44c
		
		printf("Enter character charisma ability modifier: ");
 8004580:	482a      	ldr	r0, [pc, #168]	@ (800462c <handle_character+0xb80>)
 8004582:	f004 fd55 	bl	8009030 <iprintf>
		data_int = get_int_input(20, -20, input_string);
 8004586:	f507 733e 	add.w	r3, r7, #760	@ 0x2f8
 800458a:	461a      	mov	r2, r3
 800458c:	f06f 0113 	mvn.w	r1, #19
 8004590:	2014      	movs	r0, #20
 8004592:	f7ff fa59 	bl	8003a48 <get_int_input>
 8004596:	f8c7 0448 	str.w	r0, [r7, #1096]	@ 0x448
	        if (data_int == -1000)
 800459a:	f8d7 3448 	ldr.w	r3, [r7, #1096]	@ 0x448
 800459e:	f513 7f7a 	cmn.w	r3, #1000	@ 0x3e8
 80045a2:	f001 8473 	beq.w	8005e8c <handle_character+0x23e0>
	        {
	            return;
	        }
	        character_data[data_index] = (uint8_t)data_int;
 80045a6:	f8d7 3448 	ldr.w	r3, [r7, #1096]	@ 0x448
 80045aa:	b2d9      	uxtb	r1, r3
 80045ac:	f507 638a 	add.w	r3, r7, #1104	@ 0x450
 80045b0:	f5a3 7216 	sub.w	r2, r3, #600	@ 0x258
 80045b4:	f8d7 344c 	ldr.w	r3, [r7, #1100]	@ 0x44c
 80045b8:	4413      	add	r3, r2
 80045ba:	460a      	mov	r2, r1
 80045bc:	701a      	strb	r2, [r3, #0]
	        data_index++;
 80045be:	f8d7 344c 	ldr.w	r3, [r7, #1100]	@ 0x44c
 80045c2:	3301      	adds	r3, #1
 80045c4:	f8c7 344c 	str.w	r3, [r7, #1100]	@ 0x44c
		
		printf("Enter character charisma saving throw modifier: ");
 80045c8:	4819      	ldr	r0, [pc, #100]	@ (8004630 <handle_character+0xb84>)
 80045ca:	f004 fd31 	bl	8009030 <iprintf>
		data_int = get_int_input(20, -20, input_string);
 80045ce:	f507 733e 	add.w	r3, r7, #760	@ 0x2f8
 80045d2:	461a      	mov	r2, r3
 80045d4:	f06f 0113 	mvn.w	r1, #19
 80045d8:	2014      	movs	r0, #20
 80045da:	f7ff fa35 	bl	8003a48 <get_int_input>
 80045de:	f8c7 0448 	str.w	r0, [r7, #1096]	@ 0x448
	        if (data_int == -1000)
 80045e2:	f8d7 3448 	ldr.w	r3, [r7, #1096]	@ 0x448
 80045e6:	f513 7f7a 	cmn.w	r3, #1000	@ 0x3e8
 80045ea:	f001 8451 	beq.w	8005e90 <handle_character+0x23e4>
	        {
	            return;
	        }
	        character_data[data_index] = (uint8_t)data_int;
 80045ee:	f8d7 3448 	ldr.w	r3, [r7, #1096]	@ 0x448
 80045f2:	b2d9      	uxtb	r1, r3
 80045f4:	f507 638a 	add.w	r3, r7, #1104	@ 0x450
 80045f8:	f5a3 7216 	sub.w	r2, r3, #600	@ 0x258
 80045fc:	f8d7 344c 	ldr.w	r3, [r7, #1100]	@ 0x44c
 8004600:	4413      	add	r3, r2
 8004602:	460a      	mov	r2, r1
 8004604:	701a      	strb	r2, [r3, #0]
	        data_index++;
 8004606:	f8d7 344c 	ldr.w	r3, [r7, #1100]	@ 0x44c
 800460a:	3301      	adds	r3, #1
 800460c:	f8c7 344c 	str.w	r3, [r7, #1100]	@ 0x44c
		
		printf("Entering armory and weapon proficiency is currently unimplemented, moving on...\r\n");
 8004610:	4808      	ldr	r0, [pc, #32]	@ (8004634 <handle_character+0xb88>)
 8004612:	f004 fd7d 	bl	8009110 <puts>
		printf("NOTE: character assumed to have proficiency with equipped weapons\r\n");
 8004616:	4808      	ldr	r0, [pc, #32]	@ (8004638 <handle_character+0xb8c>)
 8004618:	f004 fd7a 	bl	8009110 <puts>
		for (int i = 0; i < 42; i++)
 800461c:	2300      	movs	r3, #0
 800461e:	f8c7 3438 	str.w	r3, [r7, #1080]	@ 0x438
 8004622:	e01e      	b.n	8004662 <handle_character+0xbb6>
 8004624:	0800ad18 	.word	0x0800ad18
 8004628:	0800ad44 	.word	0x0800ad44
 800462c:	0800ad74 	.word	0x0800ad74
 8004630:	0800ada0 	.word	0x0800ada0
 8004634:	0800add4 	.word	0x0800add4
 8004638:	0800ae28 	.word	0x0800ae28
		{
		        character_data[data_index] = 1;
 800463c:	f507 638a 	add.w	r3, r7, #1104	@ 0x450
 8004640:	f5a3 7216 	sub.w	r2, r3, #600	@ 0x258
 8004644:	f8d7 344c 	ldr.w	r3, [r7, #1100]	@ 0x44c
 8004648:	4413      	add	r3, r2
 800464a:	2201      	movs	r2, #1
 800464c:	701a      	strb	r2, [r3, #0]
		        data_index++;
 800464e:	f8d7 344c 	ldr.w	r3, [r7, #1100]	@ 0x44c
 8004652:	3301      	adds	r3, #1
 8004654:	f8c7 344c 	str.w	r3, [r7, #1100]	@ 0x44c
		for (int i = 0; i < 42; i++)
 8004658:	f8d7 3438 	ldr.w	r3, [r7, #1080]	@ 0x438
 800465c:	3301      	adds	r3, #1
 800465e:	f8c7 3438 	str.w	r3, [r7, #1080]	@ 0x438
 8004662:	f8d7 3438 	ldr.w	r3, [r7, #1080]	@ 0x438
 8004666:	2b29      	cmp	r3, #41	@ 0x29
 8004668:	dde8      	ble.n	800463c <handle_character+0xb90>
		}
		
		printf("Enter character acrobatics skill modifier: ");
 800466a:	48e2      	ldr	r0, [pc, #904]	@ (80049f4 <handle_character+0xf48>)
 800466c:	f004 fce0 	bl	8009030 <iprintf>
		data_int = get_int_input(20, -20, input_string);
 8004670:	f507 733e 	add.w	r3, r7, #760	@ 0x2f8
 8004674:	461a      	mov	r2, r3
 8004676:	f06f 0113 	mvn.w	r1, #19
 800467a:	2014      	movs	r0, #20
 800467c:	f7ff f9e4 	bl	8003a48 <get_int_input>
 8004680:	f8c7 0448 	str.w	r0, [r7, #1096]	@ 0x448
	        if (data_int == -1000)
 8004684:	f8d7 3448 	ldr.w	r3, [r7, #1096]	@ 0x448
 8004688:	f513 7f7a 	cmn.w	r3, #1000	@ 0x3e8
 800468c:	f001 8402 	beq.w	8005e94 <handle_character+0x23e8>
	        {
	            return;
	        }
	        character_data[data_index] = (uint8_t)data_int;
 8004690:	f8d7 3448 	ldr.w	r3, [r7, #1096]	@ 0x448
 8004694:	b2d9      	uxtb	r1, r3
 8004696:	f507 638a 	add.w	r3, r7, #1104	@ 0x450
 800469a:	f5a3 7216 	sub.w	r2, r3, #600	@ 0x258
 800469e:	f8d7 344c 	ldr.w	r3, [r7, #1100]	@ 0x44c
 80046a2:	4413      	add	r3, r2
 80046a4:	460a      	mov	r2, r1
 80046a6:	701a      	strb	r2, [r3, #0]
	        data_index++;
 80046a8:	f8d7 344c 	ldr.w	r3, [r7, #1100]	@ 0x44c
 80046ac:	3301      	adds	r3, #1
 80046ae:	f8c7 344c 	str.w	r3, [r7, #1100]	@ 0x44c
		
		printf("Enter character animal handling skill modifier: ");
 80046b2:	48d1      	ldr	r0, [pc, #836]	@ (80049f8 <handle_character+0xf4c>)
 80046b4:	f004 fcbc 	bl	8009030 <iprintf>
		data_int = get_int_input(20, -20, input_string);
 80046b8:	f507 733e 	add.w	r3, r7, #760	@ 0x2f8
 80046bc:	461a      	mov	r2, r3
 80046be:	f06f 0113 	mvn.w	r1, #19
 80046c2:	2014      	movs	r0, #20
 80046c4:	f7ff f9c0 	bl	8003a48 <get_int_input>
 80046c8:	f8c7 0448 	str.w	r0, [r7, #1096]	@ 0x448
	        if (data_int == -1000)
 80046cc:	f8d7 3448 	ldr.w	r3, [r7, #1096]	@ 0x448
 80046d0:	f513 7f7a 	cmn.w	r3, #1000	@ 0x3e8
 80046d4:	f001 83e0 	beq.w	8005e98 <handle_character+0x23ec>
	        {
	            return;
	        }
	        character_data[data_index] = (uint8_t)data_int;
 80046d8:	f8d7 3448 	ldr.w	r3, [r7, #1096]	@ 0x448
 80046dc:	b2d9      	uxtb	r1, r3
 80046de:	f507 638a 	add.w	r3, r7, #1104	@ 0x450
 80046e2:	f5a3 7216 	sub.w	r2, r3, #600	@ 0x258
 80046e6:	f8d7 344c 	ldr.w	r3, [r7, #1100]	@ 0x44c
 80046ea:	4413      	add	r3, r2
 80046ec:	460a      	mov	r2, r1
 80046ee:	701a      	strb	r2, [r3, #0]
	        data_index++;
 80046f0:	f8d7 344c 	ldr.w	r3, [r7, #1100]	@ 0x44c
 80046f4:	3301      	adds	r3, #1
 80046f6:	f8c7 344c 	str.w	r3, [r7, #1100]	@ 0x44c
		
		printf("Enter character arcana skill modifier: ");
 80046fa:	48c0      	ldr	r0, [pc, #768]	@ (80049fc <handle_character+0xf50>)
 80046fc:	f004 fc98 	bl	8009030 <iprintf>
		data_int = get_int_input(20, -20, input_string);
 8004700:	f507 733e 	add.w	r3, r7, #760	@ 0x2f8
 8004704:	461a      	mov	r2, r3
 8004706:	f06f 0113 	mvn.w	r1, #19
 800470a:	2014      	movs	r0, #20
 800470c:	f7ff f99c 	bl	8003a48 <get_int_input>
 8004710:	f8c7 0448 	str.w	r0, [r7, #1096]	@ 0x448
	        if (data_int == -1000)
 8004714:	f8d7 3448 	ldr.w	r3, [r7, #1096]	@ 0x448
 8004718:	f513 7f7a 	cmn.w	r3, #1000	@ 0x3e8
 800471c:	f001 83be 	beq.w	8005e9c <handle_character+0x23f0>
	        {
	            return;
	        }
	        character_data[data_index] = (uint8_t)data_int;
 8004720:	f8d7 3448 	ldr.w	r3, [r7, #1096]	@ 0x448
 8004724:	b2d9      	uxtb	r1, r3
 8004726:	f507 638a 	add.w	r3, r7, #1104	@ 0x450
 800472a:	f5a3 7216 	sub.w	r2, r3, #600	@ 0x258
 800472e:	f8d7 344c 	ldr.w	r3, [r7, #1100]	@ 0x44c
 8004732:	4413      	add	r3, r2
 8004734:	460a      	mov	r2, r1
 8004736:	701a      	strb	r2, [r3, #0]
	        data_index++;
 8004738:	f8d7 344c 	ldr.w	r3, [r7, #1100]	@ 0x44c
 800473c:	3301      	adds	r3, #1
 800473e:	f8c7 344c 	str.w	r3, [r7, #1100]	@ 0x44c
		
		printf("Enter character athletics skill modifier: ");
 8004742:	48af      	ldr	r0, [pc, #700]	@ (8004a00 <handle_character+0xf54>)
 8004744:	f004 fc74 	bl	8009030 <iprintf>
		data_int = get_int_input(20, -20, input_string);
 8004748:	f507 733e 	add.w	r3, r7, #760	@ 0x2f8
 800474c:	461a      	mov	r2, r3
 800474e:	f06f 0113 	mvn.w	r1, #19
 8004752:	2014      	movs	r0, #20
 8004754:	f7ff f978 	bl	8003a48 <get_int_input>
 8004758:	f8c7 0448 	str.w	r0, [r7, #1096]	@ 0x448
	        if (data_int == -1000)
 800475c:	f8d7 3448 	ldr.w	r3, [r7, #1096]	@ 0x448
 8004760:	f513 7f7a 	cmn.w	r3, #1000	@ 0x3e8
 8004764:	f001 839c 	beq.w	8005ea0 <handle_character+0x23f4>
	        {
	            return;
	        }
	        character_data[data_index] = (uint8_t)data_int;
 8004768:	f8d7 3448 	ldr.w	r3, [r7, #1096]	@ 0x448
 800476c:	b2d9      	uxtb	r1, r3
 800476e:	f507 638a 	add.w	r3, r7, #1104	@ 0x450
 8004772:	f5a3 7216 	sub.w	r2, r3, #600	@ 0x258
 8004776:	f8d7 344c 	ldr.w	r3, [r7, #1100]	@ 0x44c
 800477a:	4413      	add	r3, r2
 800477c:	460a      	mov	r2, r1
 800477e:	701a      	strb	r2, [r3, #0]
	        data_index++;
 8004780:	f8d7 344c 	ldr.w	r3, [r7, #1100]	@ 0x44c
 8004784:	3301      	adds	r3, #1
 8004786:	f8c7 344c 	str.w	r3, [r7, #1100]	@ 0x44c
		
		printf("Enter character deception skill modifier: ");
 800478a:	489e      	ldr	r0, [pc, #632]	@ (8004a04 <handle_character+0xf58>)
 800478c:	f004 fc50 	bl	8009030 <iprintf>
		data_int = get_int_input(20, -20, input_string);
 8004790:	f507 733e 	add.w	r3, r7, #760	@ 0x2f8
 8004794:	461a      	mov	r2, r3
 8004796:	f06f 0113 	mvn.w	r1, #19
 800479a:	2014      	movs	r0, #20
 800479c:	f7ff f954 	bl	8003a48 <get_int_input>
 80047a0:	f8c7 0448 	str.w	r0, [r7, #1096]	@ 0x448
	        if (data_int == -1000)
 80047a4:	f8d7 3448 	ldr.w	r3, [r7, #1096]	@ 0x448
 80047a8:	f513 7f7a 	cmn.w	r3, #1000	@ 0x3e8
 80047ac:	f001 837a 	beq.w	8005ea4 <handle_character+0x23f8>
	        {
	            return;
	        }
	        character_data[data_index] = (uint8_t)data_int;
 80047b0:	f8d7 3448 	ldr.w	r3, [r7, #1096]	@ 0x448
 80047b4:	b2d9      	uxtb	r1, r3
 80047b6:	f507 638a 	add.w	r3, r7, #1104	@ 0x450
 80047ba:	f5a3 7216 	sub.w	r2, r3, #600	@ 0x258
 80047be:	f8d7 344c 	ldr.w	r3, [r7, #1100]	@ 0x44c
 80047c2:	4413      	add	r3, r2
 80047c4:	460a      	mov	r2, r1
 80047c6:	701a      	strb	r2, [r3, #0]
	        data_index++;
 80047c8:	f8d7 344c 	ldr.w	r3, [r7, #1100]	@ 0x44c
 80047cc:	3301      	adds	r3, #1
 80047ce:	f8c7 344c 	str.w	r3, [r7, #1100]	@ 0x44c
		
		printf("Enter character history skill modifier: ");
 80047d2:	488d      	ldr	r0, [pc, #564]	@ (8004a08 <handle_character+0xf5c>)
 80047d4:	f004 fc2c 	bl	8009030 <iprintf>
		data_int = get_int_input(20, -20, input_string);
 80047d8:	f507 733e 	add.w	r3, r7, #760	@ 0x2f8
 80047dc:	461a      	mov	r2, r3
 80047de:	f06f 0113 	mvn.w	r1, #19
 80047e2:	2014      	movs	r0, #20
 80047e4:	f7ff f930 	bl	8003a48 <get_int_input>
 80047e8:	f8c7 0448 	str.w	r0, [r7, #1096]	@ 0x448
	        if (data_int == -1000)
 80047ec:	f8d7 3448 	ldr.w	r3, [r7, #1096]	@ 0x448
 80047f0:	f513 7f7a 	cmn.w	r3, #1000	@ 0x3e8
 80047f4:	f001 8358 	beq.w	8005ea8 <handle_character+0x23fc>
	        {
	            return;
	        }
	        character_data[data_index] = (uint8_t)data_int;
 80047f8:	f8d7 3448 	ldr.w	r3, [r7, #1096]	@ 0x448
 80047fc:	b2d9      	uxtb	r1, r3
 80047fe:	f507 638a 	add.w	r3, r7, #1104	@ 0x450
 8004802:	f5a3 7216 	sub.w	r2, r3, #600	@ 0x258
 8004806:	f8d7 344c 	ldr.w	r3, [r7, #1100]	@ 0x44c
 800480a:	4413      	add	r3, r2
 800480c:	460a      	mov	r2, r1
 800480e:	701a      	strb	r2, [r3, #0]
	        data_index++;
 8004810:	f8d7 344c 	ldr.w	r3, [r7, #1100]	@ 0x44c
 8004814:	3301      	adds	r3, #1
 8004816:	f8c7 344c 	str.w	r3, [r7, #1100]	@ 0x44c
		
		printf("Enter character insight skill modifier: ");
 800481a:	487c      	ldr	r0, [pc, #496]	@ (8004a0c <handle_character+0xf60>)
 800481c:	f004 fc08 	bl	8009030 <iprintf>
		data_int = get_int_input(20, -20, input_string);
 8004820:	f507 733e 	add.w	r3, r7, #760	@ 0x2f8
 8004824:	461a      	mov	r2, r3
 8004826:	f06f 0113 	mvn.w	r1, #19
 800482a:	2014      	movs	r0, #20
 800482c:	f7ff f90c 	bl	8003a48 <get_int_input>
 8004830:	f8c7 0448 	str.w	r0, [r7, #1096]	@ 0x448
	        if (data_int == -1000)
 8004834:	f8d7 3448 	ldr.w	r3, [r7, #1096]	@ 0x448
 8004838:	f513 7f7a 	cmn.w	r3, #1000	@ 0x3e8
 800483c:	f001 8336 	beq.w	8005eac <handle_character+0x2400>
	        {
	            return;
	        }
	        character_data[data_index] = (uint8_t)data_int;
 8004840:	f8d7 3448 	ldr.w	r3, [r7, #1096]	@ 0x448
 8004844:	b2d9      	uxtb	r1, r3
 8004846:	f507 638a 	add.w	r3, r7, #1104	@ 0x450
 800484a:	f5a3 7216 	sub.w	r2, r3, #600	@ 0x258
 800484e:	f8d7 344c 	ldr.w	r3, [r7, #1100]	@ 0x44c
 8004852:	4413      	add	r3, r2
 8004854:	460a      	mov	r2, r1
 8004856:	701a      	strb	r2, [r3, #0]
	        data_index++;
 8004858:	f8d7 344c 	ldr.w	r3, [r7, #1100]	@ 0x44c
 800485c:	3301      	adds	r3, #1
 800485e:	f8c7 344c 	str.w	r3, [r7, #1100]	@ 0x44c
		
		printf("Enter character intimidation skill modifier: ");
 8004862:	486b      	ldr	r0, [pc, #428]	@ (8004a10 <handle_character+0xf64>)
 8004864:	f004 fbe4 	bl	8009030 <iprintf>
		data_int = get_int_input(20, -20, input_string);
 8004868:	f507 733e 	add.w	r3, r7, #760	@ 0x2f8
 800486c:	461a      	mov	r2, r3
 800486e:	f06f 0113 	mvn.w	r1, #19
 8004872:	2014      	movs	r0, #20
 8004874:	f7ff f8e8 	bl	8003a48 <get_int_input>
 8004878:	f8c7 0448 	str.w	r0, [r7, #1096]	@ 0x448
	        if (data_int == -1000)
 800487c:	f8d7 3448 	ldr.w	r3, [r7, #1096]	@ 0x448
 8004880:	f513 7f7a 	cmn.w	r3, #1000	@ 0x3e8
 8004884:	f001 8314 	beq.w	8005eb0 <handle_character+0x2404>
	        {
	            return;
	        }
	        character_data[data_index] = (uint8_t)data_int;
 8004888:	f8d7 3448 	ldr.w	r3, [r7, #1096]	@ 0x448
 800488c:	b2d9      	uxtb	r1, r3
 800488e:	f507 638a 	add.w	r3, r7, #1104	@ 0x450
 8004892:	f5a3 7216 	sub.w	r2, r3, #600	@ 0x258
 8004896:	f8d7 344c 	ldr.w	r3, [r7, #1100]	@ 0x44c
 800489a:	4413      	add	r3, r2
 800489c:	460a      	mov	r2, r1
 800489e:	701a      	strb	r2, [r3, #0]
	        data_index++;
 80048a0:	f8d7 344c 	ldr.w	r3, [r7, #1100]	@ 0x44c
 80048a4:	3301      	adds	r3, #1
 80048a6:	f8c7 344c 	str.w	r3, [r7, #1100]	@ 0x44c
		
		printf("Enter character investigation skill modifier: ");
 80048aa:	485a      	ldr	r0, [pc, #360]	@ (8004a14 <handle_character+0xf68>)
 80048ac:	f004 fbc0 	bl	8009030 <iprintf>
		data_int = get_int_input(20, -20, input_string);
 80048b0:	f507 733e 	add.w	r3, r7, #760	@ 0x2f8
 80048b4:	461a      	mov	r2, r3
 80048b6:	f06f 0113 	mvn.w	r1, #19
 80048ba:	2014      	movs	r0, #20
 80048bc:	f7ff f8c4 	bl	8003a48 <get_int_input>
 80048c0:	f8c7 0448 	str.w	r0, [r7, #1096]	@ 0x448
	        if (data_int == -1000)
 80048c4:	f8d7 3448 	ldr.w	r3, [r7, #1096]	@ 0x448
 80048c8:	f513 7f7a 	cmn.w	r3, #1000	@ 0x3e8
 80048cc:	f001 82f2 	beq.w	8005eb4 <handle_character+0x2408>
	        {
	            return;
	        }
	        character_data[data_index] = (uint8_t)data_int;
 80048d0:	f8d7 3448 	ldr.w	r3, [r7, #1096]	@ 0x448
 80048d4:	b2d9      	uxtb	r1, r3
 80048d6:	f507 638a 	add.w	r3, r7, #1104	@ 0x450
 80048da:	f5a3 7216 	sub.w	r2, r3, #600	@ 0x258
 80048de:	f8d7 344c 	ldr.w	r3, [r7, #1100]	@ 0x44c
 80048e2:	4413      	add	r3, r2
 80048e4:	460a      	mov	r2, r1
 80048e6:	701a      	strb	r2, [r3, #0]
	        data_index++;
 80048e8:	f8d7 344c 	ldr.w	r3, [r7, #1100]	@ 0x44c
 80048ec:	3301      	adds	r3, #1
 80048ee:	f8c7 344c 	str.w	r3, [r7, #1100]	@ 0x44c
		
		printf("Enter character medicine skill modifier: ");
 80048f2:	4849      	ldr	r0, [pc, #292]	@ (8004a18 <handle_character+0xf6c>)
 80048f4:	f004 fb9c 	bl	8009030 <iprintf>
		data_int = get_int_input(20, -20, input_string);
 80048f8:	f507 733e 	add.w	r3, r7, #760	@ 0x2f8
 80048fc:	461a      	mov	r2, r3
 80048fe:	f06f 0113 	mvn.w	r1, #19
 8004902:	2014      	movs	r0, #20
 8004904:	f7ff f8a0 	bl	8003a48 <get_int_input>
 8004908:	f8c7 0448 	str.w	r0, [r7, #1096]	@ 0x448
	        if (data_int == -1000)
 800490c:	f8d7 3448 	ldr.w	r3, [r7, #1096]	@ 0x448
 8004910:	f513 7f7a 	cmn.w	r3, #1000	@ 0x3e8
 8004914:	f001 82d0 	beq.w	8005eb8 <handle_character+0x240c>
	        {
	            return;
	        }
	        character_data[data_index] = (uint8_t)data_int;
 8004918:	f8d7 3448 	ldr.w	r3, [r7, #1096]	@ 0x448
 800491c:	b2d9      	uxtb	r1, r3
 800491e:	f507 638a 	add.w	r3, r7, #1104	@ 0x450
 8004922:	f5a3 7216 	sub.w	r2, r3, #600	@ 0x258
 8004926:	f8d7 344c 	ldr.w	r3, [r7, #1100]	@ 0x44c
 800492a:	4413      	add	r3, r2
 800492c:	460a      	mov	r2, r1
 800492e:	701a      	strb	r2, [r3, #0]
	        data_index++;
 8004930:	f8d7 344c 	ldr.w	r3, [r7, #1100]	@ 0x44c
 8004934:	3301      	adds	r3, #1
 8004936:	f8c7 344c 	str.w	r3, [r7, #1100]	@ 0x44c
		
		printf("Enter character nature skill modifier: ");
 800493a:	4838      	ldr	r0, [pc, #224]	@ (8004a1c <handle_character+0xf70>)
 800493c:	f004 fb78 	bl	8009030 <iprintf>
		data_int = get_int_input(20, -20, input_string);
 8004940:	f507 733e 	add.w	r3, r7, #760	@ 0x2f8
 8004944:	461a      	mov	r2, r3
 8004946:	f06f 0113 	mvn.w	r1, #19
 800494a:	2014      	movs	r0, #20
 800494c:	f7ff f87c 	bl	8003a48 <get_int_input>
 8004950:	f8c7 0448 	str.w	r0, [r7, #1096]	@ 0x448
	        if (data_int == -1000)
 8004954:	f8d7 3448 	ldr.w	r3, [r7, #1096]	@ 0x448
 8004958:	f513 7f7a 	cmn.w	r3, #1000	@ 0x3e8
 800495c:	f001 82ae 	beq.w	8005ebc <handle_character+0x2410>
	        {
	            return;
	        }
	        character_data[data_index] = (uint8_t)data_int;
 8004960:	f8d7 3448 	ldr.w	r3, [r7, #1096]	@ 0x448
 8004964:	b2d9      	uxtb	r1, r3
 8004966:	f507 638a 	add.w	r3, r7, #1104	@ 0x450
 800496a:	f5a3 7216 	sub.w	r2, r3, #600	@ 0x258
 800496e:	f8d7 344c 	ldr.w	r3, [r7, #1100]	@ 0x44c
 8004972:	4413      	add	r3, r2
 8004974:	460a      	mov	r2, r1
 8004976:	701a      	strb	r2, [r3, #0]
	        data_index++;
 8004978:	f8d7 344c 	ldr.w	r3, [r7, #1100]	@ 0x44c
 800497c:	3301      	adds	r3, #1
 800497e:	f8c7 344c 	str.w	r3, [r7, #1100]	@ 0x44c

		printf("Enter character perception skill modifier: ");
 8004982:	4827      	ldr	r0, [pc, #156]	@ (8004a20 <handle_character+0xf74>)
 8004984:	f004 fb54 	bl	8009030 <iprintf>
		data_int = get_int_input(20, -20, input_string);
 8004988:	f507 733e 	add.w	r3, r7, #760	@ 0x2f8
 800498c:	461a      	mov	r2, r3
 800498e:	f06f 0113 	mvn.w	r1, #19
 8004992:	2014      	movs	r0, #20
 8004994:	f7ff f858 	bl	8003a48 <get_int_input>
 8004998:	f8c7 0448 	str.w	r0, [r7, #1096]	@ 0x448
	        if (data_int == -1000)
 800499c:	f8d7 3448 	ldr.w	r3, [r7, #1096]	@ 0x448
 80049a0:	f513 7f7a 	cmn.w	r3, #1000	@ 0x3e8
 80049a4:	f001 828c 	beq.w	8005ec0 <handle_character+0x2414>
	        {
	            return;
	        }
	        character_data[data_index] = (uint8_t)data_int;
 80049a8:	f8d7 3448 	ldr.w	r3, [r7, #1096]	@ 0x448
 80049ac:	b2d9      	uxtb	r1, r3
 80049ae:	f507 638a 	add.w	r3, r7, #1104	@ 0x450
 80049b2:	f5a3 7216 	sub.w	r2, r3, #600	@ 0x258
 80049b6:	f8d7 344c 	ldr.w	r3, [r7, #1100]	@ 0x44c
 80049ba:	4413      	add	r3, r2
 80049bc:	460a      	mov	r2, r1
 80049be:	701a      	strb	r2, [r3, #0]
	        data_index++;
 80049c0:	f8d7 344c 	ldr.w	r3, [r7, #1100]	@ 0x44c
 80049c4:	3301      	adds	r3, #1
 80049c6:	f8c7 344c 	str.w	r3, [r7, #1100]	@ 0x44c
		
		printf("Enter character performance skill modifier: ");
 80049ca:	4816      	ldr	r0, [pc, #88]	@ (8004a24 <handle_character+0xf78>)
 80049cc:	f004 fb30 	bl	8009030 <iprintf>
		data_int = get_int_input(20, -20, input_string);
 80049d0:	f507 733e 	add.w	r3, r7, #760	@ 0x2f8
 80049d4:	461a      	mov	r2, r3
 80049d6:	f06f 0113 	mvn.w	r1, #19
 80049da:	2014      	movs	r0, #20
 80049dc:	f7ff f834 	bl	8003a48 <get_int_input>
 80049e0:	f8c7 0448 	str.w	r0, [r7, #1096]	@ 0x448
	        if (data_int == -1000)
 80049e4:	f8d7 3448 	ldr.w	r3, [r7, #1096]	@ 0x448
 80049e8:	f513 7f7a 	cmn.w	r3, #1000	@ 0x3e8
 80049ec:	f001 826a 	beq.w	8005ec4 <handle_character+0x2418>
 80049f0:	e01a      	b.n	8004a28 <handle_character+0xf7c>
 80049f2:	bf00      	nop
 80049f4:	0800ae6c 	.word	0x0800ae6c
 80049f8:	0800ae98 	.word	0x0800ae98
 80049fc:	0800aecc 	.word	0x0800aecc
 8004a00:	0800aef4 	.word	0x0800aef4
 8004a04:	0800af20 	.word	0x0800af20
 8004a08:	0800af4c 	.word	0x0800af4c
 8004a0c:	0800af78 	.word	0x0800af78
 8004a10:	0800afa4 	.word	0x0800afa4
 8004a14:	0800afd4 	.word	0x0800afd4
 8004a18:	0800b004 	.word	0x0800b004
 8004a1c:	0800b030 	.word	0x0800b030
 8004a20:	0800b058 	.word	0x0800b058
 8004a24:	0800b084 	.word	0x0800b084
	        {
	            return;
	        }
	        character_data[data_index] = (uint8_t)data_int;
 8004a28:	f8d7 3448 	ldr.w	r3, [r7, #1096]	@ 0x448
 8004a2c:	b2d9      	uxtb	r1, r3
 8004a2e:	f507 638a 	add.w	r3, r7, #1104	@ 0x450
 8004a32:	f5a3 7216 	sub.w	r2, r3, #600	@ 0x258
 8004a36:	f8d7 344c 	ldr.w	r3, [r7, #1100]	@ 0x44c
 8004a3a:	4413      	add	r3, r2
 8004a3c:	460a      	mov	r2, r1
 8004a3e:	701a      	strb	r2, [r3, #0]
	        data_index++;
 8004a40:	f8d7 344c 	ldr.w	r3, [r7, #1100]	@ 0x44c
 8004a44:	3301      	adds	r3, #1
 8004a46:	f8c7 344c 	str.w	r3, [r7, #1100]	@ 0x44c
		
		printf("Enter character persuasion skill modifier: ");
 8004a4a:	48ea      	ldr	r0, [pc, #936]	@ (8004df4 <handle_character+0x1348>)
 8004a4c:	f004 faf0 	bl	8009030 <iprintf>
		data_int = get_int_input(20, -20, input_string);
 8004a50:	f507 733e 	add.w	r3, r7, #760	@ 0x2f8
 8004a54:	461a      	mov	r2, r3
 8004a56:	f06f 0113 	mvn.w	r1, #19
 8004a5a:	2014      	movs	r0, #20
 8004a5c:	f7fe fff4 	bl	8003a48 <get_int_input>
 8004a60:	f8c7 0448 	str.w	r0, [r7, #1096]	@ 0x448
	        if (data_int == -1000)
 8004a64:	f8d7 3448 	ldr.w	r3, [r7, #1096]	@ 0x448
 8004a68:	f513 7f7a 	cmn.w	r3, #1000	@ 0x3e8
 8004a6c:	f001 822c 	beq.w	8005ec8 <handle_character+0x241c>
	        {
	            return;
	        }
	        character_data[data_index] = (uint8_t)data_int;
 8004a70:	f8d7 3448 	ldr.w	r3, [r7, #1096]	@ 0x448
 8004a74:	b2d9      	uxtb	r1, r3
 8004a76:	f507 638a 	add.w	r3, r7, #1104	@ 0x450
 8004a7a:	f5a3 7216 	sub.w	r2, r3, #600	@ 0x258
 8004a7e:	f8d7 344c 	ldr.w	r3, [r7, #1100]	@ 0x44c
 8004a82:	4413      	add	r3, r2
 8004a84:	460a      	mov	r2, r1
 8004a86:	701a      	strb	r2, [r3, #0]
	        data_index++;
 8004a88:	f8d7 344c 	ldr.w	r3, [r7, #1100]	@ 0x44c
 8004a8c:	3301      	adds	r3, #1
 8004a8e:	f8c7 344c 	str.w	r3, [r7, #1100]	@ 0x44c
		
		printf("Enter character religion skill modifier: ");
 8004a92:	48d9      	ldr	r0, [pc, #868]	@ (8004df8 <handle_character+0x134c>)
 8004a94:	f004 facc 	bl	8009030 <iprintf>
		data_int = get_int_input(20, -20, input_string);
 8004a98:	f507 733e 	add.w	r3, r7, #760	@ 0x2f8
 8004a9c:	461a      	mov	r2, r3
 8004a9e:	f06f 0113 	mvn.w	r1, #19
 8004aa2:	2014      	movs	r0, #20
 8004aa4:	f7fe ffd0 	bl	8003a48 <get_int_input>
 8004aa8:	f8c7 0448 	str.w	r0, [r7, #1096]	@ 0x448
	        if (data_int == -1000)
 8004aac:	f8d7 3448 	ldr.w	r3, [r7, #1096]	@ 0x448
 8004ab0:	f513 7f7a 	cmn.w	r3, #1000	@ 0x3e8
 8004ab4:	f001 820a 	beq.w	8005ecc <handle_character+0x2420>
	        {
	            return;
	        }
	        character_data[data_index] = (uint8_t)data_int;
 8004ab8:	f8d7 3448 	ldr.w	r3, [r7, #1096]	@ 0x448
 8004abc:	b2d9      	uxtb	r1, r3
 8004abe:	f507 638a 	add.w	r3, r7, #1104	@ 0x450
 8004ac2:	f5a3 7216 	sub.w	r2, r3, #600	@ 0x258
 8004ac6:	f8d7 344c 	ldr.w	r3, [r7, #1100]	@ 0x44c
 8004aca:	4413      	add	r3, r2
 8004acc:	460a      	mov	r2, r1
 8004ace:	701a      	strb	r2, [r3, #0]
	        data_index++;
 8004ad0:	f8d7 344c 	ldr.w	r3, [r7, #1100]	@ 0x44c
 8004ad4:	3301      	adds	r3, #1
 8004ad6:	f8c7 344c 	str.w	r3, [r7, #1100]	@ 0x44c
		
		printf("Enter character sleight of hand skill modifier: ");
 8004ada:	48c8      	ldr	r0, [pc, #800]	@ (8004dfc <handle_character+0x1350>)
 8004adc:	f004 faa8 	bl	8009030 <iprintf>
		data_int = get_int_input(20, -20, input_string);
 8004ae0:	f507 733e 	add.w	r3, r7, #760	@ 0x2f8
 8004ae4:	461a      	mov	r2, r3
 8004ae6:	f06f 0113 	mvn.w	r1, #19
 8004aea:	2014      	movs	r0, #20
 8004aec:	f7fe ffac 	bl	8003a48 <get_int_input>
 8004af0:	f8c7 0448 	str.w	r0, [r7, #1096]	@ 0x448
	        if (data_int == -1000)
 8004af4:	f8d7 3448 	ldr.w	r3, [r7, #1096]	@ 0x448
 8004af8:	f513 7f7a 	cmn.w	r3, #1000	@ 0x3e8
 8004afc:	f001 81e8 	beq.w	8005ed0 <handle_character+0x2424>
	        {
	            return;
	        }
	        character_data[data_index] = (uint8_t)data_int;
 8004b00:	f8d7 3448 	ldr.w	r3, [r7, #1096]	@ 0x448
 8004b04:	b2d9      	uxtb	r1, r3
 8004b06:	f507 638a 	add.w	r3, r7, #1104	@ 0x450
 8004b0a:	f5a3 7216 	sub.w	r2, r3, #600	@ 0x258
 8004b0e:	f8d7 344c 	ldr.w	r3, [r7, #1100]	@ 0x44c
 8004b12:	4413      	add	r3, r2
 8004b14:	460a      	mov	r2, r1
 8004b16:	701a      	strb	r2, [r3, #0]
	        data_index++;
 8004b18:	f8d7 344c 	ldr.w	r3, [r7, #1100]	@ 0x44c
 8004b1c:	3301      	adds	r3, #1
 8004b1e:	f8c7 344c 	str.w	r3, [r7, #1100]	@ 0x44c
		
		printf("Enter character stealth skill modifier: ");
 8004b22:	48b7      	ldr	r0, [pc, #732]	@ (8004e00 <handle_character+0x1354>)
 8004b24:	f004 fa84 	bl	8009030 <iprintf>
		data_int = get_int_input(20, -20, input_string);
 8004b28:	f507 733e 	add.w	r3, r7, #760	@ 0x2f8
 8004b2c:	461a      	mov	r2, r3
 8004b2e:	f06f 0113 	mvn.w	r1, #19
 8004b32:	2014      	movs	r0, #20
 8004b34:	f7fe ff88 	bl	8003a48 <get_int_input>
 8004b38:	f8c7 0448 	str.w	r0, [r7, #1096]	@ 0x448
	        if (data_int == -1000)
 8004b3c:	f8d7 3448 	ldr.w	r3, [r7, #1096]	@ 0x448
 8004b40:	f513 7f7a 	cmn.w	r3, #1000	@ 0x3e8
 8004b44:	f001 81c6 	beq.w	8005ed4 <handle_character+0x2428>
	        {
	            return;
	        }
	        character_data[data_index] = (uint8_t)data_int;
 8004b48:	f8d7 3448 	ldr.w	r3, [r7, #1096]	@ 0x448
 8004b4c:	b2d9      	uxtb	r1, r3
 8004b4e:	f507 638a 	add.w	r3, r7, #1104	@ 0x450
 8004b52:	f5a3 7216 	sub.w	r2, r3, #600	@ 0x258
 8004b56:	f8d7 344c 	ldr.w	r3, [r7, #1100]	@ 0x44c
 8004b5a:	4413      	add	r3, r2
 8004b5c:	460a      	mov	r2, r1
 8004b5e:	701a      	strb	r2, [r3, #0]
	        data_index++;
 8004b60:	f8d7 344c 	ldr.w	r3, [r7, #1100]	@ 0x44c
 8004b64:	3301      	adds	r3, #1
 8004b66:	f8c7 344c 	str.w	r3, [r7, #1100]	@ 0x44c
		
		printf("Enter character survival skill modifier: ");
 8004b6a:	48a6      	ldr	r0, [pc, #664]	@ (8004e04 <handle_character+0x1358>)
 8004b6c:	f004 fa60 	bl	8009030 <iprintf>
		data_int = get_int_input(20, -20, input_string);
 8004b70:	f507 733e 	add.w	r3, r7, #760	@ 0x2f8
 8004b74:	461a      	mov	r2, r3
 8004b76:	f06f 0113 	mvn.w	r1, #19
 8004b7a:	2014      	movs	r0, #20
 8004b7c:	f7fe ff64 	bl	8003a48 <get_int_input>
 8004b80:	f8c7 0448 	str.w	r0, [r7, #1096]	@ 0x448
	        if (data_int == -1000)
 8004b84:	f8d7 3448 	ldr.w	r3, [r7, #1096]	@ 0x448
 8004b88:	f513 7f7a 	cmn.w	r3, #1000	@ 0x3e8
 8004b8c:	f001 81a4 	beq.w	8005ed8 <handle_character+0x242c>
	        {
	            return;
	        }
	        character_data[data_index] = (uint8_t)data_int;
 8004b90:	f8d7 3448 	ldr.w	r3, [r7, #1096]	@ 0x448
 8004b94:	b2d9      	uxtb	r1, r3
 8004b96:	f507 638a 	add.w	r3, r7, #1104	@ 0x450
 8004b9a:	f5a3 7216 	sub.w	r2, r3, #600	@ 0x258
 8004b9e:	f8d7 344c 	ldr.w	r3, [r7, #1100]	@ 0x44c
 8004ba2:	4413      	add	r3, r2
 8004ba4:	460a      	mov	r2, r1
 8004ba6:	701a      	strb	r2, [r3, #0]
	        data_index++;
 8004ba8:	f8d7 344c 	ldr.w	r3, [r7, #1100]	@ 0x44c
 8004bac:	3301      	adds	r3, #1
 8004bae:	f8c7 344c 	str.w	r3, [r7, #1100]	@ 0x44c
		
		printf("Enter character acid resistance (1 = vulnerable, 2 = normal, 3 = resistant, 4 = immune): ");
 8004bb2:	4895      	ldr	r0, [pc, #596]	@ (8004e08 <handle_character+0x135c>)
 8004bb4:	f004 fa3c 	bl	8009030 <iprintf>
		data_int = get_int_input(4, 1, input_string);
 8004bb8:	f507 733e 	add.w	r3, r7, #760	@ 0x2f8
 8004bbc:	461a      	mov	r2, r3
 8004bbe:	2101      	movs	r1, #1
 8004bc0:	2004      	movs	r0, #4
 8004bc2:	f7fe ff41 	bl	8003a48 <get_int_input>
 8004bc6:	f8c7 0448 	str.w	r0, [r7, #1096]	@ 0x448
	        if (data_int == -1000)
 8004bca:	f8d7 3448 	ldr.w	r3, [r7, #1096]	@ 0x448
 8004bce:	f513 7f7a 	cmn.w	r3, #1000	@ 0x3e8
 8004bd2:	f001 8183 	beq.w	8005edc <handle_character+0x2430>
	        {
	            return;
	        }
	        character_data[data_index] = (uint8_t)data_int;
 8004bd6:	f8d7 3448 	ldr.w	r3, [r7, #1096]	@ 0x448
 8004bda:	b2d9      	uxtb	r1, r3
 8004bdc:	f507 638a 	add.w	r3, r7, #1104	@ 0x450
 8004be0:	f5a3 7216 	sub.w	r2, r3, #600	@ 0x258
 8004be4:	f8d7 344c 	ldr.w	r3, [r7, #1100]	@ 0x44c
 8004be8:	4413      	add	r3, r2
 8004bea:	460a      	mov	r2, r1
 8004bec:	701a      	strb	r2, [r3, #0]
	        data_index++;
 8004bee:	f8d7 344c 	ldr.w	r3, [r7, #1100]	@ 0x44c
 8004bf2:	3301      	adds	r3, #1
 8004bf4:	f8c7 344c 	str.w	r3, [r7, #1100]	@ 0x44c
		
		printf("Enter character bludgeoning resistance (1 = vulnerable, 2 = normal, 3 = resistant, 4 = immune): ");
 8004bf8:	4884      	ldr	r0, [pc, #528]	@ (8004e0c <handle_character+0x1360>)
 8004bfa:	f004 fa19 	bl	8009030 <iprintf>
		data_int = get_int_input(4, 1, input_string);
 8004bfe:	f507 733e 	add.w	r3, r7, #760	@ 0x2f8
 8004c02:	461a      	mov	r2, r3
 8004c04:	2101      	movs	r1, #1
 8004c06:	2004      	movs	r0, #4
 8004c08:	f7fe ff1e 	bl	8003a48 <get_int_input>
 8004c0c:	f8c7 0448 	str.w	r0, [r7, #1096]	@ 0x448
	        if (data_int == -1000)
 8004c10:	f8d7 3448 	ldr.w	r3, [r7, #1096]	@ 0x448
 8004c14:	f513 7f7a 	cmn.w	r3, #1000	@ 0x3e8
 8004c18:	f001 8162 	beq.w	8005ee0 <handle_character+0x2434>
	        {
	            return;
	        }
	        character_data[data_index] = (uint8_t)data_int;
 8004c1c:	f8d7 3448 	ldr.w	r3, [r7, #1096]	@ 0x448
 8004c20:	b2d9      	uxtb	r1, r3
 8004c22:	f507 638a 	add.w	r3, r7, #1104	@ 0x450
 8004c26:	f5a3 7216 	sub.w	r2, r3, #600	@ 0x258
 8004c2a:	f8d7 344c 	ldr.w	r3, [r7, #1100]	@ 0x44c
 8004c2e:	4413      	add	r3, r2
 8004c30:	460a      	mov	r2, r1
 8004c32:	701a      	strb	r2, [r3, #0]
	        data_index++;
 8004c34:	f8d7 344c 	ldr.w	r3, [r7, #1100]	@ 0x44c
 8004c38:	3301      	adds	r3, #1
 8004c3a:	f8c7 344c 	str.w	r3, [r7, #1100]	@ 0x44c
		
		printf("Enter character cold resistance (1 = vulnerable, 2 = normal, 3 = resistant, 4 = immune): ");
 8004c3e:	4874      	ldr	r0, [pc, #464]	@ (8004e10 <handle_character+0x1364>)
 8004c40:	f004 f9f6 	bl	8009030 <iprintf>
		data_int = get_int_input(4, 1, input_string);
 8004c44:	f507 733e 	add.w	r3, r7, #760	@ 0x2f8
 8004c48:	461a      	mov	r2, r3
 8004c4a:	2101      	movs	r1, #1
 8004c4c:	2004      	movs	r0, #4
 8004c4e:	f7fe fefb 	bl	8003a48 <get_int_input>
 8004c52:	f8c7 0448 	str.w	r0, [r7, #1096]	@ 0x448
	        if (data_int == -1000)
 8004c56:	f8d7 3448 	ldr.w	r3, [r7, #1096]	@ 0x448
 8004c5a:	f513 7f7a 	cmn.w	r3, #1000	@ 0x3e8
 8004c5e:	f001 8141 	beq.w	8005ee4 <handle_character+0x2438>
	        {
	            return;
	        }
	        character_data[data_index] = (uint8_t)data_int;
 8004c62:	f8d7 3448 	ldr.w	r3, [r7, #1096]	@ 0x448
 8004c66:	b2d9      	uxtb	r1, r3
 8004c68:	f507 638a 	add.w	r3, r7, #1104	@ 0x450
 8004c6c:	f5a3 7216 	sub.w	r2, r3, #600	@ 0x258
 8004c70:	f8d7 344c 	ldr.w	r3, [r7, #1100]	@ 0x44c
 8004c74:	4413      	add	r3, r2
 8004c76:	460a      	mov	r2, r1
 8004c78:	701a      	strb	r2, [r3, #0]
	        data_index++;
 8004c7a:	f8d7 344c 	ldr.w	r3, [r7, #1100]	@ 0x44c
 8004c7e:	3301      	adds	r3, #1
 8004c80:	f8c7 344c 	str.w	r3, [r7, #1100]	@ 0x44c
		
		printf("Enter character fire resistance (1 = vulnerable, 2 = normal, 3 = resistant, 4 = immune): ");
 8004c84:	4863      	ldr	r0, [pc, #396]	@ (8004e14 <handle_character+0x1368>)
 8004c86:	f004 f9d3 	bl	8009030 <iprintf>
		data_int = get_int_input(4, 1, input_string);
 8004c8a:	f507 733e 	add.w	r3, r7, #760	@ 0x2f8
 8004c8e:	461a      	mov	r2, r3
 8004c90:	2101      	movs	r1, #1
 8004c92:	2004      	movs	r0, #4
 8004c94:	f7fe fed8 	bl	8003a48 <get_int_input>
 8004c98:	f8c7 0448 	str.w	r0, [r7, #1096]	@ 0x448
	        if (data_int == -1000)
 8004c9c:	f8d7 3448 	ldr.w	r3, [r7, #1096]	@ 0x448
 8004ca0:	f513 7f7a 	cmn.w	r3, #1000	@ 0x3e8
 8004ca4:	f001 8120 	beq.w	8005ee8 <handle_character+0x243c>
	        {
	            return;
	        }
	        character_data[data_index] = (uint8_t)data_int;
 8004ca8:	f8d7 3448 	ldr.w	r3, [r7, #1096]	@ 0x448
 8004cac:	b2d9      	uxtb	r1, r3
 8004cae:	f507 638a 	add.w	r3, r7, #1104	@ 0x450
 8004cb2:	f5a3 7216 	sub.w	r2, r3, #600	@ 0x258
 8004cb6:	f8d7 344c 	ldr.w	r3, [r7, #1100]	@ 0x44c
 8004cba:	4413      	add	r3, r2
 8004cbc:	460a      	mov	r2, r1
 8004cbe:	701a      	strb	r2, [r3, #0]
	        data_index++;
 8004cc0:	f8d7 344c 	ldr.w	r3, [r7, #1100]	@ 0x44c
 8004cc4:	3301      	adds	r3, #1
 8004cc6:	f8c7 344c 	str.w	r3, [r7, #1100]	@ 0x44c
		
		printf("Enter character force resistance (1 = vulnerable, 2 = normal, 3 = resistant, 4 = immune): ");
 8004cca:	4853      	ldr	r0, [pc, #332]	@ (8004e18 <handle_character+0x136c>)
 8004ccc:	f004 f9b0 	bl	8009030 <iprintf>
		data_int = get_int_input(4, 1, input_string);
 8004cd0:	f507 733e 	add.w	r3, r7, #760	@ 0x2f8
 8004cd4:	461a      	mov	r2, r3
 8004cd6:	2101      	movs	r1, #1
 8004cd8:	2004      	movs	r0, #4
 8004cda:	f7fe feb5 	bl	8003a48 <get_int_input>
 8004cde:	f8c7 0448 	str.w	r0, [r7, #1096]	@ 0x448
	        if (data_int == -1000)
 8004ce2:	f8d7 3448 	ldr.w	r3, [r7, #1096]	@ 0x448
 8004ce6:	f513 7f7a 	cmn.w	r3, #1000	@ 0x3e8
 8004cea:	f001 80ff 	beq.w	8005eec <handle_character+0x2440>
	        {
	            return;
	        }
	        character_data[data_index] = (uint8_t)data_int;
 8004cee:	f8d7 3448 	ldr.w	r3, [r7, #1096]	@ 0x448
 8004cf2:	b2d9      	uxtb	r1, r3
 8004cf4:	f507 638a 	add.w	r3, r7, #1104	@ 0x450
 8004cf8:	f5a3 7216 	sub.w	r2, r3, #600	@ 0x258
 8004cfc:	f8d7 344c 	ldr.w	r3, [r7, #1100]	@ 0x44c
 8004d00:	4413      	add	r3, r2
 8004d02:	460a      	mov	r2, r1
 8004d04:	701a      	strb	r2, [r3, #0]
	        data_index++;
 8004d06:	f8d7 344c 	ldr.w	r3, [r7, #1100]	@ 0x44c
 8004d0a:	3301      	adds	r3, #1
 8004d0c:	f8c7 344c 	str.w	r3, [r7, #1100]	@ 0x44c
		
		printf("Enter character lightning resistance (1 = vulnerable, 2 = normal, 3 = resistant, 4 = immune): ");
 8004d10:	4842      	ldr	r0, [pc, #264]	@ (8004e1c <handle_character+0x1370>)
 8004d12:	f004 f98d 	bl	8009030 <iprintf>
		data_int = get_int_input(4, 1, input_string);
 8004d16:	f507 733e 	add.w	r3, r7, #760	@ 0x2f8
 8004d1a:	461a      	mov	r2, r3
 8004d1c:	2101      	movs	r1, #1
 8004d1e:	2004      	movs	r0, #4
 8004d20:	f7fe fe92 	bl	8003a48 <get_int_input>
 8004d24:	f8c7 0448 	str.w	r0, [r7, #1096]	@ 0x448
	        if (data_int == -1000)
 8004d28:	f8d7 3448 	ldr.w	r3, [r7, #1096]	@ 0x448
 8004d2c:	f513 7f7a 	cmn.w	r3, #1000	@ 0x3e8
 8004d30:	f001 80de 	beq.w	8005ef0 <handle_character+0x2444>
	        {
	            return;
	        }
	        character_data[data_index] = (uint8_t)data_int;
 8004d34:	f8d7 3448 	ldr.w	r3, [r7, #1096]	@ 0x448
 8004d38:	b2d9      	uxtb	r1, r3
 8004d3a:	f507 638a 	add.w	r3, r7, #1104	@ 0x450
 8004d3e:	f5a3 7216 	sub.w	r2, r3, #600	@ 0x258
 8004d42:	f8d7 344c 	ldr.w	r3, [r7, #1100]	@ 0x44c
 8004d46:	4413      	add	r3, r2
 8004d48:	460a      	mov	r2, r1
 8004d4a:	701a      	strb	r2, [r3, #0]
	        data_index++;
 8004d4c:	f8d7 344c 	ldr.w	r3, [r7, #1100]	@ 0x44c
 8004d50:	3301      	adds	r3, #1
 8004d52:	f8c7 344c 	str.w	r3, [r7, #1100]	@ 0x44c
		
		printf("Enter character necrotic resistance (1 = vulnerable, 2 = normal, 3 = resistant, 4 = immune): ");
 8004d56:	4832      	ldr	r0, [pc, #200]	@ (8004e20 <handle_character+0x1374>)
 8004d58:	f004 f96a 	bl	8009030 <iprintf>
		data_int = get_int_input(4, 1, input_string);
 8004d5c:	f507 733e 	add.w	r3, r7, #760	@ 0x2f8
 8004d60:	461a      	mov	r2, r3
 8004d62:	2101      	movs	r1, #1
 8004d64:	2004      	movs	r0, #4
 8004d66:	f7fe fe6f 	bl	8003a48 <get_int_input>
 8004d6a:	f8c7 0448 	str.w	r0, [r7, #1096]	@ 0x448
	        if (data_int == -1000)
 8004d6e:	f8d7 3448 	ldr.w	r3, [r7, #1096]	@ 0x448
 8004d72:	f513 7f7a 	cmn.w	r3, #1000	@ 0x3e8
 8004d76:	f001 80bd 	beq.w	8005ef4 <handle_character+0x2448>
	        {
	            return;
	        }
	        character_data[data_index] = (uint8_t)data_int;
 8004d7a:	f8d7 3448 	ldr.w	r3, [r7, #1096]	@ 0x448
 8004d7e:	b2d9      	uxtb	r1, r3
 8004d80:	f507 638a 	add.w	r3, r7, #1104	@ 0x450
 8004d84:	f5a3 7216 	sub.w	r2, r3, #600	@ 0x258
 8004d88:	f8d7 344c 	ldr.w	r3, [r7, #1100]	@ 0x44c
 8004d8c:	4413      	add	r3, r2
 8004d8e:	460a      	mov	r2, r1
 8004d90:	701a      	strb	r2, [r3, #0]
	        data_index++;
 8004d92:	f8d7 344c 	ldr.w	r3, [r7, #1100]	@ 0x44c
 8004d96:	3301      	adds	r3, #1
 8004d98:	f8c7 344c 	str.w	r3, [r7, #1100]	@ 0x44c
		
		printf("Enter character piercing resistance (1 = vulnerable, 2 = normal, 3 = resistant, 4 = immune): ");
 8004d9c:	4821      	ldr	r0, [pc, #132]	@ (8004e24 <handle_character+0x1378>)
 8004d9e:	f004 f947 	bl	8009030 <iprintf>
		data_int = get_int_input(4, 1, input_string);
 8004da2:	f507 733e 	add.w	r3, r7, #760	@ 0x2f8
 8004da6:	461a      	mov	r2, r3
 8004da8:	2101      	movs	r1, #1
 8004daa:	2004      	movs	r0, #4
 8004dac:	f7fe fe4c 	bl	8003a48 <get_int_input>
 8004db0:	f8c7 0448 	str.w	r0, [r7, #1096]	@ 0x448
	        if (data_int == -1000)
 8004db4:	f8d7 3448 	ldr.w	r3, [r7, #1096]	@ 0x448
 8004db8:	f513 7f7a 	cmn.w	r3, #1000	@ 0x3e8
 8004dbc:	f001 809c 	beq.w	8005ef8 <handle_character+0x244c>
	        {
	            return;
	        }
	        character_data[data_index] = (uint8_t)data_int;
 8004dc0:	f8d7 3448 	ldr.w	r3, [r7, #1096]	@ 0x448
 8004dc4:	b2d9      	uxtb	r1, r3
 8004dc6:	f507 638a 	add.w	r3, r7, #1104	@ 0x450
 8004dca:	f5a3 7216 	sub.w	r2, r3, #600	@ 0x258
 8004dce:	f8d7 344c 	ldr.w	r3, [r7, #1100]	@ 0x44c
 8004dd2:	4413      	add	r3, r2
 8004dd4:	460a      	mov	r2, r1
 8004dd6:	701a      	strb	r2, [r3, #0]
	        data_index++;
 8004dd8:	f8d7 344c 	ldr.w	r3, [r7, #1100]	@ 0x44c
 8004ddc:	3301      	adds	r3, #1
 8004dde:	f8c7 344c 	str.w	r3, [r7, #1100]	@ 0x44c
		
		printf("Enter character poison resistance (1 = vulnerable, 2 = normal, 3 = resistant, 4 = immune): ");
 8004de2:	4811      	ldr	r0, [pc, #68]	@ (8004e28 <handle_character+0x137c>)
 8004de4:	f004 f924 	bl	8009030 <iprintf>
		data_int = get_int_input(4, 1, input_string);
 8004de8:	f507 733e 	add.w	r3, r7, #760	@ 0x2f8
 8004dec:	461a      	mov	r2, r3
 8004dee:	2101      	movs	r1, #1
 8004df0:	2004      	movs	r0, #4
 8004df2:	e01b      	b.n	8004e2c <handle_character+0x1380>
 8004df4:	0800b0b4 	.word	0x0800b0b4
 8004df8:	0800b0e0 	.word	0x0800b0e0
 8004dfc:	0800b10c 	.word	0x0800b10c
 8004e00:	0800b140 	.word	0x0800b140
 8004e04:	0800b16c 	.word	0x0800b16c
 8004e08:	0800b198 	.word	0x0800b198
 8004e0c:	0800b1f4 	.word	0x0800b1f4
 8004e10:	0800b258 	.word	0x0800b258
 8004e14:	0800b2b4 	.word	0x0800b2b4
 8004e18:	0800b310 	.word	0x0800b310
 8004e1c:	0800b36c 	.word	0x0800b36c
 8004e20:	0800b3cc 	.word	0x0800b3cc
 8004e24:	0800b42c 	.word	0x0800b42c
 8004e28:	0800b48c 	.word	0x0800b48c
 8004e2c:	f7fe fe0c 	bl	8003a48 <get_int_input>
 8004e30:	f8c7 0448 	str.w	r0, [r7, #1096]	@ 0x448
	        if (data_int == -1000)
 8004e34:	f8d7 3448 	ldr.w	r3, [r7, #1096]	@ 0x448
 8004e38:	f513 7f7a 	cmn.w	r3, #1000	@ 0x3e8
 8004e3c:	f001 805e 	beq.w	8005efc <handle_character+0x2450>
	        {
	            return;
	        }
	        character_data[data_index] = (uint8_t)data_int;
 8004e40:	f8d7 3448 	ldr.w	r3, [r7, #1096]	@ 0x448
 8004e44:	b2d9      	uxtb	r1, r3
 8004e46:	f507 638a 	add.w	r3, r7, #1104	@ 0x450
 8004e4a:	f5a3 7216 	sub.w	r2, r3, #600	@ 0x258
 8004e4e:	f8d7 344c 	ldr.w	r3, [r7, #1100]	@ 0x44c
 8004e52:	4413      	add	r3, r2
 8004e54:	460a      	mov	r2, r1
 8004e56:	701a      	strb	r2, [r3, #0]
	        data_index++;
 8004e58:	f8d7 344c 	ldr.w	r3, [r7, #1100]	@ 0x44c
 8004e5c:	3301      	adds	r3, #1
 8004e5e:	f8c7 344c 	str.w	r3, [r7, #1100]	@ 0x44c
		
		printf("Enter character psychic resistance (1 = vulnerable, 2 = normal, 3 = resistant, 4 = immune): ");
 8004e62:	48d9      	ldr	r0, [pc, #868]	@ (80051c8 <handle_character+0x171c>)
 8004e64:	f004 f8e4 	bl	8009030 <iprintf>
		data_int = get_int_input(4, 1, input_string);
 8004e68:	f507 733e 	add.w	r3, r7, #760	@ 0x2f8
 8004e6c:	461a      	mov	r2, r3
 8004e6e:	2101      	movs	r1, #1
 8004e70:	2004      	movs	r0, #4
 8004e72:	f7fe fde9 	bl	8003a48 <get_int_input>
 8004e76:	f8c7 0448 	str.w	r0, [r7, #1096]	@ 0x448
	        if (data_int == -1000)
 8004e7a:	f8d7 3448 	ldr.w	r3, [r7, #1096]	@ 0x448
 8004e7e:	f513 7f7a 	cmn.w	r3, #1000	@ 0x3e8
 8004e82:	f001 803d 	beq.w	8005f00 <handle_character+0x2454>
	        {
	            return;
	        }
	        character_data[data_index] = (uint8_t)data_int;
 8004e86:	f8d7 3448 	ldr.w	r3, [r7, #1096]	@ 0x448
 8004e8a:	b2d9      	uxtb	r1, r3
 8004e8c:	f507 638a 	add.w	r3, r7, #1104	@ 0x450
 8004e90:	f5a3 7216 	sub.w	r2, r3, #600	@ 0x258
 8004e94:	f8d7 344c 	ldr.w	r3, [r7, #1100]	@ 0x44c
 8004e98:	4413      	add	r3, r2
 8004e9a:	460a      	mov	r2, r1
 8004e9c:	701a      	strb	r2, [r3, #0]
	        data_index++;
 8004e9e:	f8d7 344c 	ldr.w	r3, [r7, #1100]	@ 0x44c
 8004ea2:	3301      	adds	r3, #1
 8004ea4:	f8c7 344c 	str.w	r3, [r7, #1100]	@ 0x44c
		
		printf("Enter character radiant resistance (1 = vulnerable, 2 = normal, 3 = resistant, 4 = immune): ");
 8004ea8:	48c8      	ldr	r0, [pc, #800]	@ (80051cc <handle_character+0x1720>)
 8004eaa:	f004 f8c1 	bl	8009030 <iprintf>
		data_int = get_int_input(4, 1, input_string);
 8004eae:	f507 733e 	add.w	r3, r7, #760	@ 0x2f8
 8004eb2:	461a      	mov	r2, r3
 8004eb4:	2101      	movs	r1, #1
 8004eb6:	2004      	movs	r0, #4
 8004eb8:	f7fe fdc6 	bl	8003a48 <get_int_input>
 8004ebc:	f8c7 0448 	str.w	r0, [r7, #1096]	@ 0x448
	        if (data_int == -1000)
 8004ec0:	f8d7 3448 	ldr.w	r3, [r7, #1096]	@ 0x448
 8004ec4:	f513 7f7a 	cmn.w	r3, #1000	@ 0x3e8
 8004ec8:	f001 801c 	beq.w	8005f04 <handle_character+0x2458>
	        {
	            return;
	        }
	        character_data[data_index] = (uint8_t)data_int;
 8004ecc:	f8d7 3448 	ldr.w	r3, [r7, #1096]	@ 0x448
 8004ed0:	b2d9      	uxtb	r1, r3
 8004ed2:	f507 638a 	add.w	r3, r7, #1104	@ 0x450
 8004ed6:	f5a3 7216 	sub.w	r2, r3, #600	@ 0x258
 8004eda:	f8d7 344c 	ldr.w	r3, [r7, #1100]	@ 0x44c
 8004ede:	4413      	add	r3, r2
 8004ee0:	460a      	mov	r2, r1
 8004ee2:	701a      	strb	r2, [r3, #0]
	        data_index++;
 8004ee4:	f8d7 344c 	ldr.w	r3, [r7, #1100]	@ 0x44c
 8004ee8:	3301      	adds	r3, #1
 8004eea:	f8c7 344c 	str.w	r3, [r7, #1100]	@ 0x44c
		
		printf("Enter character slashing resistance (1 = vulnerable, 2 = normal, 3 = resistant, 4 = immune): ");
 8004eee:	48b8      	ldr	r0, [pc, #736]	@ (80051d0 <handle_character+0x1724>)
 8004ef0:	f004 f89e 	bl	8009030 <iprintf>
		data_int = get_int_input(4, 1, input_string);
 8004ef4:	f507 733e 	add.w	r3, r7, #760	@ 0x2f8
 8004ef8:	461a      	mov	r2, r3
 8004efa:	2101      	movs	r1, #1
 8004efc:	2004      	movs	r0, #4
 8004efe:	f7fe fda3 	bl	8003a48 <get_int_input>
 8004f02:	f8c7 0448 	str.w	r0, [r7, #1096]	@ 0x448
	        if (data_int == -1000)
 8004f06:	f8d7 3448 	ldr.w	r3, [r7, #1096]	@ 0x448
 8004f0a:	f513 7f7a 	cmn.w	r3, #1000	@ 0x3e8
 8004f0e:	f000 87fb 	beq.w	8005f08 <handle_character+0x245c>
	        {
	            return;
	        }
	        character_data[data_index] = (uint8_t)data_int;
 8004f12:	f8d7 3448 	ldr.w	r3, [r7, #1096]	@ 0x448
 8004f16:	b2d9      	uxtb	r1, r3
 8004f18:	f507 638a 	add.w	r3, r7, #1104	@ 0x450
 8004f1c:	f5a3 7216 	sub.w	r2, r3, #600	@ 0x258
 8004f20:	f8d7 344c 	ldr.w	r3, [r7, #1100]	@ 0x44c
 8004f24:	4413      	add	r3, r2
 8004f26:	460a      	mov	r2, r1
 8004f28:	701a      	strb	r2, [r3, #0]
	        data_index++;
 8004f2a:	f8d7 344c 	ldr.w	r3, [r7, #1100]	@ 0x44c
 8004f2e:	3301      	adds	r3, #1
 8004f30:	f8c7 344c 	str.w	r3, [r7, #1100]	@ 0x44c
		
		printf("Enter character thunder resistance (1 = vulnerable, 2 = normal, 3 = resistant, 4 = immune): ");
 8004f34:	48a7      	ldr	r0, [pc, #668]	@ (80051d4 <handle_character+0x1728>)
 8004f36:	f004 f87b 	bl	8009030 <iprintf>
		data_int = get_int_input(4, 1, input_string);
 8004f3a:	f507 733e 	add.w	r3, r7, #760	@ 0x2f8
 8004f3e:	461a      	mov	r2, r3
 8004f40:	2101      	movs	r1, #1
 8004f42:	2004      	movs	r0, #4
 8004f44:	f7fe fd80 	bl	8003a48 <get_int_input>
 8004f48:	f8c7 0448 	str.w	r0, [r7, #1096]	@ 0x448
	        if (data_int == -1000)
 8004f4c:	f8d7 3448 	ldr.w	r3, [r7, #1096]	@ 0x448
 8004f50:	f513 7f7a 	cmn.w	r3, #1000	@ 0x3e8
 8004f54:	f000 87da 	beq.w	8005f0c <handle_character+0x2460>
	        {
	            return;
	        }
	        character_data[data_index] = (uint8_t)data_int;
 8004f58:	f8d7 3448 	ldr.w	r3, [r7, #1096]	@ 0x448
 8004f5c:	b2d9      	uxtb	r1, r3
 8004f5e:	f507 638a 	add.w	r3, r7, #1104	@ 0x450
 8004f62:	f5a3 7216 	sub.w	r2, r3, #600	@ 0x258
 8004f66:	f8d7 344c 	ldr.w	r3, [r7, #1100]	@ 0x44c
 8004f6a:	4413      	add	r3, r2
 8004f6c:	460a      	mov	r2, r1
 8004f6e:	701a      	strb	r2, [r3, #0]
	        data_index++;
 8004f70:	f8d7 344c 	ldr.w	r3, [r7, #1100]	@ 0x44c
 8004f74:	3301      	adds	r3, #1
 8004f76:	f8c7 344c 	str.w	r3, [r7, #1100]	@ 0x44c
		
		printf("Entering status conditions is currently unimplemented, moving on...\r\n");
 8004f7a:	4897      	ldr	r0, [pc, #604]	@ (80051d8 <handle_character+0x172c>)
 8004f7c:	f004 f8c8 	bl	8009110 <puts>
		for (int i = 0; i < 14; i++)
 8004f80:	2300      	movs	r3, #0
 8004f82:	f8c7 3434 	str.w	r3, [r7, #1076]	@ 0x434
 8004f86:	e012      	b.n	8004fae <handle_character+0x1502>
		{
		        character_data[data_index] = 0;
 8004f88:	f507 638a 	add.w	r3, r7, #1104	@ 0x450
 8004f8c:	f5a3 7216 	sub.w	r2, r3, #600	@ 0x258
 8004f90:	f8d7 344c 	ldr.w	r3, [r7, #1100]	@ 0x44c
 8004f94:	4413      	add	r3, r2
 8004f96:	2200      	movs	r2, #0
 8004f98:	701a      	strb	r2, [r3, #0]
		        data_index++;
 8004f9a:	f8d7 344c 	ldr.w	r3, [r7, #1100]	@ 0x44c
 8004f9e:	3301      	adds	r3, #1
 8004fa0:	f8c7 344c 	str.w	r3, [r7, #1100]	@ 0x44c
		for (int i = 0; i < 14; i++)
 8004fa4:	f8d7 3434 	ldr.w	r3, [r7, #1076]	@ 0x434
 8004fa8:	3301      	adds	r3, #1
 8004faa:	f8c7 3434 	str.w	r3, [r7, #1076]	@ 0x434
 8004fae:	f8d7 3434 	ldr.w	r3, [r7, #1076]	@ 0x434
 8004fb2:	2b0d      	cmp	r3, #13
 8004fb4:	dde8      	ble.n	8004f88 <handle_character+0x14dc>
		}
		
		printf("Equipped Weapons:\r\n");
 8004fb6:	4889      	ldr	r0, [pc, #548]	@ (80051dc <handle_character+0x1730>)
 8004fb8:	f004 f8aa 	bl	8009110 <puts>
		printf("1 - Club           \t 20 - Halberd\r\n");
 8004fbc:	4888      	ldr	r0, [pc, #544]	@ (80051e0 <handle_character+0x1734>)
 8004fbe:	f004 f8a7 	bl	8009110 <puts>
		printf("2 - Dagger         \t 21 - Lance\r\n");
 8004fc2:	4888      	ldr	r0, [pc, #544]	@ (80051e4 <handle_character+0x1738>)
 8004fc4:	f004 f8a4 	bl	8009110 <puts>
		printf("3 - Greatclub      \t 22 - Longsword\r\n");
 8004fc8:	4887      	ldr	r0, [pc, #540]	@ (80051e8 <handle_character+0x173c>)
 8004fca:	f004 f8a1 	bl	8009110 <puts>
		printf("4 - Handaxe        \t 23 - Maul\r\n");
 8004fce:	4887      	ldr	r0, [pc, #540]	@ (80051ec <handle_character+0x1740>)
 8004fd0:	f004 f89e 	bl	8009110 <puts>
		printf("5 - Javelin        \t 24 - Morningstar\r\n");
 8004fd4:	4886      	ldr	r0, [pc, #536]	@ (80051f0 <handle_character+0x1744>)
 8004fd6:	f004 f89b 	bl	8009110 <puts>
		printf("6 - Light Hammer   \t 25 - Pike\r\n");
 8004fda:	4886      	ldr	r0, [pc, #536]	@ (80051f4 <handle_character+0x1748>)
 8004fdc:	f004 f898 	bl	8009110 <puts>
		printf("7 - Mace           \t 26 - Rapier\r\n");
 8004fe0:	4885      	ldr	r0, [pc, #532]	@ (80051f8 <handle_character+0x174c>)
 8004fe2:	f004 f895 	bl	8009110 <puts>
		printf("8 - Quarterstaff   \t 27 - Scimitar\r\n");
 8004fe6:	4885      	ldr	r0, [pc, #532]	@ (80051fc <handle_character+0x1750>)
 8004fe8:	f004 f892 	bl	8009110 <puts>
		printf("9 - Sickle         \t 28 - Shortsword\r\n");
 8004fec:	4884      	ldr	r0, [pc, #528]	@ (8005200 <handle_character+0x1754>)
 8004fee:	f004 f88f 	bl	8009110 <puts>
		printf("10 - Spear         \t 29 - Trident\r\n");
 8004ff2:	4884      	ldr	r0, [pc, #528]	@ (8005204 <handle_character+0x1758>)
 8004ff4:	f004 f88c 	bl	8009110 <puts>
		printf("11 - Dart          \t 30 - Warhammer\r\n");
 8004ff8:	4883      	ldr	r0, [pc, #524]	@ (8005208 <handle_character+0x175c>)
 8004ffa:	f004 f889 	bl	8009110 <puts>
		printf("12 - Light Crossbow\t 31 - War Pick\r\n");
 8004ffe:	4883      	ldr	r0, [pc, #524]	@ (800520c <handle_character+0x1760>)
 8005000:	f004 f886 	bl	8009110 <puts>
		printf("13 - Shortbow      \t 32 - Whip\r\n");
 8005004:	4882      	ldr	r0, [pc, #520]	@ (8005210 <handle_character+0x1764>)
 8005006:	f004 f883 	bl	8009110 <puts>
		printf("14 - Sling         \t 33 - Blowgun\r\n");
 800500a:	4882      	ldr	r0, [pc, #520]	@ (8005214 <handle_character+0x1768>)
 800500c:	f004 f880 	bl	8009110 <puts>
		printf("15 - Battleaxe     \t 34 - Hand Crossbow\r\n");
 8005010:	4881      	ldr	r0, [pc, #516]	@ (8005218 <handle_character+0x176c>)
 8005012:	f004 f87d 	bl	8009110 <puts>
		printf("16 - Flail         \t 35 - Heavy Crossbow\r\n");
 8005016:	4881      	ldr	r0, [pc, #516]	@ (800521c <handle_character+0x1770>)
 8005018:	f004 f87a 	bl	8009110 <puts>
		printf("17 - Glaive        \t 36 - Longbow\r\n");
 800501c:	4880      	ldr	r0, [pc, #512]	@ (8005220 <handle_character+0x1774>)
 800501e:	f004 f877 	bl	8009110 <puts>
		printf("18 - Greataxe      \t 37 - Musket\r\n");
 8005022:	4880      	ldr	r0, [pc, #512]	@ (8005224 <handle_character+0x1778>)
 8005024:	f004 f874 	bl	8009110 <puts>
		printf("19 - Greatsword    \t 38 - Pistol\r\n");
 8005028:	487f      	ldr	r0, [pc, #508]	@ (8005228 <handle_character+0x177c>)
 800502a:	f004 f871 	bl	8009110 <puts>
		printf("Enter a number representing first equipped weapon (enter 0 if no weapons equipped): ");
 800502e:	487f      	ldr	r0, [pc, #508]	@ (800522c <handle_character+0x1780>)
 8005030:	f003 fffe 	bl	8009030 <iprintf>
		data_int = get_int_input(38, 0, input_string);
 8005034:	f507 733e 	add.w	r3, r7, #760	@ 0x2f8
 8005038:	461a      	mov	r2, r3
 800503a:	2100      	movs	r1, #0
 800503c:	2026      	movs	r0, #38	@ 0x26
 800503e:	f7fe fd03 	bl	8003a48 <get_int_input>
 8005042:	f8c7 0448 	str.w	r0, [r7, #1096]	@ 0x448
	        if (data_int == -1000)
 8005046:	f8d7 3448 	ldr.w	r3, [r7, #1096]	@ 0x448
 800504a:	f513 7f7a 	cmn.w	r3, #1000	@ 0x3e8
 800504e:	f000 875f 	beq.w	8005f10 <handle_character+0x2464>
	        {
	            return;
	        }
	        character_data[data_index] = (uint8_t)data_int;
 8005052:	f8d7 3448 	ldr.w	r3, [r7, #1096]	@ 0x448
 8005056:	b2d9      	uxtb	r1, r3
 8005058:	f507 638a 	add.w	r3, r7, #1104	@ 0x450
 800505c:	f5a3 7216 	sub.w	r2, r3, #600	@ 0x258
 8005060:	f8d7 344c 	ldr.w	r3, [r7, #1100]	@ 0x44c
 8005064:	4413      	add	r3, r2
 8005066:	460a      	mov	r2, r1
 8005068:	701a      	strb	r2, [r3, #0]
	        data_index++;
 800506a:	f8d7 344c 	ldr.w	r3, [r7, #1100]	@ 0x44c
 800506e:	3301      	adds	r3, #1
 8005070:	f8c7 344c 	str.w	r3, [r7, #1100]	@ 0x44c
		if (data_int == 0)
 8005074:	f8d7 3448 	ldr.w	r3, [r7, #1096]	@ 0x448
 8005078:	2b00      	cmp	r3, #0
 800507a:	d129      	bne.n	80050d0 <handle_character+0x1624>
		{
		        for(int i = 0; i < 25; i++)
 800507c:	2300      	movs	r3, #0
 800507e:	f8c7 3430 	str.w	r3, [r7, #1072]	@ 0x430
 8005082:	e015      	b.n	80050b0 <handle_character+0x1604>
		        {
		                character_data[data_index] = (uint8_t)data_int;
 8005084:	f8d7 3448 	ldr.w	r3, [r7, #1096]	@ 0x448
 8005088:	b2d9      	uxtb	r1, r3
 800508a:	f507 638a 	add.w	r3, r7, #1104	@ 0x450
 800508e:	f5a3 7216 	sub.w	r2, r3, #600	@ 0x258
 8005092:	f8d7 344c 	ldr.w	r3, [r7, #1100]	@ 0x44c
 8005096:	4413      	add	r3, r2
 8005098:	460a      	mov	r2, r1
 800509a:	701a      	strb	r2, [r3, #0]
		                data_index++;
 800509c:	f8d7 344c 	ldr.w	r3, [r7, #1100]	@ 0x44c
 80050a0:	3301      	adds	r3, #1
 80050a2:	f8c7 344c 	str.w	r3, [r7, #1100]	@ 0x44c
		        for(int i = 0; i < 25; i++)
 80050a6:	f8d7 3430 	ldr.w	r3, [r7, #1072]	@ 0x430
 80050aa:	3301      	adds	r3, #1
 80050ac:	f8c7 3430 	str.w	r3, [r7, #1072]	@ 0x430
 80050b0:	f8d7 3430 	ldr.w	r3, [r7, #1072]	@ 0x430
 80050b4:	2b18      	cmp	r3, #24
 80050b6:	dde5      	ble.n	8005084 <handle_character+0x15d8>
		        }
		        set_character(character_num, character_data);
 80050b8:	f507 73fc 	add.w	r3, r7, #504	@ 0x1f8
 80050bc:	4619      	mov	r1, r3
 80050be:	f8d7 0444 	ldr.w	r0, [r7, #1092]	@ 0x444
 80050c2:	f001 fc07 	bl	80068d4 <set_character>
		        printf("Character created!");
 80050c6:	485a      	ldr	r0, [pc, #360]	@ (8005230 <handle_character+0x1784>)
 80050c8:	f003 ffb2 	bl	8009030 <iprintf>
		        return;
 80050cc:	f000 bf2f 	b.w	8005f2e <handle_character+0x2482>
		}
		
		printf("Enter a number representing second equipped weapon (enter 0 if no other weapons equipped): ");
 80050d0:	4858      	ldr	r0, [pc, #352]	@ (8005234 <handle_character+0x1788>)
 80050d2:	f003 ffad 	bl	8009030 <iprintf>
		data_int = get_int_input(38, 0, input_string);
 80050d6:	f507 733e 	add.w	r3, r7, #760	@ 0x2f8
 80050da:	461a      	mov	r2, r3
 80050dc:	2100      	movs	r1, #0
 80050de:	2026      	movs	r0, #38	@ 0x26
 80050e0:	f7fe fcb2 	bl	8003a48 <get_int_input>
 80050e4:	f8c7 0448 	str.w	r0, [r7, #1096]	@ 0x448
	        if (data_int == -1000)
 80050e8:	f8d7 3448 	ldr.w	r3, [r7, #1096]	@ 0x448
 80050ec:	f513 7f7a 	cmn.w	r3, #1000	@ 0x3e8
 80050f0:	f000 8710 	beq.w	8005f14 <handle_character+0x2468>
	        {
	            return;
	        }
	        character_data[data_index] = (uint8_t)data_int;
 80050f4:	f8d7 3448 	ldr.w	r3, [r7, #1096]	@ 0x448
 80050f8:	b2d9      	uxtb	r1, r3
 80050fa:	f507 638a 	add.w	r3, r7, #1104	@ 0x450
 80050fe:	f5a3 7216 	sub.w	r2, r3, #600	@ 0x258
 8005102:	f8d7 344c 	ldr.w	r3, [r7, #1100]	@ 0x44c
 8005106:	4413      	add	r3, r2
 8005108:	460a      	mov	r2, r1
 800510a:	701a      	strb	r2, [r3, #0]
	        data_index++;
 800510c:	f8d7 344c 	ldr.w	r3, [r7, #1100]	@ 0x44c
 8005110:	3301      	adds	r3, #1
 8005112:	f8c7 344c 	str.w	r3, [r7, #1100]	@ 0x44c
		if (data_int == 0)
 8005116:	f8d7 3448 	ldr.w	r3, [r7, #1096]	@ 0x448
 800511a:	2b00      	cmp	r3, #0
 800511c:	d129      	bne.n	8005172 <handle_character+0x16c6>
		{
		        for(int i = 0; i < 24; i++)
 800511e:	2300      	movs	r3, #0
 8005120:	f8c7 342c 	str.w	r3, [r7, #1068]	@ 0x42c
 8005124:	e015      	b.n	8005152 <handle_character+0x16a6>
		        {
		                character_data[data_index] = (uint8_t)data_int;
 8005126:	f8d7 3448 	ldr.w	r3, [r7, #1096]	@ 0x448
 800512a:	b2d9      	uxtb	r1, r3
 800512c:	f507 638a 	add.w	r3, r7, #1104	@ 0x450
 8005130:	f5a3 7216 	sub.w	r2, r3, #600	@ 0x258
 8005134:	f8d7 344c 	ldr.w	r3, [r7, #1100]	@ 0x44c
 8005138:	4413      	add	r3, r2
 800513a:	460a      	mov	r2, r1
 800513c:	701a      	strb	r2, [r3, #0]
		                data_index++;
 800513e:	f8d7 344c 	ldr.w	r3, [r7, #1100]	@ 0x44c
 8005142:	3301      	adds	r3, #1
 8005144:	f8c7 344c 	str.w	r3, [r7, #1100]	@ 0x44c
		        for(int i = 0; i < 24; i++)
 8005148:	f8d7 342c 	ldr.w	r3, [r7, #1068]	@ 0x42c
 800514c:	3301      	adds	r3, #1
 800514e:	f8c7 342c 	str.w	r3, [r7, #1068]	@ 0x42c
 8005152:	f8d7 342c 	ldr.w	r3, [r7, #1068]	@ 0x42c
 8005156:	2b17      	cmp	r3, #23
 8005158:	dde5      	ble.n	8005126 <handle_character+0x167a>
		        }
		        set_character(character_num, character_data);
 800515a:	f507 73fc 	add.w	r3, r7, #504	@ 0x1f8
 800515e:	4619      	mov	r1, r3
 8005160:	f8d7 0444 	ldr.w	r0, [r7, #1092]	@ 0x444
 8005164:	f001 fbb6 	bl	80068d4 <set_character>
		        printf("Character created!");
 8005168:	4831      	ldr	r0, [pc, #196]	@ (8005230 <handle_character+0x1784>)
 800516a:	f003 ff61 	bl	8009030 <iprintf>
		        return;
 800516e:	f000 bede 	b.w	8005f2e <handle_character+0x2482>
		}
		
		printf("Enter a number representing third equipped weapon (enter 0 if no other weapons equipped): ");
 8005172:	4831      	ldr	r0, [pc, #196]	@ (8005238 <handle_character+0x178c>)
 8005174:	f003 ff5c 	bl	8009030 <iprintf>
		data_int = get_int_input(38, 0, input_string);
 8005178:	f507 733e 	add.w	r3, r7, #760	@ 0x2f8
 800517c:	461a      	mov	r2, r3
 800517e:	2100      	movs	r1, #0
 8005180:	2026      	movs	r0, #38	@ 0x26
 8005182:	f7fe fc61 	bl	8003a48 <get_int_input>
 8005186:	f8c7 0448 	str.w	r0, [r7, #1096]	@ 0x448
	        if (data_int == -1000)
 800518a:	f8d7 3448 	ldr.w	r3, [r7, #1096]	@ 0x448
 800518e:	f513 7f7a 	cmn.w	r3, #1000	@ 0x3e8
 8005192:	f000 86c1 	beq.w	8005f18 <handle_character+0x246c>
	        {
	            return;
	        }
	        character_data[data_index] = (uint8_t)data_int;
 8005196:	f8d7 3448 	ldr.w	r3, [r7, #1096]	@ 0x448
 800519a:	b2d9      	uxtb	r1, r3
 800519c:	f507 638a 	add.w	r3, r7, #1104	@ 0x450
 80051a0:	f5a3 7216 	sub.w	r2, r3, #600	@ 0x258
 80051a4:	f8d7 344c 	ldr.w	r3, [r7, #1100]	@ 0x44c
 80051a8:	4413      	add	r3, r2
 80051aa:	460a      	mov	r2, r1
 80051ac:	701a      	strb	r2, [r3, #0]
	        data_index++;
 80051ae:	f8d7 344c 	ldr.w	r3, [r7, #1100]	@ 0x44c
 80051b2:	3301      	adds	r3, #1
 80051b4:	f8c7 344c 	str.w	r3, [r7, #1100]	@ 0x44c
		if (data_int == 0)
 80051b8:	f8d7 3448 	ldr.w	r3, [r7, #1096]	@ 0x448
 80051bc:	2b00      	cmp	r3, #0
 80051be:	d163      	bne.n	8005288 <handle_character+0x17dc>
		{
		        for(int i = 0; i < 23; i++)
 80051c0:	2300      	movs	r3, #0
 80051c2:	f8c7 3428 	str.w	r3, [r7, #1064]	@ 0x428
 80051c6:	e04f      	b.n	8005268 <handle_character+0x17bc>
 80051c8:	0800b4e8 	.word	0x0800b4e8
 80051cc:	0800b548 	.word	0x0800b548
 80051d0:	0800b5a8 	.word	0x0800b5a8
 80051d4:	0800b608 	.word	0x0800b608
 80051d8:	0800b668 	.word	0x0800b668
 80051dc:	0800b6b0 	.word	0x0800b6b0
 80051e0:	0800b6c4 	.word	0x0800b6c4
 80051e4:	0800b6e8 	.word	0x0800b6e8
 80051e8:	0800b70c 	.word	0x0800b70c
 80051ec:	0800b734 	.word	0x0800b734
 80051f0:	0800b754 	.word	0x0800b754
 80051f4:	0800b77c 	.word	0x0800b77c
 80051f8:	0800b79c 	.word	0x0800b79c
 80051fc:	0800b7c0 	.word	0x0800b7c0
 8005200:	0800b7e4 	.word	0x0800b7e4
 8005204:	0800b80c 	.word	0x0800b80c
 8005208:	0800b830 	.word	0x0800b830
 800520c:	0800b858 	.word	0x0800b858
 8005210:	0800b87c 	.word	0x0800b87c
 8005214:	0800b89c 	.word	0x0800b89c
 8005218:	0800b8c0 	.word	0x0800b8c0
 800521c:	0800b8ec 	.word	0x0800b8ec
 8005220:	0800b918 	.word	0x0800b918
 8005224:	0800b93c 	.word	0x0800b93c
 8005228:	0800b960 	.word	0x0800b960
 800522c:	0800b984 	.word	0x0800b984
 8005230:	0800b9dc 	.word	0x0800b9dc
 8005234:	0800b9f0 	.word	0x0800b9f0
 8005238:	0800ba4c 	.word	0x0800ba4c
		        {
		                character_data[data_index] = (uint8_t)data_int;
 800523c:	f8d7 3448 	ldr.w	r3, [r7, #1096]	@ 0x448
 8005240:	b2d9      	uxtb	r1, r3
 8005242:	f507 638a 	add.w	r3, r7, #1104	@ 0x450
 8005246:	f5a3 7216 	sub.w	r2, r3, #600	@ 0x258
 800524a:	f8d7 344c 	ldr.w	r3, [r7, #1100]	@ 0x44c
 800524e:	4413      	add	r3, r2
 8005250:	460a      	mov	r2, r1
 8005252:	701a      	strb	r2, [r3, #0]
		                data_index++;
 8005254:	f8d7 344c 	ldr.w	r3, [r7, #1100]	@ 0x44c
 8005258:	3301      	adds	r3, #1
 800525a:	f8c7 344c 	str.w	r3, [r7, #1100]	@ 0x44c
		        for(int i = 0; i < 23; i++)
 800525e:	f8d7 3428 	ldr.w	r3, [r7, #1064]	@ 0x428
 8005262:	3301      	adds	r3, #1
 8005264:	f8c7 3428 	str.w	r3, [r7, #1064]	@ 0x428
 8005268:	f8d7 3428 	ldr.w	r3, [r7, #1064]	@ 0x428
 800526c:	2b16      	cmp	r3, #22
 800526e:	dde5      	ble.n	800523c <handle_character+0x1790>
		        }
		        set_character(character_num, character_data);
 8005270:	f507 73fc 	add.w	r3, r7, #504	@ 0x1f8
 8005274:	4619      	mov	r1, r3
 8005276:	f8d7 0444 	ldr.w	r0, [r7, #1092]	@ 0x444
 800527a:	f001 fb2b 	bl	80068d4 <set_character>
		        printf("Character created!");
 800527e:	48d2      	ldr	r0, [pc, #840]	@ (80055c8 <handle_character+0x1b1c>)
 8005280:	f003 fed6 	bl	8009030 <iprintf>
		        return;
 8005284:	f000 be53 	b.w	8005f2e <handle_character+0x2482>
		}
		
		printf("Enter a number representing fourth equipped weapon (enter 0 if no other weapons equipped): ");
 8005288:	48d0      	ldr	r0, [pc, #832]	@ (80055cc <handle_character+0x1b20>)
 800528a:	f003 fed1 	bl	8009030 <iprintf>
		data_int = get_int_input(38, 0, input_string);
 800528e:	f507 733e 	add.w	r3, r7, #760	@ 0x2f8
 8005292:	461a      	mov	r2, r3
 8005294:	2100      	movs	r1, #0
 8005296:	2026      	movs	r0, #38	@ 0x26
 8005298:	f7fe fbd6 	bl	8003a48 <get_int_input>
 800529c:	f8c7 0448 	str.w	r0, [r7, #1096]	@ 0x448
	        if (data_int == -1000)
 80052a0:	f8d7 3448 	ldr.w	r3, [r7, #1096]	@ 0x448
 80052a4:	f513 7f7a 	cmn.w	r3, #1000	@ 0x3e8
 80052a8:	f000 8638 	beq.w	8005f1c <handle_character+0x2470>
	        {
	            return;
	        }
	        character_data[data_index] = (uint8_t)data_int;
 80052ac:	f8d7 3448 	ldr.w	r3, [r7, #1096]	@ 0x448
 80052b0:	b2d9      	uxtb	r1, r3
 80052b2:	f507 638a 	add.w	r3, r7, #1104	@ 0x450
 80052b6:	f5a3 7216 	sub.w	r2, r3, #600	@ 0x258
 80052ba:	f8d7 344c 	ldr.w	r3, [r7, #1100]	@ 0x44c
 80052be:	4413      	add	r3, r2
 80052c0:	460a      	mov	r2, r1
 80052c2:	701a      	strb	r2, [r3, #0]
	        data_index++;
 80052c4:	f8d7 344c 	ldr.w	r3, [r7, #1100]	@ 0x44c
 80052c8:	3301      	adds	r3, #1
 80052ca:	f8c7 344c 	str.w	r3, [r7, #1100]	@ 0x44c
		if (data_int == 0)
 80052ce:	f8d7 3448 	ldr.w	r3, [r7, #1096]	@ 0x448
 80052d2:	2b00      	cmp	r3, #0
 80052d4:	d129      	bne.n	800532a <handle_character+0x187e>
		{
		        for(int i = 0; i < 22; i++)
 80052d6:	2300      	movs	r3, #0
 80052d8:	f8c7 3424 	str.w	r3, [r7, #1060]	@ 0x424
 80052dc:	e015      	b.n	800530a <handle_character+0x185e>
		        {
		                character_data[data_index] = (uint8_t)data_int;
 80052de:	f8d7 3448 	ldr.w	r3, [r7, #1096]	@ 0x448
 80052e2:	b2d9      	uxtb	r1, r3
 80052e4:	f507 638a 	add.w	r3, r7, #1104	@ 0x450
 80052e8:	f5a3 7216 	sub.w	r2, r3, #600	@ 0x258
 80052ec:	f8d7 344c 	ldr.w	r3, [r7, #1100]	@ 0x44c
 80052f0:	4413      	add	r3, r2
 80052f2:	460a      	mov	r2, r1
 80052f4:	701a      	strb	r2, [r3, #0]
		                data_index++;
 80052f6:	f8d7 344c 	ldr.w	r3, [r7, #1100]	@ 0x44c
 80052fa:	3301      	adds	r3, #1
 80052fc:	f8c7 344c 	str.w	r3, [r7, #1100]	@ 0x44c
		        for(int i = 0; i < 22; i++)
 8005300:	f8d7 3424 	ldr.w	r3, [r7, #1060]	@ 0x424
 8005304:	3301      	adds	r3, #1
 8005306:	f8c7 3424 	str.w	r3, [r7, #1060]	@ 0x424
 800530a:	f8d7 3424 	ldr.w	r3, [r7, #1060]	@ 0x424
 800530e:	2b15      	cmp	r3, #21
 8005310:	dde5      	ble.n	80052de <handle_character+0x1832>
		        }
		        set_character(character_num, character_data);
 8005312:	f507 73fc 	add.w	r3, r7, #504	@ 0x1f8
 8005316:	4619      	mov	r1, r3
 8005318:	f8d7 0444 	ldr.w	r0, [r7, #1092]	@ 0x444
 800531c:	f001 fada 	bl	80068d4 <set_character>
		        printf("Character created!");
 8005320:	48a9      	ldr	r0, [pc, #676]	@ (80055c8 <handle_character+0x1b1c>)
 8005322:	f003 fe85 	bl	8009030 <iprintf>
		        return;
 8005326:	f000 be02 	b.w	8005f2e <handle_character+0x2482>
		}
		
		printf("Enter a number representing fifth equipped weapon (enter 0 if no other weapons equipped): ");
 800532a:	48a9      	ldr	r0, [pc, #676]	@ (80055d0 <handle_character+0x1b24>)
 800532c:	f003 fe80 	bl	8009030 <iprintf>
		data_int = get_int_input(38, 0, input_string);
 8005330:	f507 733e 	add.w	r3, r7, #760	@ 0x2f8
 8005334:	461a      	mov	r2, r3
 8005336:	2100      	movs	r1, #0
 8005338:	2026      	movs	r0, #38	@ 0x26
 800533a:	f7fe fb85 	bl	8003a48 <get_int_input>
 800533e:	f8c7 0448 	str.w	r0, [r7, #1096]	@ 0x448
	        if (data_int == -1000)
 8005342:	f8d7 3448 	ldr.w	r3, [r7, #1096]	@ 0x448
 8005346:	f513 7f7a 	cmn.w	r3, #1000	@ 0x3e8
 800534a:	f000 85e9 	beq.w	8005f20 <handle_character+0x2474>
	        {
	            return;
	        }
	        character_data[data_index] = (uint8_t)data_int;
 800534e:	f8d7 3448 	ldr.w	r3, [r7, #1096]	@ 0x448
 8005352:	b2d9      	uxtb	r1, r3
 8005354:	f507 638a 	add.w	r3, r7, #1104	@ 0x450
 8005358:	f5a3 7216 	sub.w	r2, r3, #600	@ 0x258
 800535c:	f8d7 344c 	ldr.w	r3, [r7, #1100]	@ 0x44c
 8005360:	4413      	add	r3, r2
 8005362:	460a      	mov	r2, r1
 8005364:	701a      	strb	r2, [r3, #0]
	        data_index++;
 8005366:	f8d7 344c 	ldr.w	r3, [r7, #1100]	@ 0x44c
 800536a:	3301      	adds	r3, #1
 800536c:	f8c7 344c 	str.w	r3, [r7, #1100]	@ 0x44c
		if (data_int == 0)
 8005370:	f8d7 3448 	ldr.w	r3, [r7, #1096]	@ 0x448
 8005374:	2b00      	cmp	r3, #0
 8005376:	d129      	bne.n	80053cc <handle_character+0x1920>
		{
		        for(int i = 0; i < 21; i++)
 8005378:	2300      	movs	r3, #0
 800537a:	f8c7 3420 	str.w	r3, [r7, #1056]	@ 0x420
 800537e:	e015      	b.n	80053ac <handle_character+0x1900>
		        {
		                character_data[data_index] = (uint8_t)data_int;
 8005380:	f8d7 3448 	ldr.w	r3, [r7, #1096]	@ 0x448
 8005384:	b2d9      	uxtb	r1, r3
 8005386:	f507 638a 	add.w	r3, r7, #1104	@ 0x450
 800538a:	f5a3 7216 	sub.w	r2, r3, #600	@ 0x258
 800538e:	f8d7 344c 	ldr.w	r3, [r7, #1100]	@ 0x44c
 8005392:	4413      	add	r3, r2
 8005394:	460a      	mov	r2, r1
 8005396:	701a      	strb	r2, [r3, #0]
		                data_index++;
 8005398:	f8d7 344c 	ldr.w	r3, [r7, #1100]	@ 0x44c
 800539c:	3301      	adds	r3, #1
 800539e:	f8c7 344c 	str.w	r3, [r7, #1100]	@ 0x44c
		        for(int i = 0; i < 21; i++)
 80053a2:	f8d7 3420 	ldr.w	r3, [r7, #1056]	@ 0x420
 80053a6:	3301      	adds	r3, #1
 80053a8:	f8c7 3420 	str.w	r3, [r7, #1056]	@ 0x420
 80053ac:	f8d7 3420 	ldr.w	r3, [r7, #1056]	@ 0x420
 80053b0:	2b14      	cmp	r3, #20
 80053b2:	dde5      	ble.n	8005380 <handle_character+0x18d4>
		        }
		        set_character(character_num, character_data);
 80053b4:	f507 73fc 	add.w	r3, r7, #504	@ 0x1f8
 80053b8:	4619      	mov	r1, r3
 80053ba:	f8d7 0444 	ldr.w	r0, [r7, #1092]	@ 0x444
 80053be:	f001 fa89 	bl	80068d4 <set_character>
		        printf("Character created!");
 80053c2:	4881      	ldr	r0, [pc, #516]	@ (80055c8 <handle_character+0x1b1c>)
 80053c4:	f003 fe34 	bl	8009030 <iprintf>
		        return;
 80053c8:	f000 bdb1 	b.w	8005f2e <handle_character+0x2482>
		}
		
		printf("Enter a number representing sixth equipped weapon (enter 0 if no other weapons equipped): ");
 80053cc:	4881      	ldr	r0, [pc, #516]	@ (80055d4 <handle_character+0x1b28>)
 80053ce:	f003 fe2f 	bl	8009030 <iprintf>
		data_int = get_int_input(38, 0, input_string);
 80053d2:	f507 733e 	add.w	r3, r7, #760	@ 0x2f8
 80053d6:	461a      	mov	r2, r3
 80053d8:	2100      	movs	r1, #0
 80053da:	2026      	movs	r0, #38	@ 0x26
 80053dc:	f7fe fb34 	bl	8003a48 <get_int_input>
 80053e0:	f8c7 0448 	str.w	r0, [r7, #1096]	@ 0x448
	        if (data_int == -1000)
 80053e4:	f8d7 3448 	ldr.w	r3, [r7, #1096]	@ 0x448
 80053e8:	f513 7f7a 	cmn.w	r3, #1000	@ 0x3e8
 80053ec:	f000 859a 	beq.w	8005f24 <handle_character+0x2478>
	        {
	            return;
	        }
	        character_data[data_index] = (uint8_t)data_int;
 80053f0:	f8d7 3448 	ldr.w	r3, [r7, #1096]	@ 0x448
 80053f4:	b2d9      	uxtb	r1, r3
 80053f6:	f507 638a 	add.w	r3, r7, #1104	@ 0x450
 80053fa:	f5a3 7216 	sub.w	r2, r3, #600	@ 0x258
 80053fe:	f8d7 344c 	ldr.w	r3, [r7, #1100]	@ 0x44c
 8005402:	4413      	add	r3, r2
 8005404:	460a      	mov	r2, r1
 8005406:	701a      	strb	r2, [r3, #0]
	        data_index++;
 8005408:	f8d7 344c 	ldr.w	r3, [r7, #1100]	@ 0x44c
 800540c:	3301      	adds	r3, #1
 800540e:	f8c7 344c 	str.w	r3, [r7, #1100]	@ 0x44c
		if (data_int == 0)
 8005412:	f8d7 3448 	ldr.w	r3, [r7, #1096]	@ 0x448
 8005416:	2b00      	cmp	r3, #0
 8005418:	d129      	bne.n	800546e <handle_character+0x19c2>
		{
		        for(int i = 0; i < 20; i++)
 800541a:	2300      	movs	r3, #0
 800541c:	f8c7 341c 	str.w	r3, [r7, #1052]	@ 0x41c
 8005420:	e015      	b.n	800544e <handle_character+0x19a2>
		        {
		                character_data[data_index] = (uint8_t)data_int;
 8005422:	f8d7 3448 	ldr.w	r3, [r7, #1096]	@ 0x448
 8005426:	b2d9      	uxtb	r1, r3
 8005428:	f507 638a 	add.w	r3, r7, #1104	@ 0x450
 800542c:	f5a3 7216 	sub.w	r2, r3, #600	@ 0x258
 8005430:	f8d7 344c 	ldr.w	r3, [r7, #1100]	@ 0x44c
 8005434:	4413      	add	r3, r2
 8005436:	460a      	mov	r2, r1
 8005438:	701a      	strb	r2, [r3, #0]
		                data_index++;
 800543a:	f8d7 344c 	ldr.w	r3, [r7, #1100]	@ 0x44c
 800543e:	3301      	adds	r3, #1
 8005440:	f8c7 344c 	str.w	r3, [r7, #1100]	@ 0x44c
		        for(int i = 0; i < 20; i++)
 8005444:	f8d7 341c 	ldr.w	r3, [r7, #1052]	@ 0x41c
 8005448:	3301      	adds	r3, #1
 800544a:	f8c7 341c 	str.w	r3, [r7, #1052]	@ 0x41c
 800544e:	f8d7 341c 	ldr.w	r3, [r7, #1052]	@ 0x41c
 8005452:	2b13      	cmp	r3, #19
 8005454:	dde5      	ble.n	8005422 <handle_character+0x1976>
		        }
		        set_character(character_num, character_data);
 8005456:	f507 73fc 	add.w	r3, r7, #504	@ 0x1f8
 800545a:	4619      	mov	r1, r3
 800545c:	f8d7 0444 	ldr.w	r0, [r7, #1092]	@ 0x444
 8005460:	f001 fa38 	bl	80068d4 <set_character>
		        printf("Character created!");
 8005464:	4858      	ldr	r0, [pc, #352]	@ (80055c8 <handle_character+0x1b1c>)
 8005466:	f003 fde3 	bl	8009030 <iprintf>
		        return;
 800546a:	f000 bd60 	b.w	8005f2e <handle_character+0x2482>
		}
		printf("Enter a number representing seventh equipped weapon (enter 0 if no other weapons equipped): ");
 800546e:	485a      	ldr	r0, [pc, #360]	@ (80055d8 <handle_character+0x1b2c>)
 8005470:	f003 fdde 	bl	8009030 <iprintf>
		data_int = get_int_input(38, 0, input_string);
 8005474:	f507 733e 	add.w	r3, r7, #760	@ 0x2f8
 8005478:	461a      	mov	r2, r3
 800547a:	2100      	movs	r1, #0
 800547c:	2026      	movs	r0, #38	@ 0x26
 800547e:	f7fe fae3 	bl	8003a48 <get_int_input>
 8005482:	f8c7 0448 	str.w	r0, [r7, #1096]	@ 0x448
	        if (data_int == -1000)
 8005486:	f8d7 3448 	ldr.w	r3, [r7, #1096]	@ 0x448
 800548a:	f513 7f7a 	cmn.w	r3, #1000	@ 0x3e8
 800548e:	f000 854b 	beq.w	8005f28 <handle_character+0x247c>
	        {
	            return;
	        }
	        character_data[data_index] = (uint8_t)data_int;
 8005492:	f8d7 3448 	ldr.w	r3, [r7, #1096]	@ 0x448
 8005496:	b2d9      	uxtb	r1, r3
 8005498:	f507 638a 	add.w	r3, r7, #1104	@ 0x450
 800549c:	f5a3 7216 	sub.w	r2, r3, #600	@ 0x258
 80054a0:	f8d7 344c 	ldr.w	r3, [r7, #1100]	@ 0x44c
 80054a4:	4413      	add	r3, r2
 80054a6:	460a      	mov	r2, r1
 80054a8:	701a      	strb	r2, [r3, #0]
	        data_index++;
 80054aa:	f8d7 344c 	ldr.w	r3, [r7, #1100]	@ 0x44c
 80054ae:	3301      	adds	r3, #1
 80054b0:	f8c7 344c 	str.w	r3, [r7, #1100]	@ 0x44c
		if (data_int == 0)
 80054b4:	f8d7 3448 	ldr.w	r3, [r7, #1096]	@ 0x448
 80054b8:	2b00      	cmp	r3, #0
 80054ba:	d129      	bne.n	8005510 <handle_character+0x1a64>
		{
		        for(int i = 0; i < 19; i++)
 80054bc:	2300      	movs	r3, #0
 80054be:	f8c7 3418 	str.w	r3, [r7, #1048]	@ 0x418
 80054c2:	e015      	b.n	80054f0 <handle_character+0x1a44>
		        {
		                character_data[data_index] = (uint8_t)data_int;
 80054c4:	f8d7 3448 	ldr.w	r3, [r7, #1096]	@ 0x448
 80054c8:	b2d9      	uxtb	r1, r3
 80054ca:	f507 638a 	add.w	r3, r7, #1104	@ 0x450
 80054ce:	f5a3 7216 	sub.w	r2, r3, #600	@ 0x258
 80054d2:	f8d7 344c 	ldr.w	r3, [r7, #1100]	@ 0x44c
 80054d6:	4413      	add	r3, r2
 80054d8:	460a      	mov	r2, r1
 80054da:	701a      	strb	r2, [r3, #0]
		                data_index++;
 80054dc:	f8d7 344c 	ldr.w	r3, [r7, #1100]	@ 0x44c
 80054e0:	3301      	adds	r3, #1
 80054e2:	f8c7 344c 	str.w	r3, [r7, #1100]	@ 0x44c
		        for(int i = 0; i < 19; i++)
 80054e6:	f8d7 3418 	ldr.w	r3, [r7, #1048]	@ 0x418
 80054ea:	3301      	adds	r3, #1
 80054ec:	f8c7 3418 	str.w	r3, [r7, #1048]	@ 0x418
 80054f0:	f8d7 3418 	ldr.w	r3, [r7, #1048]	@ 0x418
 80054f4:	2b12      	cmp	r3, #18
 80054f6:	dde5      	ble.n	80054c4 <handle_character+0x1a18>
		        }
		        set_character(character_num, character_data);
 80054f8:	f507 73fc 	add.w	r3, r7, #504	@ 0x1f8
 80054fc:	4619      	mov	r1, r3
 80054fe:	f8d7 0444 	ldr.w	r0, [r7, #1092]	@ 0x444
 8005502:	f001 f9e7 	bl	80068d4 <set_character>
		        printf("Character created!");
 8005506:	4830      	ldr	r0, [pc, #192]	@ (80055c8 <handle_character+0x1b1c>)
 8005508:	f003 fd92 	bl	8009030 <iprintf>
		        return;
 800550c:	f000 bd0f 	b.w	8005f2e <handle_character+0x2482>
		}
		printf("Enter a number representing eighth equipped weapon (enter 0 if no other weapons equipped): ");
 8005510:	4832      	ldr	r0, [pc, #200]	@ (80055dc <handle_character+0x1b30>)
 8005512:	f003 fd8d 	bl	8009030 <iprintf>
		data_int = get_int_input(38, 0, input_string);
 8005516:	f507 733e 	add.w	r3, r7, #760	@ 0x2f8
 800551a:	461a      	mov	r2, r3
 800551c:	2100      	movs	r1, #0
 800551e:	2026      	movs	r0, #38	@ 0x26
 8005520:	f7fe fa92 	bl	8003a48 <get_int_input>
 8005524:	f8c7 0448 	str.w	r0, [r7, #1096]	@ 0x448
	        if (data_int == -1000)
 8005528:	f8d7 3448 	ldr.w	r3, [r7, #1096]	@ 0x448
 800552c:	f513 7f7a 	cmn.w	r3, #1000	@ 0x3e8
 8005530:	f000 84fc 	beq.w	8005f2c <handle_character+0x2480>
	        {
	            return;
	        }
	        character_data[data_index] = (uint8_t)data_int;
 8005534:	f8d7 3448 	ldr.w	r3, [r7, #1096]	@ 0x448
 8005538:	b2d9      	uxtb	r1, r3
 800553a:	f507 638a 	add.w	r3, r7, #1104	@ 0x450
 800553e:	f5a3 7216 	sub.w	r2, r3, #600	@ 0x258
 8005542:	f8d7 344c 	ldr.w	r3, [r7, #1100]	@ 0x44c
 8005546:	4413      	add	r3, r2
 8005548:	460a      	mov	r2, r1
 800554a:	701a      	strb	r2, [r3, #0]
	        data_index++;
 800554c:	f8d7 344c 	ldr.w	r3, [r7, #1100]	@ 0x44c
 8005550:	3301      	adds	r3, #1
 8005552:	f8c7 344c 	str.w	r3, [r7, #1100]	@ 0x44c
	        
		for(int i = 0; i < 18; i++)
 8005556:	2300      	movs	r3, #0
 8005558:	f8c7 3414 	str.w	r3, [r7, #1044]	@ 0x414
 800555c:	e015      	b.n	800558a <handle_character+0x1ade>
		{
				character_data[data_index] = (uint8_t)data_int;
 800555e:	f8d7 3448 	ldr.w	r3, [r7, #1096]	@ 0x448
 8005562:	b2d9      	uxtb	r1, r3
 8005564:	f507 638a 	add.w	r3, r7, #1104	@ 0x450
 8005568:	f5a3 7216 	sub.w	r2, r3, #600	@ 0x258
 800556c:	f8d7 344c 	ldr.w	r3, [r7, #1100]	@ 0x44c
 8005570:	4413      	add	r3, r2
 8005572:	460a      	mov	r2, r1
 8005574:	701a      	strb	r2, [r3, #0]
				data_index++;
 8005576:	f8d7 344c 	ldr.w	r3, [r7, #1100]	@ 0x44c
 800557a:	3301      	adds	r3, #1
 800557c:	f8c7 344c 	str.w	r3, [r7, #1100]	@ 0x44c
		for(int i = 0; i < 18; i++)
 8005580:	f8d7 3414 	ldr.w	r3, [r7, #1044]	@ 0x414
 8005584:	3301      	adds	r3, #1
 8005586:	f8c7 3414 	str.w	r3, [r7, #1044]	@ 0x414
 800558a:	f8d7 3414 	ldr.w	r3, [r7, #1044]	@ 0x414
 800558e:	2b11      	cmp	r3, #17
 8005590:	dde5      	ble.n	800555e <handle_character+0x1ab2>
		}
		printf("Writing to memory, be patient...\r\n");
 8005592:	4813      	ldr	r0, [pc, #76]	@ (80055e0 <handle_character+0x1b34>)
 8005594:	f003 fdbc 	bl	8009110 <puts>
		int result = set_character(character_num, character_data);
 8005598:	f507 73fc 	add.w	r3, r7, #504	@ 0x1f8
 800559c:	4619      	mov	r1, r3
 800559e:	f8d7 0444 	ldr.w	r0, [r7, #1092]	@ 0x444
 80055a2:	f001 f997 	bl	80068d4 <set_character>
 80055a6:	f8c7 03f8 	str.w	r0, [r7, #1016]	@ 0x3f8
		if (result == 1)
 80055aa:	f8d7 33f8 	ldr.w	r3, [r7, #1016]	@ 0x3f8
 80055ae:	2b01      	cmp	r3, #1
 80055b0:	d104      	bne.n	80055bc <handle_character+0x1b10>
		{
			printf("Character created!\r\n");
 80055b2:	480c      	ldr	r0, [pc, #48]	@ (80055e4 <handle_character+0x1b38>)
 80055b4:	f003 fdac 	bl	8009110 <puts>
		else
		{
			printf("Something went wrong!\r\n");
		}

		return;
 80055b8:	f000 bcb9 	b.w	8005f2e <handle_character+0x2482>
			printf("Something went wrong!\r\n");
 80055bc:	480a      	ldr	r0, [pc, #40]	@ (80055e8 <handle_character+0x1b3c>)
 80055be:	f003 fda7 	bl	8009110 <puts>
		return;
 80055c2:	f000 bcb4 	b.w	8005f2e <handle_character+0x2482>
 80055c6:	bf00      	nop
 80055c8:	0800b9dc 	.word	0x0800b9dc
 80055cc:	0800baa8 	.word	0x0800baa8
 80055d0:	0800bb04 	.word	0x0800bb04
 80055d4:	0800bb60 	.word	0x0800bb60
 80055d8:	0800bbbc 	.word	0x0800bbbc
 80055dc:	0800bc1c 	.word	0x0800bc1c
 80055e0:	0800bc78 	.word	0x0800bc78
 80055e4:	0800bc9c 	.word	0x0800bc9c
 80055e8:	0800bcb0 	.word	0x0800bcb0
	}

	if (strcasecmp(argv[1], "READ") == 0)
 80055ec:	f507 638a 	add.w	r3, r7, #1104	@ 0x450
 80055f0:	f5a3 735e 	sub.w	r3, r3, #888	@ 0x378
 80055f4:	681b      	ldr	r3, [r3, #0]
 80055f6:	f503 7380 	add.w	r3, r3, #256	@ 0x100
 80055fa:	4925      	ldr	r1, [pc, #148]	@ (8005690 <handle_character+0x1be4>)
 80055fc:	4618      	mov	r0, r3
 80055fe:	f003 fea9 	bl	8009354 <strcasecmp>
 8005602:	4603      	mov	r3, r0
 8005604:	2b00      	cmp	r3, #0
 8005606:	f040 82df 	bne.w	8005bc8 <handle_character+0x211c>
	{
		if (argc < 3)
 800560a:	f507 638a 	add.w	r3, r7, #1104	@ 0x450
 800560e:	f5a3 735d 	sub.w	r3, r3, #884	@ 0x374
 8005612:	681b      	ldr	r3, [r3, #0]
 8005614:	2b02      	cmp	r3, #2
 8005616:	dc0d      	bgt.n	8005634 <handle_character+0x1b88>
		{
			unknown_command(argc, argv);
 8005618:	f507 638a 	add.w	r3, r7, #1104	@ 0x450
 800561c:	f5a3 725e 	sub.w	r2, r3, #888	@ 0x378
 8005620:	f507 638a 	add.w	r3, r7, #1104	@ 0x450
 8005624:	f5a3 735d 	sub.w	r3, r3, #884	@ 0x374
 8005628:	6811      	ldr	r1, [r2, #0]
 800562a:	6818      	ldr	r0, [r3, #0]
 800562c:	f7fd ff78 	bl	8003520 <unknown_command>
			return;
 8005630:	f000 bc7d 	b.w	8005f2e <handle_character+0x2482>
		}
		int character_num = atoi(argv[2]);
 8005634:	f507 638a 	add.w	r3, r7, #1104	@ 0x450
 8005638:	f5a3 735e 	sub.w	r3, r3, #888	@ 0x378
 800563c:	681b      	ldr	r3, [r3, #0]
 800563e:	f503 7300 	add.w	r3, r3, #512	@ 0x200
 8005642:	4618      	mov	r0, r3
 8005644:	f003 fb7a 	bl	8008d3c <atoi>
 8005648:	f8c7 03fc 	str.w	r0, [r7, #1020]	@ 0x3fc
		if (character_num > 6 || character_num < 1)
 800564c:	f8d7 33fc 	ldr.w	r3, [r7, #1020]	@ 0x3fc
 8005650:	2b06      	cmp	r3, #6
 8005652:	dc03      	bgt.n	800565c <handle_character+0x1bb0>
 8005654:	f8d7 33fc 	ldr.w	r3, [r7, #1020]	@ 0x3fc
 8005658:	2b00      	cmp	r3, #0
 800565a:	dc04      	bgt.n	8005666 <handle_character+0x1bba>
		{
		        printf("Invalid input!\r\n");
 800565c:	480d      	ldr	r0, [pc, #52]	@ (8005694 <handle_character+0x1be8>)
 800565e:	f003 fd57 	bl	8009110 <puts>
		        return;
 8005662:	f000 bc64 	b.w	8005f2e <handle_character+0x2482>
		}
		character_t c = get_character(character_num);
 8005666:	f507 638a 	add.w	r3, r7, #1104	@ 0x450
 800566a:	f5a3 734b 	sub.w	r3, r3, #812	@ 0x32c
 800566e:	f8d7 13fc 	ldr.w	r1, [r7, #1020]	@ 0x3fc
 8005672:	4618      	mov	r0, r3
 8005674:	f000 fd5e 	bl	8006134 <get_character>
		if (c.name[0] == 0)
 8005678:	f507 638a 	add.w	r3, r7, #1104	@ 0x450
 800567c:	f5a3 734b 	sub.w	r3, r3, #812	@ 0x32c
 8005680:	781b      	ldrb	r3, [r3, #0]
 8005682:	2b00      	cmp	r3, #0
 8005684:	d10a      	bne.n	800569c <handle_character+0x1bf0>
		{
			printf("A character does not exist in this slot!\r\n");
 8005686:	4804      	ldr	r0, [pc, #16]	@ (8005698 <handle_character+0x1bec>)
 8005688:	f003 fd42 	bl	8009110 <puts>
			return;
 800568c:	f000 bc4f 	b.w	8005f2e <handle_character+0x2482>
 8005690:	0800bcc8 	.word	0x0800bcc8
 8005694:	0800a68c 	.word	0x0800a68c
 8005698:	0800a69c 	.word	0x0800a69c
		}
		printf("===General Info===\r\n");
 800569c:	48ea      	ldr	r0, [pc, #936]	@ (8005a48 <handle_character+0x1f9c>)
 800569e:	f003 fd37 	bl	8009110 <puts>
		printf("Name: %s\r\n", c.name);
 80056a2:	f507 7392 	add.w	r3, r7, #292	@ 0x124
 80056a6:	4619      	mov	r1, r3
 80056a8:	48e8      	ldr	r0, [pc, #928]	@ (8005a4c <handle_character+0x1fa0>)
 80056aa:	f003 fcc1 	bl	8009030 <iprintf>
		printf("Species: %d\r\n", (int)c.species); //implement species lookup table
 80056ae:	f507 638a 	add.w	r3, r7, #1104	@ 0x450
 80056b2:	f5a3 734b 	sub.w	r3, r3, #812	@ 0x32c
 80056b6:	f893 3040 	ldrb.w	r3, [r3, #64]	@ 0x40
 80056ba:	4619      	mov	r1, r3
 80056bc:	48e4      	ldr	r0, [pc, #912]	@ (8005a50 <handle_character+0x1fa4>)
 80056be:	f003 fcb7 	bl	8009030 <iprintf>
		printf("Primary Class & Subclass: %d, Level: %d\r\n", (int)c.primary_class_subclass, (int)c.primary_level); //implement class_subclass lookup table
 80056c2:	f507 638a 	add.w	r3, r7, #1104	@ 0x450
 80056c6:	f5a3 734b 	sub.w	r3, r3, #812	@ 0x32c
 80056ca:	f893 3041 	ldrb.w	r3, [r3, #65]	@ 0x41
 80056ce:	4619      	mov	r1, r3
 80056d0:	f507 638a 	add.w	r3, r7, #1104	@ 0x450
 80056d4:	f5a3 734b 	sub.w	r3, r3, #812	@ 0x32c
 80056d8:	f893 3042 	ldrb.w	r3, [r3, #66]	@ 0x42
 80056dc:	461a      	mov	r2, r3
 80056de:	48dd      	ldr	r0, [pc, #884]	@ (8005a54 <handle_character+0x1fa8>)
 80056e0:	f003 fca6 	bl	8009030 <iprintf>
		printf("Secondary Class & Subclass: %d, Level: %d\r\n", (int)c.secondary_class_subclass, (int)c.secondary_level);
 80056e4:	f507 638a 	add.w	r3, r7, #1104	@ 0x450
 80056e8:	f5a3 734b 	sub.w	r3, r3, #812	@ 0x32c
 80056ec:	f893 3043 	ldrb.w	r3, [r3, #67]	@ 0x43
 80056f0:	4619      	mov	r1, r3
 80056f2:	f507 638a 	add.w	r3, r7, #1104	@ 0x450
 80056f6:	f5a3 734b 	sub.w	r3, r3, #812	@ 0x32c
 80056fa:	f893 3044 	ldrb.w	r3, [r3, #68]	@ 0x44
 80056fe:	461a      	mov	r2, r3
 8005700:	48d5      	ldr	r0, [pc, #852]	@ (8005a58 <handle_character+0x1fac>)
 8005702:	f003 fc95 	bl	8009030 <iprintf>
		printf("Tertiary Class & Subclass: %d, Level: %d\r\n", (int)c.tertiary_class_subclass, (int)c.tertiary_level);
 8005706:	f507 638a 	add.w	r3, r7, #1104	@ 0x450
 800570a:	f5a3 734b 	sub.w	r3, r3, #812	@ 0x32c
 800570e:	f893 3045 	ldrb.w	r3, [r3, #69]	@ 0x45
 8005712:	4619      	mov	r1, r3
 8005714:	f507 638a 	add.w	r3, r7, #1104	@ 0x450
 8005718:	f5a3 734b 	sub.w	r3, r3, #812	@ 0x32c
 800571c:	f893 3046 	ldrb.w	r3, [r3, #70]	@ 0x46
 8005720:	461a      	mov	r2, r3
 8005722:	48ce      	ldr	r0, [pc, #824]	@ (8005a5c <handle_character+0x1fb0>)
 8005724:	f003 fc84 	bl	8009030 <iprintf>
		printf("Proficiency Bonus: %d   Armor Class: %d    Initiative: %d\r\n", (int)c.proficiency_bonus, (int)c.armor_class, (int)c.initiative);
 8005728:	f507 638a 	add.w	r3, r7, #1104	@ 0x450
 800572c:	f5a3 734b 	sub.w	r3, r3, #812	@ 0x32c
 8005730:	f893 304f 	ldrb.w	r3, [r3, #79]	@ 0x4f
 8005734:	4619      	mov	r1, r3
 8005736:	f507 638a 	add.w	r3, r7, #1104	@ 0x450
 800573a:	f5a3 734b 	sub.w	r3, r3, #812	@ 0x32c
 800573e:	f893 3050 	ldrb.w	r3, [r3, #80]	@ 0x50
 8005742:	461a      	mov	r2, r3
 8005744:	f507 638a 	add.w	r3, r7, #1104	@ 0x450
 8005748:	f5a3 734b 	sub.w	r3, r3, #812	@ 0x32c
 800574c:	f893 3051 	ldrb.w	r3, [r3, #81]	@ 0x51
 8005750:	48c3      	ldr	r0, [pc, #780]	@ (8005a60 <handle_character+0x1fb4>)
 8005752:	f003 fc6d 	bl	8009030 <iprintf>
		printf("Current Hit Points: %d   Max Hit Points: %d  Temporary Hit Points: %d\r\n", (int)c.current_hit_points, (int)c.maximum_hit_points, (int)c.temporary_hit_points);
 8005756:	f507 638a 	add.w	r3, r7, #1104	@ 0x450
 800575a:	f5a3 734b 	sub.w	r3, r3, #812	@ 0x32c
 800575e:	f893 3052 	ldrb.w	r3, [r3, #82]	@ 0x52
 8005762:	4619      	mov	r1, r3
 8005764:	f507 638a 	add.w	r3, r7, #1104	@ 0x450
 8005768:	f5a3 734b 	sub.w	r3, r3, #812	@ 0x32c
 800576c:	f893 3053 	ldrb.w	r3, [r3, #83]	@ 0x53
 8005770:	461a      	mov	r2, r3
 8005772:	f507 638a 	add.w	r3, r7, #1104	@ 0x450
 8005776:	f5a3 734b 	sub.w	r3, r3, #812	@ 0x32c
 800577a:	f893 3054 	ldrb.w	r3, [r3, #84]	@ 0x54
 800577e:	48b9      	ldr	r0, [pc, #740]	@ (8005a64 <handle_character+0x1fb8>)
 8005780:	f003 fc56 	bl	8009030 <iprintf>
		printf("Strength Ability Modifier: %d   Strength Saving Throw Modifier: %d\r\n", (int)c.strength_ability_modifier, (int)c.strength_saving_throw_modifier);
 8005784:	f507 638a 	add.w	r3, r7, #1104	@ 0x450
 8005788:	f5a3 734b 	sub.w	r3, r3, #812	@ 0x32c
 800578c:	f893 3055 	ldrb.w	r3, [r3, #85]	@ 0x55
 8005790:	4619      	mov	r1, r3
 8005792:	f507 638a 	add.w	r3, r7, #1104	@ 0x450
 8005796:	f5a3 734b 	sub.w	r3, r3, #812	@ 0x32c
 800579a:	f893 3056 	ldrb.w	r3, [r3, #86]	@ 0x56
 800579e:	461a      	mov	r2, r3
 80057a0:	48b1      	ldr	r0, [pc, #708]	@ (8005a68 <handle_character+0x1fbc>)
 80057a2:	f003 fc45 	bl	8009030 <iprintf>
		printf("Dexterity Ability Modifier: %d   Dexterity Saving Throw Modifier: %d\r\n", (int)c.dexterity_ability_modifier, (int)c.dexterity_saving_throw_modifier);
 80057a6:	f507 638a 	add.w	r3, r7, #1104	@ 0x450
 80057aa:	f5a3 734b 	sub.w	r3, r3, #812	@ 0x32c
 80057ae:	f893 3057 	ldrb.w	r3, [r3, #87]	@ 0x57
 80057b2:	4619      	mov	r1, r3
 80057b4:	f507 638a 	add.w	r3, r7, #1104	@ 0x450
 80057b8:	f5a3 734b 	sub.w	r3, r3, #812	@ 0x32c
 80057bc:	f893 3058 	ldrb.w	r3, [r3, #88]	@ 0x58
 80057c0:	461a      	mov	r2, r3
 80057c2:	48aa      	ldr	r0, [pc, #680]	@ (8005a6c <handle_character+0x1fc0>)
 80057c4:	f003 fc34 	bl	8009030 <iprintf>
		printf("Constitution Ability Modifier: %d  Constitution Saving Throw Modifier: %d\r\n", (int)c.constitution_ability_modifier, (int)c.constitution_saving_throw_modifier);
 80057c8:	f507 638a 	add.w	r3, r7, #1104	@ 0x450
 80057cc:	f5a3 734b 	sub.w	r3, r3, #812	@ 0x32c
 80057d0:	f893 3059 	ldrb.w	r3, [r3, #89]	@ 0x59
 80057d4:	4619      	mov	r1, r3
 80057d6:	f507 638a 	add.w	r3, r7, #1104	@ 0x450
 80057da:	f5a3 734b 	sub.w	r3, r3, #812	@ 0x32c
 80057de:	f893 305a 	ldrb.w	r3, [r3, #90]	@ 0x5a
 80057e2:	461a      	mov	r2, r3
 80057e4:	48a2      	ldr	r0, [pc, #648]	@ (8005a70 <handle_character+0x1fc4>)
 80057e6:	f003 fc23 	bl	8009030 <iprintf>
		printf("Intelligence Ability Modifier: %d  Intelligence Saving Throw Modifier: %d\r\n", (int)c.intelligence_ability_modifier, (int)c.intelligence_saving_throw_modifier);
 80057ea:	f507 638a 	add.w	r3, r7, #1104	@ 0x450
 80057ee:	f5a3 734b 	sub.w	r3, r3, #812	@ 0x32c
 80057f2:	f893 305b 	ldrb.w	r3, [r3, #91]	@ 0x5b
 80057f6:	4619      	mov	r1, r3
 80057f8:	f507 638a 	add.w	r3, r7, #1104	@ 0x450
 80057fc:	f5a3 734b 	sub.w	r3, r3, #812	@ 0x32c
 8005800:	f893 305c 	ldrb.w	r3, [r3, #92]	@ 0x5c
 8005804:	461a      	mov	r2, r3
 8005806:	489b      	ldr	r0, [pc, #620]	@ (8005a74 <handle_character+0x1fc8>)
 8005808:	f003 fc12 	bl	8009030 <iprintf>
		printf("Wisdom Ability Modifier: %d  Wisdom Saving Throw Modifier: %d\r\n", (int)c.wisdom_ability_modifier, (int)c.wisdom_saving_throw_modifier);
 800580c:	f507 638a 	add.w	r3, r7, #1104	@ 0x450
 8005810:	f5a3 734b 	sub.w	r3, r3, #812	@ 0x32c
 8005814:	f893 305d 	ldrb.w	r3, [r3, #93]	@ 0x5d
 8005818:	4619      	mov	r1, r3
 800581a:	f507 638a 	add.w	r3, r7, #1104	@ 0x450
 800581e:	f5a3 734b 	sub.w	r3, r3, #812	@ 0x32c
 8005822:	f893 305e 	ldrb.w	r3, [r3, #94]	@ 0x5e
 8005826:	461a      	mov	r2, r3
 8005828:	4893      	ldr	r0, [pc, #588]	@ (8005a78 <handle_character+0x1fcc>)
 800582a:	f003 fc01 	bl	8009030 <iprintf>
		printf("Charisma Ability Modifier: %d  Charisma Saving Throw Modifier: %d\r\n", (int)c.charisma_ability_modifier, (int)c.charisma_saving_throw_modifier);
 800582e:	f507 638a 	add.w	r3, r7, #1104	@ 0x450
 8005832:	f5a3 734b 	sub.w	r3, r3, #812	@ 0x32c
 8005836:	f893 305f 	ldrb.w	r3, [r3, #95]	@ 0x5f
 800583a:	4619      	mov	r1, r3
 800583c:	f507 638a 	add.w	r3, r7, #1104	@ 0x450
 8005840:	f5a3 734b 	sub.w	r3, r3, #812	@ 0x32c
 8005844:	f893 3060 	ldrb.w	r3, [r3, #96]	@ 0x60
 8005848:	461a      	mov	r2, r3
 800584a:	488c      	ldr	r0, [pc, #560]	@ (8005a7c <handle_character+0x1fd0>)
 800584c:	f003 fbf0 	bl	8009030 <iprintf>
		printf("===Skills===\r\n");
 8005850:	488b      	ldr	r0, [pc, #556]	@ (8005a80 <handle_character+0x1fd4>)
 8005852:	f003 fc5d 	bl	8009110 <puts>
		printf("Acrobatics Skill Modifier: %d\r\n", (int)c.acrobatics_skill_modifier);
 8005856:	f507 638a 	add.w	r3, r7, #1104	@ 0x450
 800585a:	f5a3 734b 	sub.w	r3, r3, #812	@ 0x32c
 800585e:	f893 308b 	ldrb.w	r3, [r3, #139]	@ 0x8b
 8005862:	4619      	mov	r1, r3
 8005864:	4887      	ldr	r0, [pc, #540]	@ (8005a84 <handle_character+0x1fd8>)
 8005866:	f003 fbe3 	bl	8009030 <iprintf>
		printf("Animal Handling Skill Modifier: %d\r\n", (int)c.animal_handling_skill_modifier);
 800586a:	f507 638a 	add.w	r3, r7, #1104	@ 0x450
 800586e:	f5a3 734b 	sub.w	r3, r3, #812	@ 0x32c
 8005872:	f893 308c 	ldrb.w	r3, [r3, #140]	@ 0x8c
 8005876:	4619      	mov	r1, r3
 8005878:	4883      	ldr	r0, [pc, #524]	@ (8005a88 <handle_character+0x1fdc>)
 800587a:	f003 fbd9 	bl	8009030 <iprintf>
		printf("Arcana Skill Modifier: %d\r\n", (int)c.arcana_skill_modifier);
 800587e:	f507 638a 	add.w	r3, r7, #1104	@ 0x450
 8005882:	f5a3 734b 	sub.w	r3, r3, #812	@ 0x32c
 8005886:	f893 308d 	ldrb.w	r3, [r3, #141]	@ 0x8d
 800588a:	4619      	mov	r1, r3
 800588c:	487f      	ldr	r0, [pc, #508]	@ (8005a8c <handle_character+0x1fe0>)
 800588e:	f003 fbcf 	bl	8009030 <iprintf>
		printf("Athletics Skill Modifier: %d\r\n", (int)c.athletics_skill_modifier);
 8005892:	f507 638a 	add.w	r3, r7, #1104	@ 0x450
 8005896:	f5a3 734b 	sub.w	r3, r3, #812	@ 0x32c
 800589a:	f893 308e 	ldrb.w	r3, [r3, #142]	@ 0x8e
 800589e:	4619      	mov	r1, r3
 80058a0:	487b      	ldr	r0, [pc, #492]	@ (8005a90 <handle_character+0x1fe4>)
 80058a2:	f003 fbc5 	bl	8009030 <iprintf>
		printf("Deception Skill Modifier: %d\r\n", (int)c.deception_skill_modifier);
 80058a6:	f507 638a 	add.w	r3, r7, #1104	@ 0x450
 80058aa:	f5a3 734b 	sub.w	r3, r3, #812	@ 0x32c
 80058ae:	f893 308f 	ldrb.w	r3, [r3, #143]	@ 0x8f
 80058b2:	4619      	mov	r1, r3
 80058b4:	4877      	ldr	r0, [pc, #476]	@ (8005a94 <handle_character+0x1fe8>)
 80058b6:	f003 fbbb 	bl	8009030 <iprintf>
		printf("History Skill Modifier: %d\r\n", (int)c.history_skill_modifier);
 80058ba:	f507 638a 	add.w	r3, r7, #1104	@ 0x450
 80058be:	f5a3 734b 	sub.w	r3, r3, #812	@ 0x32c
 80058c2:	f893 3090 	ldrb.w	r3, [r3, #144]	@ 0x90
 80058c6:	4619      	mov	r1, r3
 80058c8:	4873      	ldr	r0, [pc, #460]	@ (8005a98 <handle_character+0x1fec>)
 80058ca:	f003 fbb1 	bl	8009030 <iprintf>
		printf("Insight Skill Modifier: %d\r\n", (int)c.insight_skill_modifier);
 80058ce:	f507 638a 	add.w	r3, r7, #1104	@ 0x450
 80058d2:	f5a3 734b 	sub.w	r3, r3, #812	@ 0x32c
 80058d6:	f893 3091 	ldrb.w	r3, [r3, #145]	@ 0x91
 80058da:	4619      	mov	r1, r3
 80058dc:	486f      	ldr	r0, [pc, #444]	@ (8005a9c <handle_character+0x1ff0>)
 80058de:	f003 fba7 	bl	8009030 <iprintf>
		printf("Intimidation Skill Modifier: %d\r\n", (int)c.intimidation_skill_modifier);
 80058e2:	f507 638a 	add.w	r3, r7, #1104	@ 0x450
 80058e6:	f5a3 734b 	sub.w	r3, r3, #812	@ 0x32c
 80058ea:	f893 3092 	ldrb.w	r3, [r3, #146]	@ 0x92
 80058ee:	4619      	mov	r1, r3
 80058f0:	486b      	ldr	r0, [pc, #428]	@ (8005aa0 <handle_character+0x1ff4>)
 80058f2:	f003 fb9d 	bl	8009030 <iprintf>
		printf("Investigation Skill Modifier: %d\r\n", (int)c.investigation_skill_modifier);
 80058f6:	f507 638a 	add.w	r3, r7, #1104	@ 0x450
 80058fa:	f5a3 734b 	sub.w	r3, r3, #812	@ 0x32c
 80058fe:	f893 3093 	ldrb.w	r3, [r3, #147]	@ 0x93
 8005902:	4619      	mov	r1, r3
 8005904:	4867      	ldr	r0, [pc, #412]	@ (8005aa4 <handle_character+0x1ff8>)
 8005906:	f003 fb93 	bl	8009030 <iprintf>
		printf("Medicine Skill Modifier: %d\r\n", (int)c.medicine_skill_modifier);
 800590a:	f507 638a 	add.w	r3, r7, #1104	@ 0x450
 800590e:	f5a3 734b 	sub.w	r3, r3, #812	@ 0x32c
 8005912:	f893 3094 	ldrb.w	r3, [r3, #148]	@ 0x94
 8005916:	4619      	mov	r1, r3
 8005918:	4863      	ldr	r0, [pc, #396]	@ (8005aa8 <handle_character+0x1ffc>)
 800591a:	f003 fb89 	bl	8009030 <iprintf>
		printf("Nature Skill Modifier: %d\r\n", (int)c.nature_skill_modifier);
 800591e:	f507 638a 	add.w	r3, r7, #1104	@ 0x450
 8005922:	f5a3 734b 	sub.w	r3, r3, #812	@ 0x32c
 8005926:	f893 3095 	ldrb.w	r3, [r3, #149]	@ 0x95
 800592a:	4619      	mov	r1, r3
 800592c:	485f      	ldr	r0, [pc, #380]	@ (8005aac <handle_character+0x2000>)
 800592e:	f003 fb7f 	bl	8009030 <iprintf>
		printf("Perception Skill Modifier: %d\r\n", (int)c.perception_skill_modifier);
 8005932:	f507 638a 	add.w	r3, r7, #1104	@ 0x450
 8005936:	f5a3 734b 	sub.w	r3, r3, #812	@ 0x32c
 800593a:	f893 3096 	ldrb.w	r3, [r3, #150]	@ 0x96
 800593e:	4619      	mov	r1, r3
 8005940:	485b      	ldr	r0, [pc, #364]	@ (8005ab0 <handle_character+0x2004>)
 8005942:	f003 fb75 	bl	8009030 <iprintf>
		printf("Performance Skill Modifier: %d\r\n", (int)c.performance_skill_modifier);
 8005946:	f507 638a 	add.w	r3, r7, #1104	@ 0x450
 800594a:	f5a3 734b 	sub.w	r3, r3, #812	@ 0x32c
 800594e:	f893 3097 	ldrb.w	r3, [r3, #151]	@ 0x97
 8005952:	4619      	mov	r1, r3
 8005954:	4857      	ldr	r0, [pc, #348]	@ (8005ab4 <handle_character+0x2008>)
 8005956:	f003 fb6b 	bl	8009030 <iprintf>
		printf("Persuasion Skill Modifier: %d\r\n", (int)c.persuasion_skill_modifier);
 800595a:	f507 638a 	add.w	r3, r7, #1104	@ 0x450
 800595e:	f5a3 734b 	sub.w	r3, r3, #812	@ 0x32c
 8005962:	f893 3098 	ldrb.w	r3, [r3, #152]	@ 0x98
 8005966:	4619      	mov	r1, r3
 8005968:	4853      	ldr	r0, [pc, #332]	@ (8005ab8 <handle_character+0x200c>)
 800596a:	f003 fb61 	bl	8009030 <iprintf>
		printf("Religion Skill Modifier: %d\r\n", (int)c.religion_skill_modifier);
 800596e:	f507 638a 	add.w	r3, r7, #1104	@ 0x450
 8005972:	f5a3 734b 	sub.w	r3, r3, #812	@ 0x32c
 8005976:	f893 3099 	ldrb.w	r3, [r3, #153]	@ 0x99
 800597a:	4619      	mov	r1, r3
 800597c:	484f      	ldr	r0, [pc, #316]	@ (8005abc <handle_character+0x2010>)
 800597e:	f003 fb57 	bl	8009030 <iprintf>
		printf("Sleight of Hand Skill Modifier: %d\r\n", (int)c.sleight_of_hand_skill_modifier);
 8005982:	f507 638a 	add.w	r3, r7, #1104	@ 0x450
 8005986:	f5a3 734b 	sub.w	r3, r3, #812	@ 0x32c
 800598a:	f893 309a 	ldrb.w	r3, [r3, #154]	@ 0x9a
 800598e:	4619      	mov	r1, r3
 8005990:	484b      	ldr	r0, [pc, #300]	@ (8005ac0 <handle_character+0x2014>)
 8005992:	f003 fb4d 	bl	8009030 <iprintf>
		printf("Stealth Skill Modifier: %d\r\n", (int)c.stealth_skill_modifier);
 8005996:	f507 638a 	add.w	r3, r7, #1104	@ 0x450
 800599a:	f5a3 734b 	sub.w	r3, r3, #812	@ 0x32c
 800599e:	f893 309b 	ldrb.w	r3, [r3, #155]	@ 0x9b
 80059a2:	4619      	mov	r1, r3
 80059a4:	4847      	ldr	r0, [pc, #284]	@ (8005ac4 <handle_character+0x2018>)
 80059a6:	f003 fb43 	bl	8009030 <iprintf>
		printf("Survival Skill Modifier: %d\r\n", (int)c.survival_skill_modifier);
 80059aa:	f507 638a 	add.w	r3, r7, #1104	@ 0x450
 80059ae:	f5a3 734b 	sub.w	r3, r3, #812	@ 0x32c
 80059b2:	f893 309c 	ldrb.w	r3, [r3, #156]	@ 0x9c
 80059b6:	4619      	mov	r1, r3
 80059b8:	4843      	ldr	r0, [pc, #268]	@ (8005ac8 <handle_character+0x201c>)
 80059ba:	f003 fb39 	bl	8009030 <iprintf>
		printf("===Resistances===\r\n");
 80059be:	4843      	ldr	r0, [pc, #268]	@ (8005acc <handle_character+0x2020>)
 80059c0:	f003 fba6 	bl	8009110 <puts>
		printf("Acid Resistance: %d\r\n", (int)c.acid_resistance);
 80059c4:	f507 638a 	add.w	r3, r7, #1104	@ 0x450
 80059c8:	f5a3 734b 	sub.w	r3, r3, #812	@ 0x32c
 80059cc:	f893 309d 	ldrb.w	r3, [r3, #157]	@ 0x9d
 80059d0:	4619      	mov	r1, r3
 80059d2:	483f      	ldr	r0, [pc, #252]	@ (8005ad0 <handle_character+0x2024>)
 80059d4:	f003 fb2c 	bl	8009030 <iprintf>
		printf("Bludgeoning Resistance: %d\r\n", (int)c.bludgeoning_resistance);
 80059d8:	f507 638a 	add.w	r3, r7, #1104	@ 0x450
 80059dc:	f5a3 734b 	sub.w	r3, r3, #812	@ 0x32c
 80059e0:	f893 309e 	ldrb.w	r3, [r3, #158]	@ 0x9e
 80059e4:	4619      	mov	r1, r3
 80059e6:	483b      	ldr	r0, [pc, #236]	@ (8005ad4 <handle_character+0x2028>)
 80059e8:	f003 fb22 	bl	8009030 <iprintf>
		printf("Cold Resistance: %d\r\n", (int)c.cold_resistance);
 80059ec:	f507 638a 	add.w	r3, r7, #1104	@ 0x450
 80059f0:	f5a3 734b 	sub.w	r3, r3, #812	@ 0x32c
 80059f4:	f893 309f 	ldrb.w	r3, [r3, #159]	@ 0x9f
 80059f8:	4619      	mov	r1, r3
 80059fa:	4837      	ldr	r0, [pc, #220]	@ (8005ad8 <handle_character+0x202c>)
 80059fc:	f003 fb18 	bl	8009030 <iprintf>
		printf("Fire Resistance: %d\r\n", (int)c.fire_resistance);
 8005a00:	f507 638a 	add.w	r3, r7, #1104	@ 0x450
 8005a04:	f5a3 734b 	sub.w	r3, r3, #812	@ 0x32c
 8005a08:	f893 30a0 	ldrb.w	r3, [r3, #160]	@ 0xa0
 8005a0c:	4619      	mov	r1, r3
 8005a0e:	4833      	ldr	r0, [pc, #204]	@ (8005adc <handle_character+0x2030>)
 8005a10:	f003 fb0e 	bl	8009030 <iprintf>
		printf("Force Resistance: %d\r\n", (int)c.force_resistance);
 8005a14:	f507 638a 	add.w	r3, r7, #1104	@ 0x450
 8005a18:	f5a3 734b 	sub.w	r3, r3, #812	@ 0x32c
 8005a1c:	f893 30a1 	ldrb.w	r3, [r3, #161]	@ 0xa1
 8005a20:	4619      	mov	r1, r3
 8005a22:	482f      	ldr	r0, [pc, #188]	@ (8005ae0 <handle_character+0x2034>)
 8005a24:	f003 fb04 	bl	8009030 <iprintf>
		printf("Lightning Resistance: %d\r\n", (int)c.lightning_resistance);
 8005a28:	f507 638a 	add.w	r3, r7, #1104	@ 0x450
 8005a2c:	f5a3 734b 	sub.w	r3, r3, #812	@ 0x32c
 8005a30:	f893 30a2 	ldrb.w	r3, [r3, #162]	@ 0xa2
 8005a34:	4619      	mov	r1, r3
 8005a36:	482b      	ldr	r0, [pc, #172]	@ (8005ae4 <handle_character+0x2038>)
 8005a38:	f003 fafa 	bl	8009030 <iprintf>
		printf("Necrotic Resistance: %d\r\n", (int)c.necrotic_resistance);
 8005a3c:	f507 638a 	add.w	r3, r7, #1104	@ 0x450
 8005a40:	f5a3 734b 	sub.w	r3, r3, #812	@ 0x32c
 8005a44:	e050      	b.n	8005ae8 <handle_character+0x203c>
 8005a46:	bf00      	nop
 8005a48:	0800bcd0 	.word	0x0800bcd0
 8005a4c:	0800bce4 	.word	0x0800bce4
 8005a50:	0800bcf0 	.word	0x0800bcf0
 8005a54:	0800bd00 	.word	0x0800bd00
 8005a58:	0800bd2c 	.word	0x0800bd2c
 8005a5c:	0800bd58 	.word	0x0800bd58
 8005a60:	0800bd84 	.word	0x0800bd84
 8005a64:	0800bdc0 	.word	0x0800bdc0
 8005a68:	0800be08 	.word	0x0800be08
 8005a6c:	0800be50 	.word	0x0800be50
 8005a70:	0800be98 	.word	0x0800be98
 8005a74:	0800bee4 	.word	0x0800bee4
 8005a78:	0800bf30 	.word	0x0800bf30
 8005a7c:	0800bf70 	.word	0x0800bf70
 8005a80:	0800bfb4 	.word	0x0800bfb4
 8005a84:	0800bfc4 	.word	0x0800bfc4
 8005a88:	0800bfe4 	.word	0x0800bfe4
 8005a8c:	0800c00c 	.word	0x0800c00c
 8005a90:	0800c028 	.word	0x0800c028
 8005a94:	0800c048 	.word	0x0800c048
 8005a98:	0800c068 	.word	0x0800c068
 8005a9c:	0800c088 	.word	0x0800c088
 8005aa0:	0800c0a8 	.word	0x0800c0a8
 8005aa4:	0800c0cc 	.word	0x0800c0cc
 8005aa8:	0800c0f0 	.word	0x0800c0f0
 8005aac:	0800c110 	.word	0x0800c110
 8005ab0:	0800c12c 	.word	0x0800c12c
 8005ab4:	0800c14c 	.word	0x0800c14c
 8005ab8:	0800c170 	.word	0x0800c170
 8005abc:	0800c190 	.word	0x0800c190
 8005ac0:	0800c1b0 	.word	0x0800c1b0
 8005ac4:	0800c1d8 	.word	0x0800c1d8
 8005ac8:	0800c1f8 	.word	0x0800c1f8
 8005acc:	0800c218 	.word	0x0800c218
 8005ad0:	0800c22c 	.word	0x0800c22c
 8005ad4:	0800c244 	.word	0x0800c244
 8005ad8:	0800c264 	.word	0x0800c264
 8005adc:	0800c27c 	.word	0x0800c27c
 8005ae0:	0800c294 	.word	0x0800c294
 8005ae4:	0800c2ac 	.word	0x0800c2ac
 8005ae8:	f893 30a3 	ldrb.w	r3, [r3, #163]	@ 0xa3
 8005aec:	4619      	mov	r1, r3
 8005aee:	48ce      	ldr	r0, [pc, #824]	@ (8005e28 <handle_character+0x237c>)
 8005af0:	f003 fa9e 	bl	8009030 <iprintf>
		printf("Piercing Resistance: %d\r\n", (int)c.piercing_resistance);
 8005af4:	f507 638a 	add.w	r3, r7, #1104	@ 0x450
 8005af8:	f5a3 734b 	sub.w	r3, r3, #812	@ 0x32c
 8005afc:	f893 30a4 	ldrb.w	r3, [r3, #164]	@ 0xa4
 8005b00:	4619      	mov	r1, r3
 8005b02:	48ca      	ldr	r0, [pc, #808]	@ (8005e2c <handle_character+0x2380>)
 8005b04:	f003 fa94 	bl	8009030 <iprintf>
		printf("Poison Resistance: %d\r\n", (int)c.poison_resistance);
 8005b08:	f507 638a 	add.w	r3, r7, #1104	@ 0x450
 8005b0c:	f5a3 734b 	sub.w	r3, r3, #812	@ 0x32c
 8005b10:	f893 30a5 	ldrb.w	r3, [r3, #165]	@ 0xa5
 8005b14:	4619      	mov	r1, r3
 8005b16:	48c6      	ldr	r0, [pc, #792]	@ (8005e30 <handle_character+0x2384>)
 8005b18:	f003 fa8a 	bl	8009030 <iprintf>
		printf("Psychic Resistance: %d\r\n", (int)c.psychic_resistance);
 8005b1c:	f507 638a 	add.w	r3, r7, #1104	@ 0x450
 8005b20:	f5a3 734b 	sub.w	r3, r3, #812	@ 0x32c
 8005b24:	f893 30a6 	ldrb.w	r3, [r3, #166]	@ 0xa6
 8005b28:	4619      	mov	r1, r3
 8005b2a:	48c2      	ldr	r0, [pc, #776]	@ (8005e34 <handle_character+0x2388>)
 8005b2c:	f003 fa80 	bl	8009030 <iprintf>
		printf("Radiant Resistance: %d\r\n", (int)c.radiant_resistance);
 8005b30:	f507 638a 	add.w	r3, r7, #1104	@ 0x450
 8005b34:	f5a3 734b 	sub.w	r3, r3, #812	@ 0x32c
 8005b38:	f893 30a7 	ldrb.w	r3, [r3, #167]	@ 0xa7
 8005b3c:	4619      	mov	r1, r3
 8005b3e:	48be      	ldr	r0, [pc, #760]	@ (8005e38 <handle_character+0x238c>)
 8005b40:	f003 fa76 	bl	8009030 <iprintf>
		printf("Slashing Resistance: %d\r\n", (int)c.slashing_resistance);
 8005b44:	f507 638a 	add.w	r3, r7, #1104	@ 0x450
 8005b48:	f5a3 734b 	sub.w	r3, r3, #812	@ 0x32c
 8005b4c:	f893 30a8 	ldrb.w	r3, [r3, #168]	@ 0xa8
 8005b50:	4619      	mov	r1, r3
 8005b52:	48ba      	ldr	r0, [pc, #744]	@ (8005e3c <handle_character+0x2390>)
 8005b54:	f003 fa6c 	bl	8009030 <iprintf>
		printf("Thunder Resistance: %d\r\n", (int)c.thunder_resistance);
 8005b58:	f507 638a 	add.w	r3, r7, #1104	@ 0x450
 8005b5c:	f5a3 734b 	sub.w	r3, r3, #812	@ 0x32c
 8005b60:	f893 30a9 	ldrb.w	r3, [r3, #169]	@ 0xa9
 8005b64:	4619      	mov	r1, r3
 8005b66:	48b6      	ldr	r0, [pc, #728]	@ (8005e40 <handle_character+0x2394>)
 8005b68:	f003 fa62 	bl	8009030 <iprintf>
		printf("===Equipment===\r\n");
 8005b6c:	48b5      	ldr	r0, [pc, #724]	@ (8005e44 <handle_character+0x2398>)
 8005b6e:	f003 facf 	bl	8009110 <puts>

		for (int i = 0; i < 8; i++)
 8005b72:	2300      	movs	r3, #0
 8005b74:	f8c7 3410 	str.w	r3, [r7, #1040]	@ 0x410
 8005b78:	e01f      	b.n	8005bba <handle_character+0x210e>
		{
			if (c.equipped_weapons[i] == 0)
 8005b7a:	f507 638a 	add.w	r3, r7, #1104	@ 0x450
 8005b7e:	f5a3 724b 	sub.w	r2, r3, #812	@ 0x32c
 8005b82:	f8d7 3410 	ldr.w	r3, [r7, #1040]	@ 0x410
 8005b86:	4413      	add	r3, r2
 8005b88:	33b8      	adds	r3, #184	@ 0xb8
 8005b8a:	781b      	ldrb	r3, [r3, #0]
 8005b8c:	2b00      	cmp	r3, #0
 8005b8e:	d019      	beq.n	8005bc4 <handle_character+0x2118>
			{
				break;
			}
			printf("Weapon %d: %d\r\n", (i + 1), c.equipped_weapons[i]);
 8005b90:	f8d7 3410 	ldr.w	r3, [r7, #1040]	@ 0x410
 8005b94:	1c59      	adds	r1, r3, #1
 8005b96:	f507 638a 	add.w	r3, r7, #1104	@ 0x450
 8005b9a:	f5a3 724b 	sub.w	r2, r3, #812	@ 0x32c
 8005b9e:	f8d7 3410 	ldr.w	r3, [r7, #1040]	@ 0x410
 8005ba2:	4413      	add	r3, r2
 8005ba4:	33b8      	adds	r3, #184	@ 0xb8
 8005ba6:	781b      	ldrb	r3, [r3, #0]
 8005ba8:	461a      	mov	r2, r3
 8005baa:	48a7      	ldr	r0, [pc, #668]	@ (8005e48 <handle_character+0x239c>)
 8005bac:	f003 fa40 	bl	8009030 <iprintf>
		for (int i = 0; i < 8; i++)
 8005bb0:	f8d7 3410 	ldr.w	r3, [r7, #1040]	@ 0x410
 8005bb4:	3301      	adds	r3, #1
 8005bb6:	f8c7 3410 	str.w	r3, [r7, #1040]	@ 0x410
 8005bba:	f8d7 3410 	ldr.w	r3, [r7, #1040]	@ 0x410
 8005bbe:	2b07      	cmp	r3, #7
 8005bc0:	dddb      	ble.n	8005b7a <handle_character+0x20ce>
		}

		return;
 8005bc2:	e1b4      	b.n	8005f2e <handle_character+0x2482>
				break;
 8005bc4:	bf00      	nop
		return;
 8005bc6:	e1b2      	b.n	8005f2e <handle_character+0x2482>
	}

	if (strcasecmp(argv[1], "DELETE") == 0)
 8005bc8:	f507 638a 	add.w	r3, r7, #1104	@ 0x450
 8005bcc:	f5a3 735e 	sub.w	r3, r3, #888	@ 0x378
 8005bd0:	681b      	ldr	r3, [r3, #0]
 8005bd2:	f503 7380 	add.w	r3, r3, #256	@ 0x100
 8005bd6:	499d      	ldr	r1, [pc, #628]	@ (8005e4c <handle_character+0x23a0>)
 8005bd8:	4618      	mov	r0, r3
 8005bda:	f003 fbbb 	bl	8009354 <strcasecmp>
 8005bde:	4603      	mov	r3, r0
 8005be0:	2b00      	cmp	r3, #0
 8005be2:	d163      	bne.n	8005cac <handle_character+0x2200>
	{
		if (argc < 3)
 8005be4:	f507 638a 	add.w	r3, r7, #1104	@ 0x450
 8005be8:	f5a3 735d 	sub.w	r3, r3, #884	@ 0x374
 8005bec:	681b      	ldr	r3, [r3, #0]
 8005bee:	2b02      	cmp	r3, #2
 8005bf0:	dc0c      	bgt.n	8005c0c <handle_character+0x2160>
		{
			unknown_command(argc, argv);
 8005bf2:	f507 638a 	add.w	r3, r7, #1104	@ 0x450
 8005bf6:	f5a3 725e 	sub.w	r2, r3, #888	@ 0x378
 8005bfa:	f507 638a 	add.w	r3, r7, #1104	@ 0x450
 8005bfe:	f5a3 735d 	sub.w	r3, r3, #884	@ 0x374
 8005c02:	6811      	ldr	r1, [r2, #0]
 8005c04:	6818      	ldr	r0, [r3, #0]
 8005c06:	f7fd fc8b 	bl	8003520 <unknown_command>
			return;
 8005c0a:	e190      	b.n	8005f2e <handle_character+0x2482>
		}

		int character_num = atoi(argv[2]);
 8005c0c:	f507 638a 	add.w	r3, r7, #1104	@ 0x450
 8005c10:	f5a3 735e 	sub.w	r3, r3, #888	@ 0x378
 8005c14:	681b      	ldr	r3, [r3, #0]
 8005c16:	f503 7300 	add.w	r3, r3, #512	@ 0x200
 8005c1a:	4618      	mov	r0, r3
 8005c1c:	f003 f88e 	bl	8008d3c <atoi>
 8005c20:	f8c7 0400 	str.w	r0, [r7, #1024]	@ 0x400
		if (character_num > 6 || character_num < 1)
 8005c24:	f8d7 3400 	ldr.w	r3, [r7, #1024]	@ 0x400
 8005c28:	2b06      	cmp	r3, #6
 8005c2a:	dc03      	bgt.n	8005c34 <handle_character+0x2188>
 8005c2c:	f8d7 3400 	ldr.w	r3, [r7, #1024]	@ 0x400
 8005c30:	2b00      	cmp	r3, #0
 8005c32:	dc03      	bgt.n	8005c3c <handle_character+0x2190>
		{
		        printf("Invalid input!\r\n");
 8005c34:	4886      	ldr	r0, [pc, #536]	@ (8005e50 <handle_character+0x23a4>)
 8005c36:	f003 fa6b 	bl	8009110 <puts>
		        return;
 8005c3a:	e178      	b.n	8005f2e <handle_character+0x2482>
		}

		character_t c = get_character(character_num);
 8005c3c:	f507 638a 	add.w	r3, r7, #1104	@ 0x450
 8005c40:	f5a3 734b 	sub.w	r3, r3, #812	@ 0x32c
 8005c44:	f8d7 1400 	ldr.w	r1, [r7, #1024]	@ 0x400
 8005c48:	4618      	mov	r0, r3
 8005c4a:	f000 fa73 	bl	8006134 <get_character>
		if (c.name[0] == 0)
 8005c4e:	f507 638a 	add.w	r3, r7, #1104	@ 0x450
 8005c52:	f5a3 734b 	sub.w	r3, r3, #812	@ 0x32c
 8005c56:	781b      	ldrb	r3, [r3, #0]
 8005c58:	2b00      	cmp	r3, #0
 8005c5a:	d103      	bne.n	8005c64 <handle_character+0x21b8>
		{
			printf("A character does not exist in this slot!\r\n");
 8005c5c:	487d      	ldr	r0, [pc, #500]	@ (8005e54 <handle_character+0x23a8>)
 8005c5e:	f003 fa57 	bl	8009110 <puts>
			return;
 8005c62:	e164      	b.n	8005f2e <handle_character+0x2482>
		}

		for (int i = 0; i < 0x100; i++)
 8005c64:	2300      	movs	r3, #0
 8005c66:	f8c7 340c 	str.w	r3, [r7, #1036]	@ 0x40c
 8005c6a:	e00d      	b.n	8005c88 <handle_character+0x21dc>
		{
			character_data[i] = 0;
 8005c6c:	f507 638a 	add.w	r3, r7, #1104	@ 0x450
 8005c70:	f5a3 7216 	sub.w	r2, r3, #600	@ 0x258
 8005c74:	f8d7 340c 	ldr.w	r3, [r7, #1036]	@ 0x40c
 8005c78:	4413      	add	r3, r2
 8005c7a:	2200      	movs	r2, #0
 8005c7c:	701a      	strb	r2, [r3, #0]
		for (int i = 0; i < 0x100; i++)
 8005c7e:	f8d7 340c 	ldr.w	r3, [r7, #1036]	@ 0x40c
 8005c82:	3301      	adds	r3, #1
 8005c84:	f8c7 340c 	str.w	r3, [r7, #1036]	@ 0x40c
 8005c88:	f8d7 340c 	ldr.w	r3, [r7, #1036]	@ 0x40c
 8005c8c:	2bff      	cmp	r3, #255	@ 0xff
 8005c8e:	dded      	ble.n	8005c6c <handle_character+0x21c0>
		}

		printf("Writing to memory, be patient...");
 8005c90:	4871      	ldr	r0, [pc, #452]	@ (8005e58 <handle_character+0x23ac>)
 8005c92:	f003 f9cd 	bl	8009030 <iprintf>
		set_character(character_num, character_data);
 8005c96:	f507 73fc 	add.w	r3, r7, #504	@ 0x1f8
 8005c9a:	4619      	mov	r1, r3
 8005c9c:	f8d7 0400 	ldr.w	r0, [r7, #1024]	@ 0x400
 8005ca0:	f000 fe18 	bl	80068d4 <set_character>

		printf("Character deleted!\r\n");
 8005ca4:	486d      	ldr	r0, [pc, #436]	@ (8005e5c <handle_character+0x23b0>)
 8005ca6:	f003 fa33 	bl	8009110 <puts>
		return;
 8005caa:	e140      	b.n	8005f2e <handle_character+0x2482>
	}

	if (strcasecmp(argv[1], "LIST") == 0)
 8005cac:	f507 638a 	add.w	r3, r7, #1104	@ 0x450
 8005cb0:	f5a3 735e 	sub.w	r3, r3, #888	@ 0x378
 8005cb4:	681b      	ldr	r3, [r3, #0]
 8005cb6:	f503 7380 	add.w	r3, r3, #256	@ 0x100
 8005cba:	4969      	ldr	r1, [pc, #420]	@ (8005e60 <handle_character+0x23b4>)
 8005cbc:	4618      	mov	r0, r3
 8005cbe:	f003 fb49 	bl	8009354 <strcasecmp>
 8005cc2:	4603      	mov	r3, r0
 8005cc4:	2b00      	cmp	r3, #0
 8005cc6:	d15e      	bne.n	8005d86 <handle_character+0x22da>
	{
		if (argc == 3)
 8005cc8:	f507 638a 	add.w	r3, r7, #1104	@ 0x450
 8005ccc:	f5a3 735d 	sub.w	r3, r3, #884	@ 0x374
 8005cd0:	681b      	ldr	r3, [r3, #0]
 8005cd2:	2b03      	cmp	r3, #3
 8005cd4:	d10c      	bne.n	8005cf0 <handle_character+0x2244>
		{
			unknown_command(argc, argv);
 8005cd6:	f507 638a 	add.w	r3, r7, #1104	@ 0x450
 8005cda:	f5a3 725e 	sub.w	r2, r3, #888	@ 0x378
 8005cde:	f507 638a 	add.w	r3, r7, #1104	@ 0x450
 8005ce2:	f5a3 735d 	sub.w	r3, r3, #884	@ 0x374
 8005ce6:	6811      	ldr	r1, [r2, #0]
 8005ce8:	6818      	ldr	r0, [r3, #0]
 8005cea:	f7fd fc19 	bl	8003520 <unknown_command>
			return;
 8005cee:	e11e      	b.n	8005f2e <handle_character+0x2482>
		}

		printf("The following characters are present:\r\n");
 8005cf0:	485c      	ldr	r0, [pc, #368]	@ (8005e64 <handle_character+0x23b8>)
 8005cf2:	f003 fa0d 	bl	8009110 <puts>

		char character_name[64];
		character_t c;

		for (int i = 1; i < 7; i++)
 8005cf6:	2301      	movs	r3, #1
 8005cf8:	f8c7 3408 	str.w	r3, [r7, #1032]	@ 0x408
 8005cfc:	e03e      	b.n	8005d7c <handle_character+0x22d0>
		{
			c = get_character(i);
 8005cfe:	f507 638a 	add.w	r3, r7, #1104	@ 0x450
 8005d02:	f5a3 744b 	sub.w	r4, r3, #812	@ 0x32c
 8005d06:	463b      	mov	r3, r7
 8005d08:	f8d7 1408 	ldr.w	r1, [r7, #1032]	@ 0x408
 8005d0c:	4618      	mov	r0, r3
 8005d0e:	f000 fa11 	bl	8006134 <get_character>
 8005d12:	f507 638a 	add.w	r3, r7, #1104	@ 0x450
 8005d16:	f5a3 638a 	sub.w	r3, r3, #1104	@ 0x450
 8005d1a:	4620      	mov	r0, r4
 8005d1c:	4619      	mov	r1, r3
 8005d1e:	23d3      	movs	r3, #211	@ 0xd3
 8005d20:	461a      	mov	r2, r3
 8005d22:	f003 fba6 	bl	8009472 <memcpy>

			for (int j = 0; j < 64; j++)
 8005d26:	2300      	movs	r3, #0
 8005d28:	f8c7 3404 	str.w	r3, [r7, #1028]	@ 0x404
 8005d2c:	e015      	b.n	8005d5a <handle_character+0x22ae>
			{
				character_name[j] = (char)c.name[j];
 8005d2e:	f507 638a 	add.w	r3, r7, #1104	@ 0x450
 8005d32:	f5a3 724b 	sub.w	r2, r3, #812	@ 0x32c
 8005d36:	f8d7 3404 	ldr.w	r3, [r7, #1028]	@ 0x404
 8005d3a:	4413      	add	r3, r2
 8005d3c:	7819      	ldrb	r1, [r3, #0]
 8005d3e:	f507 638a 	add.w	r3, r7, #1104	@ 0x450
 8005d42:	f5a3 725b 	sub.w	r2, r3, #876	@ 0x36c
 8005d46:	f8d7 3404 	ldr.w	r3, [r7, #1028]	@ 0x404
 8005d4a:	4413      	add	r3, r2
 8005d4c:	460a      	mov	r2, r1
 8005d4e:	701a      	strb	r2, [r3, #0]
			for (int j = 0; j < 64; j++)
 8005d50:	f8d7 3404 	ldr.w	r3, [r7, #1028]	@ 0x404
 8005d54:	3301      	adds	r3, #1
 8005d56:	f8c7 3404 	str.w	r3, [r7, #1028]	@ 0x404
 8005d5a:	f8d7 3404 	ldr.w	r3, [r7, #1028]	@ 0x404
 8005d5e:	2b3f      	cmp	r3, #63	@ 0x3f
 8005d60:	dde5      	ble.n	8005d2e <handle_character+0x2282>
			}

			printf("%d - %s\r\n", i, character_name);
 8005d62:	f107 03e4 	add.w	r3, r7, #228	@ 0xe4
 8005d66:	461a      	mov	r2, r3
 8005d68:	f8d7 1408 	ldr.w	r1, [r7, #1032]	@ 0x408
 8005d6c:	483e      	ldr	r0, [pc, #248]	@ (8005e68 <handle_character+0x23bc>)
 8005d6e:	f003 f95f 	bl	8009030 <iprintf>
		for (int i = 1; i < 7; i++)
 8005d72:	f8d7 3408 	ldr.w	r3, [r7, #1032]	@ 0x408
 8005d76:	3301      	adds	r3, #1
 8005d78:	f8c7 3408 	str.w	r3, [r7, #1032]	@ 0x408
 8005d7c:	f8d7 3408 	ldr.w	r3, [r7, #1032]	@ 0x408
 8005d80:	2b06      	cmp	r3, #6
 8005d82:	ddbc      	ble.n	8005cfe <handle_character+0x2252>
		}

		return;
 8005d84:	e0d3      	b.n	8005f2e <handle_character+0x2482>
	}

	if (strcasecmp(argv[1], "CLEAR") == 0)
 8005d86:	f507 638a 	add.w	r3, r7, #1104	@ 0x450
 8005d8a:	f5a3 735e 	sub.w	r3, r3, #888	@ 0x378
 8005d8e:	681b      	ldr	r3, [r3, #0]
 8005d90:	f503 7380 	add.w	r3, r3, #256	@ 0x100
 8005d94:	4935      	ldr	r1, [pc, #212]	@ (8005e6c <handle_character+0x23c0>)
 8005d96:	4618      	mov	r0, r3
 8005d98:	f003 fadc 	bl	8009354 <strcasecmp>
 8005d9c:	4603      	mov	r3, r0
 8005d9e:	2b00      	cmp	r3, #0
 8005da0:	f040 80c5 	bne.w	8005f2e <handle_character+0x2482>
	{
		if (argc == 3)
 8005da4:	f507 638a 	add.w	r3, r7, #1104	@ 0x450
 8005da8:	f5a3 735d 	sub.w	r3, r3, #884	@ 0x374
 8005dac:	681b      	ldr	r3, [r3, #0]
 8005dae:	2b03      	cmp	r3, #3
 8005db0:	d10c      	bne.n	8005dcc <handle_character+0x2320>
		{
			unknown_command(argc, argv);
 8005db2:	f507 638a 	add.w	r3, r7, #1104	@ 0x450
 8005db6:	f5a3 725e 	sub.w	r2, r3, #888	@ 0x378
 8005dba:	f507 638a 	add.w	r3, r7, #1104	@ 0x450
 8005dbe:	f5a3 735d 	sub.w	r3, r3, #884	@ 0x374
 8005dc2:	6811      	ldr	r1, [r2, #0]
 8005dc4:	6818      	ldr	r0, [r3, #0]
 8005dc6:	f7fd fbab 	bl	8003520 <unknown_command>
			return;
 8005dca:	e0b0      	b.n	8005f2e <handle_character+0x2482>
		}

		printf("Clearing characters, please do not turn off the device...\r\n");
 8005dcc:	4828      	ldr	r0, [pc, #160]	@ (8005e70 <handle_character+0x23c4>)
 8005dce:	f003 f99f 	bl	8009110 <puts>

		erase_characters();
 8005dd2:	f000 fdab 	bl	800692c <erase_characters>

		printf("All characters have been cleared!\r\n");
 8005dd6:	4827      	ldr	r0, [pc, #156]	@ (8005e74 <handle_character+0x23c8>)
 8005dd8:	f003 f99a 	bl	8009110 <puts>
		return;
 8005ddc:	e0a7      	b.n	8005f2e <handle_character+0x2482>
		    return;
 8005dde:	bf00      	nop
 8005de0:	e0a5      	b.n	8005f2e <handle_character+0x2482>
		    return;
 8005de2:	bf00      	nop
 8005de4:	e0a3      	b.n	8005f2e <handle_character+0x2482>
		    return;
 8005de6:	bf00      	nop
 8005de8:	e0a1      	b.n	8005f2e <handle_character+0x2482>
		    return;
 8005dea:	bf00      	nop
 8005dec:	e09f      	b.n	8005f2e <handle_character+0x2482>
		            return;
 8005dee:	bf00      	nop
 8005df0:	e09d      	b.n	8005f2e <handle_character+0x2482>
		            return;
 8005df2:	bf00      	nop
 8005df4:	e09b      	b.n	8005f2e <handle_character+0x2482>
		                    return;
 8005df6:	bf00      	nop
 8005df8:	e099      	b.n	8005f2e <handle_character+0x2482>
	            return;
 8005dfa:	bf00      	nop
 8005dfc:	e097      	b.n	8005f2e <handle_character+0x2482>
	            return;
 8005dfe:	bf00      	nop
 8005e00:	e095      	b.n	8005f2e <handle_character+0x2482>
	            return;
 8005e02:	bf00      	nop
 8005e04:	e093      	b.n	8005f2e <handle_character+0x2482>
	            return;
 8005e06:	bf00      	nop
 8005e08:	e091      	b.n	8005f2e <handle_character+0x2482>
	            return;
 8005e0a:	bf00      	nop
 8005e0c:	e08f      	b.n	8005f2e <handle_character+0x2482>
	            return;
 8005e0e:	bf00      	nop
 8005e10:	e08d      	b.n	8005f2e <handle_character+0x2482>
	            return;
 8005e12:	bf00      	nop
 8005e14:	e08b      	b.n	8005f2e <handle_character+0x2482>
	            return;
 8005e16:	bf00      	nop
 8005e18:	e089      	b.n	8005f2e <handle_character+0x2482>
	            return;
 8005e1a:	bf00      	nop
 8005e1c:	e087      	b.n	8005f2e <handle_character+0x2482>
	            return;
 8005e1e:	bf00      	nop
 8005e20:	e085      	b.n	8005f2e <handle_character+0x2482>
	            return;
 8005e22:	bf00      	nop
 8005e24:	e083      	b.n	8005f2e <handle_character+0x2482>
 8005e26:	bf00      	nop
 8005e28:	0800c2c8 	.word	0x0800c2c8
 8005e2c:	0800c2e4 	.word	0x0800c2e4
 8005e30:	0800c300 	.word	0x0800c300
 8005e34:	0800c318 	.word	0x0800c318
 8005e38:	0800c334 	.word	0x0800c334
 8005e3c:	0800c350 	.word	0x0800c350
 8005e40:	0800c36c 	.word	0x0800c36c
 8005e44:	0800c388 	.word	0x0800c388
 8005e48:	0800c39c 	.word	0x0800c39c
 8005e4c:	0800c3ac 	.word	0x0800c3ac
 8005e50:	0800a68c 	.word	0x0800a68c
 8005e54:	0800a69c 	.word	0x0800a69c
 8005e58:	0800c3b4 	.word	0x0800c3b4
 8005e5c:	0800c3d8 	.word	0x0800c3d8
 8005e60:	0800c3ec 	.word	0x0800c3ec
 8005e64:	0800c3f4 	.word	0x0800c3f4
 8005e68:	0800c41c 	.word	0x0800c41c
 8005e6c:	0800c428 	.word	0x0800c428
 8005e70:	0800c430 	.word	0x0800c430
 8005e74:	0800c46c 	.word	0x0800c46c
	            return;
 8005e78:	bf00      	nop
 8005e7a:	e058      	b.n	8005f2e <handle_character+0x2482>
	            return;
 8005e7c:	bf00      	nop
 8005e7e:	e056      	b.n	8005f2e <handle_character+0x2482>
	            return;
 8005e80:	bf00      	nop
 8005e82:	e054      	b.n	8005f2e <handle_character+0x2482>
	            return;
 8005e84:	bf00      	nop
 8005e86:	e052      	b.n	8005f2e <handle_character+0x2482>
	            return;
 8005e88:	bf00      	nop
 8005e8a:	e050      	b.n	8005f2e <handle_character+0x2482>
	            return;
 8005e8c:	bf00      	nop
 8005e8e:	e04e      	b.n	8005f2e <handle_character+0x2482>
	            return;
 8005e90:	bf00      	nop
 8005e92:	e04c      	b.n	8005f2e <handle_character+0x2482>
	            return;
 8005e94:	bf00      	nop
 8005e96:	e04a      	b.n	8005f2e <handle_character+0x2482>
	            return;
 8005e98:	bf00      	nop
 8005e9a:	e048      	b.n	8005f2e <handle_character+0x2482>
	            return;
 8005e9c:	bf00      	nop
 8005e9e:	e046      	b.n	8005f2e <handle_character+0x2482>
	            return;
 8005ea0:	bf00      	nop
 8005ea2:	e044      	b.n	8005f2e <handle_character+0x2482>
	            return;
 8005ea4:	bf00      	nop
 8005ea6:	e042      	b.n	8005f2e <handle_character+0x2482>
	            return;
 8005ea8:	bf00      	nop
 8005eaa:	e040      	b.n	8005f2e <handle_character+0x2482>
	            return;
 8005eac:	bf00      	nop
 8005eae:	e03e      	b.n	8005f2e <handle_character+0x2482>
	            return;
 8005eb0:	bf00      	nop
 8005eb2:	e03c      	b.n	8005f2e <handle_character+0x2482>
	            return;
 8005eb4:	bf00      	nop
 8005eb6:	e03a      	b.n	8005f2e <handle_character+0x2482>
	            return;
 8005eb8:	bf00      	nop
 8005eba:	e038      	b.n	8005f2e <handle_character+0x2482>
	            return;
 8005ebc:	bf00      	nop
 8005ebe:	e036      	b.n	8005f2e <handle_character+0x2482>
	            return;
 8005ec0:	bf00      	nop
 8005ec2:	e034      	b.n	8005f2e <handle_character+0x2482>
	            return;
 8005ec4:	bf00      	nop
 8005ec6:	e032      	b.n	8005f2e <handle_character+0x2482>
	            return;
 8005ec8:	bf00      	nop
 8005eca:	e030      	b.n	8005f2e <handle_character+0x2482>
	            return;
 8005ecc:	bf00      	nop
 8005ece:	e02e      	b.n	8005f2e <handle_character+0x2482>
	            return;
 8005ed0:	bf00      	nop
 8005ed2:	e02c      	b.n	8005f2e <handle_character+0x2482>
	            return;
 8005ed4:	bf00      	nop
 8005ed6:	e02a      	b.n	8005f2e <handle_character+0x2482>
	            return;
 8005ed8:	bf00      	nop
 8005eda:	e028      	b.n	8005f2e <handle_character+0x2482>
	            return;
 8005edc:	bf00      	nop
 8005ede:	e026      	b.n	8005f2e <handle_character+0x2482>
	            return;
 8005ee0:	bf00      	nop
 8005ee2:	e024      	b.n	8005f2e <handle_character+0x2482>
	            return;
 8005ee4:	bf00      	nop
 8005ee6:	e022      	b.n	8005f2e <handle_character+0x2482>
	            return;
 8005ee8:	bf00      	nop
 8005eea:	e020      	b.n	8005f2e <handle_character+0x2482>
	            return;
 8005eec:	bf00      	nop
 8005eee:	e01e      	b.n	8005f2e <handle_character+0x2482>
	            return;
 8005ef0:	bf00      	nop
 8005ef2:	e01c      	b.n	8005f2e <handle_character+0x2482>
	            return;
 8005ef4:	bf00      	nop
 8005ef6:	e01a      	b.n	8005f2e <handle_character+0x2482>
	            return;
 8005ef8:	bf00      	nop
 8005efa:	e018      	b.n	8005f2e <handle_character+0x2482>
	            return;
 8005efc:	bf00      	nop
 8005efe:	e016      	b.n	8005f2e <handle_character+0x2482>
	            return;
 8005f00:	bf00      	nop
 8005f02:	e014      	b.n	8005f2e <handle_character+0x2482>
	            return;
 8005f04:	bf00      	nop
 8005f06:	e012      	b.n	8005f2e <handle_character+0x2482>
	            return;
 8005f08:	bf00      	nop
 8005f0a:	e010      	b.n	8005f2e <handle_character+0x2482>
	            return;
 8005f0c:	bf00      	nop
 8005f0e:	e00e      	b.n	8005f2e <handle_character+0x2482>
	            return;
 8005f10:	bf00      	nop
 8005f12:	e00c      	b.n	8005f2e <handle_character+0x2482>
	            return;
 8005f14:	bf00      	nop
 8005f16:	e00a      	b.n	8005f2e <handle_character+0x2482>
	            return;
 8005f18:	bf00      	nop
 8005f1a:	e008      	b.n	8005f2e <handle_character+0x2482>
	            return;
 8005f1c:	bf00      	nop
 8005f1e:	e006      	b.n	8005f2e <handle_character+0x2482>
	            return;
 8005f20:	bf00      	nop
 8005f22:	e004      	b.n	8005f2e <handle_character+0x2482>
	            return;
 8005f24:	bf00      	nop
 8005f26:	e002      	b.n	8005f2e <handle_character+0x2482>
	            return;
 8005f28:	bf00      	nop
 8005f2a:	e000      	b.n	8005f2e <handle_character+0x2482>
	            return;
 8005f2c:	bf00      	nop
	}
}
 8005f2e:	f207 4754 	addw	r7, r7, #1108	@ 0x454
 8005f32:	46bd      	mov	sp, r7
 8005f34:	bd90      	pop	{r4, r7, pc}
 8005f36:	bf00      	nop

08005f38 <handle_exit>:

void handle_exit(int argc, char argv[][MAX_STR_LEN])
{
 8005f38:	b580      	push	{r7, lr}
 8005f3a:	b082      	sub	sp, #8
 8005f3c:	af00      	add	r7, sp, #0
 8005f3e:	6078      	str	r0, [r7, #4]
 8005f40:	6039      	str	r1, [r7, #0]
	if (argc > 1)
 8005f42:	687b      	ldr	r3, [r7, #4]
 8005f44:	2b01      	cmp	r3, #1
 8005f46:	dd04      	ble.n	8005f52 <handle_exit+0x1a>
	{
		unknown_command(argc, argv);
 8005f48:	6839      	ldr	r1, [r7, #0]
 8005f4a:	6878      	ldr	r0, [r7, #4]
 8005f4c:	f7fd fae8 	bl	8003520 <unknown_command>
		return;
 8005f50:	e002      	b.n	8005f58 <handle_exit+0x20>
	}

	flag_ok = 0;
 8005f52:	4b03      	ldr	r3, [pc, #12]	@ (8005f60 <handle_exit+0x28>)
 8005f54:	2200      	movs	r2, #0
 8005f56:	601a      	str	r2, [r3, #0]
}
 8005f58:	3708      	adds	r7, #8
 8005f5a:	46bd      	mov	sp, r7
 8005f5c:	bd80      	pop	{r7, pc}
 8005f5e:	bf00      	nop
 8005f60:	2000185c 	.word	0x2000185c

08005f64 <process_command>:


//This function is attributed to Kenneth Alcineus' Assignment 6 Submission in Principles of Embedded Systems ECEN5813.
//the following process_command function is attributed to PES 21 Command Processing lecture slides
void process_command(char *input)
{
 8005f64:	b580      	push	{r7, lr}
 8005f66:	f6ad 2d28 	subw	sp, sp, #2600	@ 0xa28
 8005f6a:	af00      	add	r7, sp, #0
 8005f6c:	f607 2328 	addw	r3, r7, #2600	@ 0xa28
 8005f70:	f6a3 2324 	subw	r3, r3, #2596	@ 0xa24
 8005f74:	6018      	str	r0, [r3, #0]
	char *p = input;
 8005f76:	f607 2328 	addw	r3, r7, #2600	@ 0xa28
 8005f7a:	f6a3 2324 	subw	r3, r3, #2596	@ 0xa24
 8005f7e:	681b      	ldr	r3, [r3, #0]
 8005f80:	f8c7 3a24 	str.w	r3, [r7, #2596]	@ 0xa24
	char *end;
	// find end of string
	for (end = input; *end != '\0'; end++);
 8005f84:	f607 2328 	addw	r3, r7, #2600	@ 0xa28
 8005f88:	f6a3 2324 	subw	r3, r3, #2596	@ 0xa24
 8005f8c:	681b      	ldr	r3, [r3, #0]
 8005f8e:	f8c7 3a20 	str.w	r3, [r7, #2592]	@ 0xa20
 8005f92:	e004      	b.n	8005f9e <process_command+0x3a>
 8005f94:	f8d7 3a20 	ldr.w	r3, [r7, #2592]	@ 0xa20
 8005f98:	3301      	adds	r3, #1
 8005f9a:	f8c7 3a20 	str.w	r3, [r7, #2592]	@ 0xa20
 8005f9e:	f8d7 3a20 	ldr.w	r3, [r7, #2592]	@ 0xa20
 8005fa2:	781b      	ldrb	r3, [r3, #0]
 8005fa4:	2b00      	cmp	r3, #0
 8005fa6:	d1f5      	bne.n	8005f94 <process_command+0x30>
	// Tokenize input in place
	char argv[10][MAX_STR_LEN];
	int argc = 0;
 8005fa8:	2300      	movs	r3, #0
 8005faa:	f8c7 3a1c 	str.w	r3, [r7, #2588]	@ 0xa1c
	int whitespace_flag = 0;
 8005fae:	2300      	movs	r3, #0
 8005fb0:	f8c7 3a18 	str.w	r3, [r7, #2584]	@ 0xa18
	int argstrlen = 0;
 8005fb4:	2300      	movs	r3, #0
 8005fb6:	f8c7 3a14 	str.w	r3, [r7, #2580]	@ 0xa14
	memset(argv, 0, sizeof(argv));
 8005fba:	f107 030c 	add.w	r3, r7, #12
 8005fbe:	f44f 6220 	mov.w	r2, #2560	@ 0xa00
 8005fc2:	2100      	movs	r1, #0
 8005fc4:	4618      	mov	r0, r3
 8005fc6:	f003 f9bd 	bl	8009344 <memset>
	for (p = input; p < end; p++)
 8005fca:	f607 2328 	addw	r3, r7, #2600	@ 0xa28
 8005fce:	f6a3 2324 	subw	r3, r3, #2596	@ 0xa24
 8005fd2:	681b      	ldr	r3, [r3, #0]
 8005fd4:	f8c7 3a24 	str.w	r3, [r7, #2596]	@ 0xa24
 8005fd8:	e05f      	b.n	800609a <process_command+0x136>
	{
		if (argc == 10 || *p == '\r')
 8005fda:	f8d7 3a1c 	ldr.w	r3, [r7, #2588]	@ 0xa1c
 8005fde:	2b0a      	cmp	r3, #10
 8005fe0:	d061      	beq.n	80060a6 <process_command+0x142>
 8005fe2:	f8d7 3a24 	ldr.w	r3, [r7, #2596]	@ 0xa24
 8005fe6:	781b      	ldrb	r3, [r3, #0]
 8005fe8:	2b0d      	cmp	r3, #13
 8005fea:	d05c      	beq.n	80060a6 <process_command+0x142>
		{
			break;
		}

		if (*p == ' ' || *p == '\t' || *p == '\v')
 8005fec:	f8d7 3a24 	ldr.w	r3, [r7, #2596]	@ 0xa24
 8005ff0:	781b      	ldrb	r3, [r3, #0]
 8005ff2:	2b20      	cmp	r3, #32
 8005ff4:	d009      	beq.n	800600a <process_command+0xa6>
 8005ff6:	f8d7 3a24 	ldr.w	r3, [r7, #2596]	@ 0xa24
 8005ffa:	781b      	ldrb	r3, [r3, #0]
 8005ffc:	2b09      	cmp	r3, #9
 8005ffe:	d004      	beq.n	800600a <process_command+0xa6>
 8006000:	f8d7 3a24 	ldr.w	r3, [r7, #2596]	@ 0xa24
 8006004:	781b      	ldrb	r3, [r3, #0]
 8006006:	2b0b      	cmp	r3, #11
 8006008:	d113      	bne.n	8006032 <process_command+0xce>
		{
			if (whitespace_flag)
 800600a:	f8d7 3a18 	ldr.w	r3, [r7, #2584]	@ 0xa18
 800600e:	2b00      	cmp	r3, #0
 8006010:	d13d      	bne.n	800608e <process_command+0x12a>
			{
				continue;
			}
			whitespace_flag = 1;
 8006012:	2301      	movs	r3, #1
 8006014:	f8c7 3a18 	str.w	r3, [r7, #2584]	@ 0xa18
			argstrlen = 0;
 8006018:	2300      	movs	r3, #0
 800601a:	f8c7 3a14 	str.w	r3, [r7, #2580]	@ 0xa14
			argc++;
 800601e:	f8d7 3a1c 	ldr.w	r3, [r7, #2588]	@ 0xa1c
 8006022:	3301      	adds	r3, #1
 8006024:	f8c7 3a1c 	str.w	r3, [r7, #2588]	@ 0xa1c
			*p = '\0';
 8006028:	f8d7 3a24 	ldr.w	r3, [r7, #2596]	@ 0xa24
 800602c:	2200      	movs	r2, #0
 800602e:	701a      	strb	r2, [r3, #0]
			continue;
 8006030:	e02e      	b.n	8006090 <process_command+0x12c>
		}

		if (whitespace_flag)
 8006032:	f8d7 3a18 	ldr.w	r3, [r7, #2584]	@ 0xa18
 8006036:	2b00      	cmp	r3, #0
 8006038:	d013      	beq.n	8006062 <process_command+0xfe>
		{
			*--p = '\0';
 800603a:	f8d7 3a24 	ldr.w	r3, [r7, #2596]	@ 0xa24
 800603e:	3b01      	subs	r3, #1
 8006040:	f8c7 3a24 	str.w	r3, [r7, #2596]	@ 0xa24
 8006044:	f8d7 3a24 	ldr.w	r3, [r7, #2596]	@ 0xa24
 8006048:	2200      	movs	r2, #0
 800604a:	701a      	strb	r2, [r3, #0]
			whitespace_flag = *p++; //done this way to avoid unused value error upon compiling
 800604c:	f8d7 3a24 	ldr.w	r3, [r7, #2596]	@ 0xa24
 8006050:	1c5a      	adds	r2, r3, #1
 8006052:	f8c7 2a24 	str.w	r2, [r7, #2596]	@ 0xa24
 8006056:	781b      	ldrb	r3, [r3, #0]
 8006058:	f8c7 3a18 	str.w	r3, [r7, #2584]	@ 0xa18
			whitespace_flag = 0;
 800605c:	2300      	movs	r3, #0
 800605e:	f8c7 3a18 	str.w	r3, [r7, #2584]	@ 0xa18
		}

		argv[argc][argstrlen] = *p;
 8006062:	f8d7 3a24 	ldr.w	r3, [r7, #2596]	@ 0xa24
 8006066:	7819      	ldrb	r1, [r3, #0]
 8006068:	f607 2328 	addw	r3, r7, #2600	@ 0xa28
 800606c:	f6a3 221c 	subw	r2, r3, #2588	@ 0xa1c
 8006070:	f8d7 3a1c 	ldr.w	r3, [r7, #2588]	@ 0xa1c
 8006074:	021b      	lsls	r3, r3, #8
 8006076:	441a      	add	r2, r3
 8006078:	f8d7 3a14 	ldr.w	r3, [r7, #2580]	@ 0xa14
 800607c:	4413      	add	r3, r2
 800607e:	460a      	mov	r2, r1
 8006080:	701a      	strb	r2, [r3, #0]
		argstrlen++;
 8006082:	f8d7 3a14 	ldr.w	r3, [r7, #2580]	@ 0xa14
 8006086:	3301      	adds	r3, #1
 8006088:	f8c7 3a14 	str.w	r3, [r7, #2580]	@ 0xa14
 800608c:	e000      	b.n	8006090 <process_command+0x12c>
				continue;
 800608e:	bf00      	nop
	for (p = input; p < end; p++)
 8006090:	f8d7 3a24 	ldr.w	r3, [r7, #2596]	@ 0xa24
 8006094:	3301      	adds	r3, #1
 8006096:	f8c7 3a24 	str.w	r3, [r7, #2596]	@ 0xa24
 800609a:	f8d7 2a24 	ldr.w	r2, [r7, #2596]	@ 0xa24
 800609e:	f8d7 3a20 	ldr.w	r3, [r7, #2592]	@ 0xa20
 80060a2:	429a      	cmp	r2, r3
 80060a4:	d399      	bcc.n	8005fda <process_command+0x76>
	}

	argc++;
 80060a6:	f8d7 3a1c 	ldr.w	r3, [r7, #2588]	@ 0xa1c
 80060aa:	3301      	adds	r3, #1
 80060ac:	f8c7 3a1c 	str.w	r3, [r7, #2588]	@ 0xa1c

	int command_flag = 0;
 80060b0:	2300      	movs	r3, #0
 80060b2:	f8c7 3a10 	str.w	r3, [r7, #2576]	@ 0xa10

	for (int i = 0; i < num_commands; i++)
 80060b6:	2300      	movs	r3, #0
 80060b8:	f8c7 3a0c 	str.w	r3, [r7, #2572]	@ 0xa0c
 80060bc:	e022      	b.n	8006104 <process_command+0x1a0>
	{
		if (strcasecmp(argv[0], commands[i].name) == 0)
 80060be:	4a1c      	ldr	r2, [pc, #112]	@ (8006130 <process_command+0x1cc>)
 80060c0:	f8d7 3a0c 	ldr.w	r3, [r7, #2572]	@ 0xa0c
 80060c4:	f852 2033 	ldr.w	r2, [r2, r3, lsl #3]
 80060c8:	f107 030c 	add.w	r3, r7, #12
 80060cc:	4611      	mov	r1, r2
 80060ce:	4618      	mov	r0, r3
 80060d0:	f003 f940 	bl	8009354 <strcasecmp>
 80060d4:	4603      	mov	r3, r0
 80060d6:	2b00      	cmp	r3, #0
 80060d8:	d10f      	bne.n	80060fa <process_command+0x196>
		{
			command_flag = 1;
 80060da:	2301      	movs	r3, #1
 80060dc:	f8c7 3a10 	str.w	r3, [r7, #2576]	@ 0xa10
			commands[i].handler(argc, argv);
 80060e0:	4a13      	ldr	r2, [pc, #76]	@ (8006130 <process_command+0x1cc>)
 80060e2:	f8d7 3a0c 	ldr.w	r3, [r7, #2572]	@ 0xa0c
 80060e6:	00db      	lsls	r3, r3, #3
 80060e8:	4413      	add	r3, r2
 80060ea:	685b      	ldr	r3, [r3, #4]
 80060ec:	f107 020c 	add.w	r2, r7, #12
 80060f0:	4611      	mov	r1, r2
 80060f2:	f8d7 0a1c 	ldr.w	r0, [r7, #2588]	@ 0xa1c
 80060f6:	4798      	blx	r3
			break;
 80060f8:	e009      	b.n	800610e <process_command+0x1aa>
	for (int i = 0; i < num_commands; i++)
 80060fa:	f8d7 3a0c 	ldr.w	r3, [r7, #2572]	@ 0xa0c
 80060fe:	3301      	adds	r3, #1
 8006100:	f8c7 3a0c 	str.w	r3, [r7, #2572]	@ 0xa0c
 8006104:	2205      	movs	r2, #5
 8006106:	f8d7 3a0c 	ldr.w	r3, [r7, #2572]	@ 0xa0c
 800610a:	4293      	cmp	r3, r2
 800610c:	dbd7      	blt.n	80060be <process_command+0x15a>
		}
	}

	if (!command_flag)
 800610e:	f8d7 3a10 	ldr.w	r3, [r7, #2576]	@ 0xa10
 8006112:	2b00      	cmp	r3, #0
 8006114:	d106      	bne.n	8006124 <process_command+0x1c0>
	{
		unknown_command(argc, argv);
 8006116:	f107 030c 	add.w	r3, r7, #12
 800611a:	4619      	mov	r1, r3
 800611c:	f8d7 0a1c 	ldr.w	r0, [r7, #2588]	@ 0xa1c
 8006120:	f7fd f9fe 	bl	8003520 <unknown_command>
	}
}
 8006124:	bf00      	nop
 8006126:	f607 2728 	addw	r7, r7, #2600	@ 0xa28
 800612a:	46bd      	mov	sp, r7
 800612c:	bd80      	pop	{r7, pc}
 800612e:	bf00      	nop
 8006130:	080435b4 	.word	0x080435b4

08006134 <get_character>:
	uint8_t item_id;
	uint8_t item_properties[8];
} item_t;

character_t get_character(int character_num)
{
 8006134:	b580      	push	{r7, lr}
 8006136:	b0c0      	sub	sp, #256	@ 0x100
 8006138:	af00      	add	r7, sp, #0
 800613a:	6078      	str	r0, [r7, #4]
 800613c:	f507 7380 	add.w	r3, r7, #256	@ 0x100
 8006140:	f5a3 7380 	sub.w	r3, r3, #256	@ 0x100
 8006144:	6019      	str	r1, [r3, #0]
	character_t c = {};
 8006146:	f107 0308 	add.w	r3, r7, #8
 800614a:	22d3      	movs	r2, #211	@ 0xd3
 800614c:	2100      	movs	r1, #0
 800614e:	4618      	mov	r0, r3
 8006150:	f003 f8f8 	bl	8009344 <memset>

	uint16_t mem_addr = (CHARACTER_SIZE * (character_num - 1)) + CHARACTER_OFFSET;
 8006154:	f507 7380 	add.w	r3, r7, #256	@ 0x100
 8006158:	f5a3 7380 	sub.w	r3, r3, #256	@ 0x100
 800615c:	681b      	ldr	r3, [r3, #0]
 800615e:	3b01      	subs	r3, #1
 8006160:	b29b      	uxth	r3, r3
 8006162:	021b      	lsls	r3, r3, #8
 8006164:	f8a7 30fe 	strh.w	r3, [r7, #254]	@ 0xfe

	if (mem_addr < CHARACTER_OFFSET || mem_addr >= (CHARACTER_OFFSET + (CHARACTER_SIZE * CHARACTER_LIMIT)))
 8006168:	f8b7 30fe 	ldrh.w	r3, [r7, #254]	@ 0xfe
 800616c:	f5b3 6fc0 	cmp.w	r3, #1536	@ 0x600
 8006170:	d30a      	bcc.n	8006188 <get_character+0x54>
	{
		c.name[0] = 0;
 8006172:	2300      	movs	r3, #0
 8006174:	723b      	strb	r3, [r7, #8]
		return c;
 8006176:	687b      	ldr	r3, [r7, #4]
 8006178:	4618      	mov	r0, r3
 800617a:	f107 0308 	add.w	r3, r7, #8
 800617e:	22d3      	movs	r2, #211	@ 0xd3
 8006180:	4619      	mov	r1, r3
 8006182:	f003 f976 	bl	8009472 <memcpy>
 8006186:	e3a0      	b.n	80068ca <get_character+0x796>
	}

	EEPROM_ReadByte(mem_addr, &c.name[0]);
 8006188:	f107 0208 	add.w	r2, r7, #8
 800618c:	f8b7 30fe 	ldrh.w	r3, [r7, #254]	@ 0xfe
 8006190:	4611      	mov	r1, r2
 8006192:	4618      	mov	r0, r3
 8006194:	f7fa fa12 	bl	80005bc <EEPROM_ReadByte>

	if (c.name[0] == 0)
 8006198:	7a3b      	ldrb	r3, [r7, #8]
 800619a:	2b00      	cmp	r3, #0
 800619c:	d10a      	bne.n	80061b4 <get_character+0x80>
	{
		c.name[0] = 0;
 800619e:	2300      	movs	r3, #0
 80061a0:	723b      	strb	r3, [r7, #8]
		return c;
 80061a2:	687b      	ldr	r3, [r7, #4]
 80061a4:	4618      	mov	r0, r3
 80061a6:	f107 0308 	add.w	r3, r7, #8
 80061aa:	22d3      	movs	r2, #211	@ 0xd3
 80061ac:	4619      	mov	r1, r3
 80061ae:	f003 f960 	bl	8009472 <memcpy>
 80061b2:	e38a      	b.n	80068ca <get_character+0x796>
	}

	for (int i = 0; i < 64; i++)
 80061b4:	2300      	movs	r3, #0
 80061b6:	f8c7 30f8 	str.w	r3, [r7, #248]	@ 0xf8
 80061ba:	e012      	b.n	80061e2 <get_character+0xae>
	{
		EEPROM_ReadByte(mem_addr++, &c.name[i]);
 80061bc:	f8b7 30fe 	ldrh.w	r3, [r7, #254]	@ 0xfe
 80061c0:	1c5a      	adds	r2, r3, #1
 80061c2:	f8a7 20fe 	strh.w	r2, [r7, #254]	@ 0xfe
 80061c6:	f107 0108 	add.w	r1, r7, #8
 80061ca:	f8d7 20f8 	ldr.w	r2, [r7, #248]	@ 0xf8
 80061ce:	440a      	add	r2, r1
 80061d0:	4611      	mov	r1, r2
 80061d2:	4618      	mov	r0, r3
 80061d4:	f7fa f9f2 	bl	80005bc <EEPROM_ReadByte>
	for (int i = 0; i < 64; i++)
 80061d8:	f8d7 30f8 	ldr.w	r3, [r7, #248]	@ 0xf8
 80061dc:	3301      	adds	r3, #1
 80061de:	f8c7 30f8 	str.w	r3, [r7, #248]	@ 0xf8
 80061e2:	f8d7 30f8 	ldr.w	r3, [r7, #248]	@ 0xf8
 80061e6:	2b3f      	cmp	r3, #63	@ 0x3f
 80061e8:	dde8      	ble.n	80061bc <get_character+0x88>
	}

	EEPROM_ReadByte(mem_addr++, &c.species);
 80061ea:	f8b7 30fe 	ldrh.w	r3, [r7, #254]	@ 0xfe
 80061ee:	1c5a      	adds	r2, r3, #1
 80061f0:	f8a7 20fe 	strh.w	r2, [r7, #254]	@ 0xfe
 80061f4:	f107 0208 	add.w	r2, r7, #8
 80061f8:	3240      	adds	r2, #64	@ 0x40
 80061fa:	4611      	mov	r1, r2
 80061fc:	4618      	mov	r0, r3
 80061fe:	f7fa f9dd 	bl	80005bc <EEPROM_ReadByte>
	EEPROM_ReadByte(mem_addr++, &c.primary_class_subclass);
 8006202:	f8b7 30fe 	ldrh.w	r3, [r7, #254]	@ 0xfe
 8006206:	1c5a      	adds	r2, r3, #1
 8006208:	f8a7 20fe 	strh.w	r2, [r7, #254]	@ 0xfe
 800620c:	f107 0208 	add.w	r2, r7, #8
 8006210:	3241      	adds	r2, #65	@ 0x41
 8006212:	4611      	mov	r1, r2
 8006214:	4618      	mov	r0, r3
 8006216:	f7fa f9d1 	bl	80005bc <EEPROM_ReadByte>
	EEPROM_ReadByte(mem_addr++, &c.primary_level);
 800621a:	f8b7 30fe 	ldrh.w	r3, [r7, #254]	@ 0xfe
 800621e:	1c5a      	adds	r2, r3, #1
 8006220:	f8a7 20fe 	strh.w	r2, [r7, #254]	@ 0xfe
 8006224:	f107 0208 	add.w	r2, r7, #8
 8006228:	3242      	adds	r2, #66	@ 0x42
 800622a:	4611      	mov	r1, r2
 800622c:	4618      	mov	r0, r3
 800622e:	f7fa f9c5 	bl	80005bc <EEPROM_ReadByte>
	EEPROM_ReadByte(mem_addr++, &c.secondary_class_subclass);
 8006232:	f8b7 30fe 	ldrh.w	r3, [r7, #254]	@ 0xfe
 8006236:	1c5a      	adds	r2, r3, #1
 8006238:	f8a7 20fe 	strh.w	r2, [r7, #254]	@ 0xfe
 800623c:	f107 0208 	add.w	r2, r7, #8
 8006240:	3243      	adds	r2, #67	@ 0x43
 8006242:	4611      	mov	r1, r2
 8006244:	4618      	mov	r0, r3
 8006246:	f7fa f9b9 	bl	80005bc <EEPROM_ReadByte>
	EEPROM_ReadByte(mem_addr++, &c.secondary_level);
 800624a:	f8b7 30fe 	ldrh.w	r3, [r7, #254]	@ 0xfe
 800624e:	1c5a      	adds	r2, r3, #1
 8006250:	f8a7 20fe 	strh.w	r2, [r7, #254]	@ 0xfe
 8006254:	f107 0208 	add.w	r2, r7, #8
 8006258:	3244      	adds	r2, #68	@ 0x44
 800625a:	4611      	mov	r1, r2
 800625c:	4618      	mov	r0, r3
 800625e:	f7fa f9ad 	bl	80005bc <EEPROM_ReadByte>
	EEPROM_ReadByte(mem_addr++, &c.tertiary_class_subclass);
 8006262:	f8b7 30fe 	ldrh.w	r3, [r7, #254]	@ 0xfe
 8006266:	1c5a      	adds	r2, r3, #1
 8006268:	f8a7 20fe 	strh.w	r2, [r7, #254]	@ 0xfe
 800626c:	f107 0208 	add.w	r2, r7, #8
 8006270:	3245      	adds	r2, #69	@ 0x45
 8006272:	4611      	mov	r1, r2
 8006274:	4618      	mov	r0, r3
 8006276:	f7fa f9a1 	bl	80005bc <EEPROM_ReadByte>
	EEPROM_ReadByte(mem_addr++, &c.tertiary_level);
 800627a:	f8b7 30fe 	ldrh.w	r3, [r7, #254]	@ 0xfe
 800627e:	1c5a      	adds	r2, r3, #1
 8006280:	f8a7 20fe 	strh.w	r2, [r7, #254]	@ 0xfe
 8006284:	f107 0208 	add.w	r2, r7, #8
 8006288:	3246      	adds	r2, #70	@ 0x46
 800628a:	4611      	mov	r1, r2
 800628c:	4618      	mov	r0, r3
 800628e:	f7fa f995 	bl	80005bc <EEPROM_ReadByte>

	for (int i = 0; i < 8; i++)
 8006292:	2300      	movs	r3, #0
 8006294:	f8c7 30f4 	str.w	r3, [r7, #244]	@ 0xf4
 8006298:	e014      	b.n	80062c4 <get_character+0x190>
	{
		EEPROM_ReadByte(mem_addr++, &c.feats[i]);
 800629a:	f8b7 30fe 	ldrh.w	r3, [r7, #254]	@ 0xfe
 800629e:	1c5a      	adds	r2, r3, #1
 80062a0:	f8a7 20fe 	strh.w	r2, [r7, #254]	@ 0xfe
 80062a4:	f107 0108 	add.w	r1, r7, #8
 80062a8:	f8d7 20f4 	ldr.w	r2, [r7, #244]	@ 0xf4
 80062ac:	3240      	adds	r2, #64	@ 0x40
 80062ae:	440a      	add	r2, r1
 80062b0:	3207      	adds	r2, #7
 80062b2:	4611      	mov	r1, r2
 80062b4:	4618      	mov	r0, r3
 80062b6:	f7fa f981 	bl	80005bc <EEPROM_ReadByte>
	for (int i = 0; i < 8; i++)
 80062ba:	f8d7 30f4 	ldr.w	r3, [r7, #244]	@ 0xf4
 80062be:	3301      	adds	r3, #1
 80062c0:	f8c7 30f4 	str.w	r3, [r7, #244]	@ 0xf4
 80062c4:	f8d7 30f4 	ldr.w	r3, [r7, #244]	@ 0xf4
 80062c8:	2b07      	cmp	r3, #7
 80062ca:	dde6      	ble.n	800629a <get_character+0x166>
	}

	EEPROM_ReadByte(mem_addr++, &c.proficiency_bonus);
 80062cc:	f8b7 30fe 	ldrh.w	r3, [r7, #254]	@ 0xfe
 80062d0:	1c5a      	adds	r2, r3, #1
 80062d2:	f8a7 20fe 	strh.w	r2, [r7, #254]	@ 0xfe
 80062d6:	f107 0208 	add.w	r2, r7, #8
 80062da:	324f      	adds	r2, #79	@ 0x4f
 80062dc:	4611      	mov	r1, r2
 80062de:	4618      	mov	r0, r3
 80062e0:	f7fa f96c 	bl	80005bc <EEPROM_ReadByte>
	EEPROM_ReadByte(mem_addr++, &c.armor_class);
 80062e4:	f8b7 30fe 	ldrh.w	r3, [r7, #254]	@ 0xfe
 80062e8:	1c5a      	adds	r2, r3, #1
 80062ea:	f8a7 20fe 	strh.w	r2, [r7, #254]	@ 0xfe
 80062ee:	f107 0208 	add.w	r2, r7, #8
 80062f2:	3250      	adds	r2, #80	@ 0x50
 80062f4:	4611      	mov	r1, r2
 80062f6:	4618      	mov	r0, r3
 80062f8:	f7fa f960 	bl	80005bc <EEPROM_ReadByte>
	EEPROM_ReadByte(mem_addr++, &c.initiative);
 80062fc:	f8b7 30fe 	ldrh.w	r3, [r7, #254]	@ 0xfe
 8006300:	1c5a      	adds	r2, r3, #1
 8006302:	f8a7 20fe 	strh.w	r2, [r7, #254]	@ 0xfe
 8006306:	f107 0208 	add.w	r2, r7, #8
 800630a:	3251      	adds	r2, #81	@ 0x51
 800630c:	4611      	mov	r1, r2
 800630e:	4618      	mov	r0, r3
 8006310:	f7fa f954 	bl	80005bc <EEPROM_ReadByte>
	EEPROM_ReadByte(mem_addr++, &c.current_hit_points);
 8006314:	f8b7 30fe 	ldrh.w	r3, [r7, #254]	@ 0xfe
 8006318:	1c5a      	adds	r2, r3, #1
 800631a:	f8a7 20fe 	strh.w	r2, [r7, #254]	@ 0xfe
 800631e:	f107 0208 	add.w	r2, r7, #8
 8006322:	3252      	adds	r2, #82	@ 0x52
 8006324:	4611      	mov	r1, r2
 8006326:	4618      	mov	r0, r3
 8006328:	f7fa f948 	bl	80005bc <EEPROM_ReadByte>
	EEPROM_ReadByte(mem_addr++, &c.maximum_hit_points);
 800632c:	f8b7 30fe 	ldrh.w	r3, [r7, #254]	@ 0xfe
 8006330:	1c5a      	adds	r2, r3, #1
 8006332:	f8a7 20fe 	strh.w	r2, [r7, #254]	@ 0xfe
 8006336:	f107 0208 	add.w	r2, r7, #8
 800633a:	3253      	adds	r2, #83	@ 0x53
 800633c:	4611      	mov	r1, r2
 800633e:	4618      	mov	r0, r3
 8006340:	f7fa f93c 	bl	80005bc <EEPROM_ReadByte>
	EEPROM_ReadByte(mem_addr++, &c.temporary_hit_points);
 8006344:	f8b7 30fe 	ldrh.w	r3, [r7, #254]	@ 0xfe
 8006348:	1c5a      	adds	r2, r3, #1
 800634a:	f8a7 20fe 	strh.w	r2, [r7, #254]	@ 0xfe
 800634e:	f107 0208 	add.w	r2, r7, #8
 8006352:	3254      	adds	r2, #84	@ 0x54
 8006354:	4611      	mov	r1, r2
 8006356:	4618      	mov	r0, r3
 8006358:	f7fa f930 	bl	80005bc <EEPROM_ReadByte>
	EEPROM_ReadByte(mem_addr++, &c.strength_ability_modifier);
 800635c:	f8b7 30fe 	ldrh.w	r3, [r7, #254]	@ 0xfe
 8006360:	1c5a      	adds	r2, r3, #1
 8006362:	f8a7 20fe 	strh.w	r2, [r7, #254]	@ 0xfe
 8006366:	f107 0208 	add.w	r2, r7, #8
 800636a:	3255      	adds	r2, #85	@ 0x55
 800636c:	4611      	mov	r1, r2
 800636e:	4618      	mov	r0, r3
 8006370:	f7fa f924 	bl	80005bc <EEPROM_ReadByte>
	EEPROM_ReadByte(mem_addr++, &c.strength_saving_throw_modifier);
 8006374:	f8b7 30fe 	ldrh.w	r3, [r7, #254]	@ 0xfe
 8006378:	1c5a      	adds	r2, r3, #1
 800637a:	f8a7 20fe 	strh.w	r2, [r7, #254]	@ 0xfe
 800637e:	f107 0208 	add.w	r2, r7, #8
 8006382:	3256      	adds	r2, #86	@ 0x56
 8006384:	4611      	mov	r1, r2
 8006386:	4618      	mov	r0, r3
 8006388:	f7fa f918 	bl	80005bc <EEPROM_ReadByte>
	EEPROM_ReadByte(mem_addr++, &c.dexterity_ability_modifier);
 800638c:	f8b7 30fe 	ldrh.w	r3, [r7, #254]	@ 0xfe
 8006390:	1c5a      	adds	r2, r3, #1
 8006392:	f8a7 20fe 	strh.w	r2, [r7, #254]	@ 0xfe
 8006396:	f107 0208 	add.w	r2, r7, #8
 800639a:	3257      	adds	r2, #87	@ 0x57
 800639c:	4611      	mov	r1, r2
 800639e:	4618      	mov	r0, r3
 80063a0:	f7fa f90c 	bl	80005bc <EEPROM_ReadByte>
	EEPROM_ReadByte(mem_addr++, &c.dexterity_saving_throw_modifier);
 80063a4:	f8b7 30fe 	ldrh.w	r3, [r7, #254]	@ 0xfe
 80063a8:	1c5a      	adds	r2, r3, #1
 80063aa:	f8a7 20fe 	strh.w	r2, [r7, #254]	@ 0xfe
 80063ae:	f107 0208 	add.w	r2, r7, #8
 80063b2:	3258      	adds	r2, #88	@ 0x58
 80063b4:	4611      	mov	r1, r2
 80063b6:	4618      	mov	r0, r3
 80063b8:	f7fa f900 	bl	80005bc <EEPROM_ReadByte>
	EEPROM_ReadByte(mem_addr++, &c.constitution_ability_modifier);
 80063bc:	f8b7 30fe 	ldrh.w	r3, [r7, #254]	@ 0xfe
 80063c0:	1c5a      	adds	r2, r3, #1
 80063c2:	f8a7 20fe 	strh.w	r2, [r7, #254]	@ 0xfe
 80063c6:	f107 0208 	add.w	r2, r7, #8
 80063ca:	3259      	adds	r2, #89	@ 0x59
 80063cc:	4611      	mov	r1, r2
 80063ce:	4618      	mov	r0, r3
 80063d0:	f7fa f8f4 	bl	80005bc <EEPROM_ReadByte>
	EEPROM_ReadByte(mem_addr++, &c.constitution_saving_throw_modifier);
 80063d4:	f8b7 30fe 	ldrh.w	r3, [r7, #254]	@ 0xfe
 80063d8:	1c5a      	adds	r2, r3, #1
 80063da:	f8a7 20fe 	strh.w	r2, [r7, #254]	@ 0xfe
 80063de:	f107 0208 	add.w	r2, r7, #8
 80063e2:	325a      	adds	r2, #90	@ 0x5a
 80063e4:	4611      	mov	r1, r2
 80063e6:	4618      	mov	r0, r3
 80063e8:	f7fa f8e8 	bl	80005bc <EEPROM_ReadByte>
	EEPROM_ReadByte(mem_addr++, &c.intelligence_ability_modifier);
 80063ec:	f8b7 30fe 	ldrh.w	r3, [r7, #254]	@ 0xfe
 80063f0:	1c5a      	adds	r2, r3, #1
 80063f2:	f8a7 20fe 	strh.w	r2, [r7, #254]	@ 0xfe
 80063f6:	f107 0208 	add.w	r2, r7, #8
 80063fa:	325b      	adds	r2, #91	@ 0x5b
 80063fc:	4611      	mov	r1, r2
 80063fe:	4618      	mov	r0, r3
 8006400:	f7fa f8dc 	bl	80005bc <EEPROM_ReadByte>
	EEPROM_ReadByte(mem_addr++, &c.intelligence_saving_throw_modifier);
 8006404:	f8b7 30fe 	ldrh.w	r3, [r7, #254]	@ 0xfe
 8006408:	1c5a      	adds	r2, r3, #1
 800640a:	f8a7 20fe 	strh.w	r2, [r7, #254]	@ 0xfe
 800640e:	f107 0208 	add.w	r2, r7, #8
 8006412:	325c      	adds	r2, #92	@ 0x5c
 8006414:	4611      	mov	r1, r2
 8006416:	4618      	mov	r0, r3
 8006418:	f7fa f8d0 	bl	80005bc <EEPROM_ReadByte>
	EEPROM_ReadByte(mem_addr++, &c.wisdom_ability_modifier);
 800641c:	f8b7 30fe 	ldrh.w	r3, [r7, #254]	@ 0xfe
 8006420:	1c5a      	adds	r2, r3, #1
 8006422:	f8a7 20fe 	strh.w	r2, [r7, #254]	@ 0xfe
 8006426:	f107 0208 	add.w	r2, r7, #8
 800642a:	325d      	adds	r2, #93	@ 0x5d
 800642c:	4611      	mov	r1, r2
 800642e:	4618      	mov	r0, r3
 8006430:	f7fa f8c4 	bl	80005bc <EEPROM_ReadByte>
	EEPROM_ReadByte(mem_addr++, &c.wisdom_saving_throw_modifier);
 8006434:	f8b7 30fe 	ldrh.w	r3, [r7, #254]	@ 0xfe
 8006438:	1c5a      	adds	r2, r3, #1
 800643a:	f8a7 20fe 	strh.w	r2, [r7, #254]	@ 0xfe
 800643e:	f107 0208 	add.w	r2, r7, #8
 8006442:	325e      	adds	r2, #94	@ 0x5e
 8006444:	4611      	mov	r1, r2
 8006446:	4618      	mov	r0, r3
 8006448:	f7fa f8b8 	bl	80005bc <EEPROM_ReadByte>
	EEPROM_ReadByte(mem_addr++, &c.charisma_ability_modifier);
 800644c:	f8b7 30fe 	ldrh.w	r3, [r7, #254]	@ 0xfe
 8006450:	1c5a      	adds	r2, r3, #1
 8006452:	f8a7 20fe 	strh.w	r2, [r7, #254]	@ 0xfe
 8006456:	f107 0208 	add.w	r2, r7, #8
 800645a:	325f      	adds	r2, #95	@ 0x5f
 800645c:	4611      	mov	r1, r2
 800645e:	4618      	mov	r0, r3
 8006460:	f7fa f8ac 	bl	80005bc <EEPROM_ReadByte>
	EEPROM_ReadByte(mem_addr++, &c.charisma_saving_throw_modifier);
 8006464:	f8b7 30fe 	ldrh.w	r3, [r7, #254]	@ 0xfe
 8006468:	1c5a      	adds	r2, r3, #1
 800646a:	f8a7 20fe 	strh.w	r2, [r7, #254]	@ 0xfe
 800646e:	f107 0208 	add.w	r2, r7, #8
 8006472:	3260      	adds	r2, #96	@ 0x60
 8006474:	4611      	mov	r1, r2
 8006476:	4618      	mov	r0, r3
 8006478:	f7fa f8a0 	bl	80005bc <EEPROM_ReadByte>

	for (int i = 0; i < 4; i++)
 800647c:	2300      	movs	r3, #0
 800647e:	f8c7 30f0 	str.w	r3, [r7, #240]	@ 0xf0
 8006482:	e014      	b.n	80064ae <get_character+0x37a>
	{
		EEPROM_ReadByte(mem_addr++, &c.armor_proficiencies[i]);
 8006484:	f8b7 30fe 	ldrh.w	r3, [r7, #254]	@ 0xfe
 8006488:	1c5a      	adds	r2, r3, #1
 800648a:	f8a7 20fe 	strh.w	r2, [r7, #254]	@ 0xfe
 800648e:	f107 0108 	add.w	r1, r7, #8
 8006492:	f8d7 20f0 	ldr.w	r2, [r7, #240]	@ 0xf0
 8006496:	3260      	adds	r2, #96	@ 0x60
 8006498:	440a      	add	r2, r1
 800649a:	3201      	adds	r2, #1
 800649c:	4611      	mov	r1, r2
 800649e:	4618      	mov	r0, r3
 80064a0:	f7fa f88c 	bl	80005bc <EEPROM_ReadByte>
	for (int i = 0; i < 4; i++)
 80064a4:	f8d7 30f0 	ldr.w	r3, [r7, #240]	@ 0xf0
 80064a8:	3301      	adds	r3, #1
 80064aa:	f8c7 30f0 	str.w	r3, [r7, #240]	@ 0xf0
 80064ae:	f8d7 30f0 	ldr.w	r3, [r7, #240]	@ 0xf0
 80064b2:	2b03      	cmp	r3, #3
 80064b4:	dde6      	ble.n	8006484 <get_character+0x350>
	}

	for (int i = 0; i < 38; i++)
 80064b6:	2300      	movs	r3, #0
 80064b8:	f8c7 30ec 	str.w	r3, [r7, #236]	@ 0xec
 80064bc:	e014      	b.n	80064e8 <get_character+0x3b4>
	{
		EEPROM_ReadByte(mem_addr++, &c.weapon_proficiencies[i]);
 80064be:	f8b7 30fe 	ldrh.w	r3, [r7, #254]	@ 0xfe
 80064c2:	1c5a      	adds	r2, r3, #1
 80064c4:	f8a7 20fe 	strh.w	r2, [r7, #254]	@ 0xfe
 80064c8:	f107 0108 	add.w	r1, r7, #8
 80064cc:	f8d7 20ec 	ldr.w	r2, [r7, #236]	@ 0xec
 80064d0:	3260      	adds	r2, #96	@ 0x60
 80064d2:	440a      	add	r2, r1
 80064d4:	3205      	adds	r2, #5
 80064d6:	4611      	mov	r1, r2
 80064d8:	4618      	mov	r0, r3
 80064da:	f7fa f86f 	bl	80005bc <EEPROM_ReadByte>
	for (int i = 0; i < 38; i++)
 80064de:	f8d7 30ec 	ldr.w	r3, [r7, #236]	@ 0xec
 80064e2:	3301      	adds	r3, #1
 80064e4:	f8c7 30ec 	str.w	r3, [r7, #236]	@ 0xec
 80064e8:	f8d7 30ec 	ldr.w	r3, [r7, #236]	@ 0xec
 80064ec:	2b25      	cmp	r3, #37	@ 0x25
 80064ee:	dde6      	ble.n	80064be <get_character+0x38a>
	}

	EEPROM_ReadByte(mem_addr++, &c.acrobatics_skill_modifier);
 80064f0:	f8b7 30fe 	ldrh.w	r3, [r7, #254]	@ 0xfe
 80064f4:	1c5a      	adds	r2, r3, #1
 80064f6:	f8a7 20fe 	strh.w	r2, [r7, #254]	@ 0xfe
 80064fa:	f107 0208 	add.w	r2, r7, #8
 80064fe:	328b      	adds	r2, #139	@ 0x8b
 8006500:	4611      	mov	r1, r2
 8006502:	4618      	mov	r0, r3
 8006504:	f7fa f85a 	bl	80005bc <EEPROM_ReadByte>
	EEPROM_ReadByte(mem_addr++, &c.animal_handling_skill_modifier);
 8006508:	f8b7 30fe 	ldrh.w	r3, [r7, #254]	@ 0xfe
 800650c:	1c5a      	adds	r2, r3, #1
 800650e:	f8a7 20fe 	strh.w	r2, [r7, #254]	@ 0xfe
 8006512:	f107 0208 	add.w	r2, r7, #8
 8006516:	328c      	adds	r2, #140	@ 0x8c
 8006518:	4611      	mov	r1, r2
 800651a:	4618      	mov	r0, r3
 800651c:	f7fa f84e 	bl	80005bc <EEPROM_ReadByte>
	EEPROM_ReadByte(mem_addr++, &c.arcana_skill_modifier);
 8006520:	f8b7 30fe 	ldrh.w	r3, [r7, #254]	@ 0xfe
 8006524:	1c5a      	adds	r2, r3, #1
 8006526:	f8a7 20fe 	strh.w	r2, [r7, #254]	@ 0xfe
 800652a:	f107 0208 	add.w	r2, r7, #8
 800652e:	328d      	adds	r2, #141	@ 0x8d
 8006530:	4611      	mov	r1, r2
 8006532:	4618      	mov	r0, r3
 8006534:	f7fa f842 	bl	80005bc <EEPROM_ReadByte>
	EEPROM_ReadByte(mem_addr++, &c.athletics_skill_modifier);
 8006538:	f8b7 30fe 	ldrh.w	r3, [r7, #254]	@ 0xfe
 800653c:	1c5a      	adds	r2, r3, #1
 800653e:	f8a7 20fe 	strh.w	r2, [r7, #254]	@ 0xfe
 8006542:	f107 0208 	add.w	r2, r7, #8
 8006546:	328e      	adds	r2, #142	@ 0x8e
 8006548:	4611      	mov	r1, r2
 800654a:	4618      	mov	r0, r3
 800654c:	f7fa f836 	bl	80005bc <EEPROM_ReadByte>
	EEPROM_ReadByte(mem_addr++, &c.deception_skill_modifier);
 8006550:	f8b7 30fe 	ldrh.w	r3, [r7, #254]	@ 0xfe
 8006554:	1c5a      	adds	r2, r3, #1
 8006556:	f8a7 20fe 	strh.w	r2, [r7, #254]	@ 0xfe
 800655a:	f107 0208 	add.w	r2, r7, #8
 800655e:	328f      	adds	r2, #143	@ 0x8f
 8006560:	4611      	mov	r1, r2
 8006562:	4618      	mov	r0, r3
 8006564:	f7fa f82a 	bl	80005bc <EEPROM_ReadByte>
	EEPROM_ReadByte(mem_addr++, &c.history_skill_modifier);
 8006568:	f8b7 30fe 	ldrh.w	r3, [r7, #254]	@ 0xfe
 800656c:	1c5a      	adds	r2, r3, #1
 800656e:	f8a7 20fe 	strh.w	r2, [r7, #254]	@ 0xfe
 8006572:	f107 0208 	add.w	r2, r7, #8
 8006576:	3290      	adds	r2, #144	@ 0x90
 8006578:	4611      	mov	r1, r2
 800657a:	4618      	mov	r0, r3
 800657c:	f7fa f81e 	bl	80005bc <EEPROM_ReadByte>
	EEPROM_ReadByte(mem_addr++, &c.insight_skill_modifier);
 8006580:	f8b7 30fe 	ldrh.w	r3, [r7, #254]	@ 0xfe
 8006584:	1c5a      	adds	r2, r3, #1
 8006586:	f8a7 20fe 	strh.w	r2, [r7, #254]	@ 0xfe
 800658a:	f107 0208 	add.w	r2, r7, #8
 800658e:	3291      	adds	r2, #145	@ 0x91
 8006590:	4611      	mov	r1, r2
 8006592:	4618      	mov	r0, r3
 8006594:	f7fa f812 	bl	80005bc <EEPROM_ReadByte>
	EEPROM_ReadByte(mem_addr++, &c.intimidation_skill_modifier);
 8006598:	f8b7 30fe 	ldrh.w	r3, [r7, #254]	@ 0xfe
 800659c:	1c5a      	adds	r2, r3, #1
 800659e:	f8a7 20fe 	strh.w	r2, [r7, #254]	@ 0xfe
 80065a2:	f107 0208 	add.w	r2, r7, #8
 80065a6:	3292      	adds	r2, #146	@ 0x92
 80065a8:	4611      	mov	r1, r2
 80065aa:	4618      	mov	r0, r3
 80065ac:	f7fa f806 	bl	80005bc <EEPROM_ReadByte>
	EEPROM_ReadByte(mem_addr++, &c.investigation_skill_modifier);
 80065b0:	f8b7 30fe 	ldrh.w	r3, [r7, #254]	@ 0xfe
 80065b4:	1c5a      	adds	r2, r3, #1
 80065b6:	f8a7 20fe 	strh.w	r2, [r7, #254]	@ 0xfe
 80065ba:	f107 0208 	add.w	r2, r7, #8
 80065be:	3293      	adds	r2, #147	@ 0x93
 80065c0:	4611      	mov	r1, r2
 80065c2:	4618      	mov	r0, r3
 80065c4:	f7f9 fffa 	bl	80005bc <EEPROM_ReadByte>
	EEPROM_ReadByte(mem_addr++, &c.medicine_skill_modifier);
 80065c8:	f8b7 30fe 	ldrh.w	r3, [r7, #254]	@ 0xfe
 80065cc:	1c5a      	adds	r2, r3, #1
 80065ce:	f8a7 20fe 	strh.w	r2, [r7, #254]	@ 0xfe
 80065d2:	f107 0208 	add.w	r2, r7, #8
 80065d6:	3294      	adds	r2, #148	@ 0x94
 80065d8:	4611      	mov	r1, r2
 80065da:	4618      	mov	r0, r3
 80065dc:	f7f9 ffee 	bl	80005bc <EEPROM_ReadByte>
	EEPROM_ReadByte(mem_addr++, &c.nature_skill_modifier);
 80065e0:	f8b7 30fe 	ldrh.w	r3, [r7, #254]	@ 0xfe
 80065e4:	1c5a      	adds	r2, r3, #1
 80065e6:	f8a7 20fe 	strh.w	r2, [r7, #254]	@ 0xfe
 80065ea:	f107 0208 	add.w	r2, r7, #8
 80065ee:	3295      	adds	r2, #149	@ 0x95
 80065f0:	4611      	mov	r1, r2
 80065f2:	4618      	mov	r0, r3
 80065f4:	f7f9 ffe2 	bl	80005bc <EEPROM_ReadByte>
	EEPROM_ReadByte(mem_addr++, &c.perception_skill_modifier);
 80065f8:	f8b7 30fe 	ldrh.w	r3, [r7, #254]	@ 0xfe
 80065fc:	1c5a      	adds	r2, r3, #1
 80065fe:	f8a7 20fe 	strh.w	r2, [r7, #254]	@ 0xfe
 8006602:	f107 0208 	add.w	r2, r7, #8
 8006606:	3296      	adds	r2, #150	@ 0x96
 8006608:	4611      	mov	r1, r2
 800660a:	4618      	mov	r0, r3
 800660c:	f7f9 ffd6 	bl	80005bc <EEPROM_ReadByte>
	EEPROM_ReadByte(mem_addr++, &c.performance_skill_modifier);
 8006610:	f8b7 30fe 	ldrh.w	r3, [r7, #254]	@ 0xfe
 8006614:	1c5a      	adds	r2, r3, #1
 8006616:	f8a7 20fe 	strh.w	r2, [r7, #254]	@ 0xfe
 800661a:	f107 0208 	add.w	r2, r7, #8
 800661e:	3297      	adds	r2, #151	@ 0x97
 8006620:	4611      	mov	r1, r2
 8006622:	4618      	mov	r0, r3
 8006624:	f7f9 ffca 	bl	80005bc <EEPROM_ReadByte>
	EEPROM_ReadByte(mem_addr++, &c.persuasion_skill_modifier);
 8006628:	f8b7 30fe 	ldrh.w	r3, [r7, #254]	@ 0xfe
 800662c:	1c5a      	adds	r2, r3, #1
 800662e:	f8a7 20fe 	strh.w	r2, [r7, #254]	@ 0xfe
 8006632:	f107 0208 	add.w	r2, r7, #8
 8006636:	3298      	adds	r2, #152	@ 0x98
 8006638:	4611      	mov	r1, r2
 800663a:	4618      	mov	r0, r3
 800663c:	f7f9 ffbe 	bl	80005bc <EEPROM_ReadByte>
	EEPROM_ReadByte(mem_addr++, &c.religion_skill_modifier);
 8006640:	f8b7 30fe 	ldrh.w	r3, [r7, #254]	@ 0xfe
 8006644:	1c5a      	adds	r2, r3, #1
 8006646:	f8a7 20fe 	strh.w	r2, [r7, #254]	@ 0xfe
 800664a:	f107 0208 	add.w	r2, r7, #8
 800664e:	3299      	adds	r2, #153	@ 0x99
 8006650:	4611      	mov	r1, r2
 8006652:	4618      	mov	r0, r3
 8006654:	f7f9 ffb2 	bl	80005bc <EEPROM_ReadByte>
	EEPROM_ReadByte(mem_addr++, &c.sleight_of_hand_skill_modifier);
 8006658:	f8b7 30fe 	ldrh.w	r3, [r7, #254]	@ 0xfe
 800665c:	1c5a      	adds	r2, r3, #1
 800665e:	f8a7 20fe 	strh.w	r2, [r7, #254]	@ 0xfe
 8006662:	f107 0208 	add.w	r2, r7, #8
 8006666:	329a      	adds	r2, #154	@ 0x9a
 8006668:	4611      	mov	r1, r2
 800666a:	4618      	mov	r0, r3
 800666c:	f7f9 ffa6 	bl	80005bc <EEPROM_ReadByte>
	EEPROM_ReadByte(mem_addr++, &c.stealth_skill_modifier);
 8006670:	f8b7 30fe 	ldrh.w	r3, [r7, #254]	@ 0xfe
 8006674:	1c5a      	adds	r2, r3, #1
 8006676:	f8a7 20fe 	strh.w	r2, [r7, #254]	@ 0xfe
 800667a:	f107 0208 	add.w	r2, r7, #8
 800667e:	329b      	adds	r2, #155	@ 0x9b
 8006680:	4611      	mov	r1, r2
 8006682:	4618      	mov	r0, r3
 8006684:	f7f9 ff9a 	bl	80005bc <EEPROM_ReadByte>
	EEPROM_ReadByte(mem_addr++, &c.survival_skill_modifier);
 8006688:	f8b7 30fe 	ldrh.w	r3, [r7, #254]	@ 0xfe
 800668c:	1c5a      	adds	r2, r3, #1
 800668e:	f8a7 20fe 	strh.w	r2, [r7, #254]	@ 0xfe
 8006692:	f107 0208 	add.w	r2, r7, #8
 8006696:	329c      	adds	r2, #156	@ 0x9c
 8006698:	4611      	mov	r1, r2
 800669a:	4618      	mov	r0, r3
 800669c:	f7f9 ff8e 	bl	80005bc <EEPROM_ReadByte>
	EEPROM_ReadByte(mem_addr++, &c.acid_resistance);
 80066a0:	f8b7 30fe 	ldrh.w	r3, [r7, #254]	@ 0xfe
 80066a4:	1c5a      	adds	r2, r3, #1
 80066a6:	f8a7 20fe 	strh.w	r2, [r7, #254]	@ 0xfe
 80066aa:	f107 0208 	add.w	r2, r7, #8
 80066ae:	329d      	adds	r2, #157	@ 0x9d
 80066b0:	4611      	mov	r1, r2
 80066b2:	4618      	mov	r0, r3
 80066b4:	f7f9 ff82 	bl	80005bc <EEPROM_ReadByte>
	EEPROM_ReadByte(mem_addr++, &c.bludgeoning_resistance);
 80066b8:	f8b7 30fe 	ldrh.w	r3, [r7, #254]	@ 0xfe
 80066bc:	1c5a      	adds	r2, r3, #1
 80066be:	f8a7 20fe 	strh.w	r2, [r7, #254]	@ 0xfe
 80066c2:	f107 0208 	add.w	r2, r7, #8
 80066c6:	329e      	adds	r2, #158	@ 0x9e
 80066c8:	4611      	mov	r1, r2
 80066ca:	4618      	mov	r0, r3
 80066cc:	f7f9 ff76 	bl	80005bc <EEPROM_ReadByte>
	EEPROM_ReadByte(mem_addr++, &c.cold_resistance);
 80066d0:	f8b7 30fe 	ldrh.w	r3, [r7, #254]	@ 0xfe
 80066d4:	1c5a      	adds	r2, r3, #1
 80066d6:	f8a7 20fe 	strh.w	r2, [r7, #254]	@ 0xfe
 80066da:	f107 0208 	add.w	r2, r7, #8
 80066de:	329f      	adds	r2, #159	@ 0x9f
 80066e0:	4611      	mov	r1, r2
 80066e2:	4618      	mov	r0, r3
 80066e4:	f7f9 ff6a 	bl	80005bc <EEPROM_ReadByte>
	EEPROM_ReadByte(mem_addr++, &c.fire_resistance);
 80066e8:	f8b7 30fe 	ldrh.w	r3, [r7, #254]	@ 0xfe
 80066ec:	1c5a      	adds	r2, r3, #1
 80066ee:	f8a7 20fe 	strh.w	r2, [r7, #254]	@ 0xfe
 80066f2:	f107 0208 	add.w	r2, r7, #8
 80066f6:	32a0      	adds	r2, #160	@ 0xa0
 80066f8:	4611      	mov	r1, r2
 80066fa:	4618      	mov	r0, r3
 80066fc:	f7f9 ff5e 	bl	80005bc <EEPROM_ReadByte>
	EEPROM_ReadByte(mem_addr++, &c.force_resistance);
 8006700:	f8b7 30fe 	ldrh.w	r3, [r7, #254]	@ 0xfe
 8006704:	1c5a      	adds	r2, r3, #1
 8006706:	f8a7 20fe 	strh.w	r2, [r7, #254]	@ 0xfe
 800670a:	f107 0208 	add.w	r2, r7, #8
 800670e:	32a1      	adds	r2, #161	@ 0xa1
 8006710:	4611      	mov	r1, r2
 8006712:	4618      	mov	r0, r3
 8006714:	f7f9 ff52 	bl	80005bc <EEPROM_ReadByte>
	EEPROM_ReadByte(mem_addr++, &c.lightning_resistance);
 8006718:	f8b7 30fe 	ldrh.w	r3, [r7, #254]	@ 0xfe
 800671c:	1c5a      	adds	r2, r3, #1
 800671e:	f8a7 20fe 	strh.w	r2, [r7, #254]	@ 0xfe
 8006722:	f107 0208 	add.w	r2, r7, #8
 8006726:	32a2      	adds	r2, #162	@ 0xa2
 8006728:	4611      	mov	r1, r2
 800672a:	4618      	mov	r0, r3
 800672c:	f7f9 ff46 	bl	80005bc <EEPROM_ReadByte>
	EEPROM_ReadByte(mem_addr++, &c.necrotic_resistance);
 8006730:	f8b7 30fe 	ldrh.w	r3, [r7, #254]	@ 0xfe
 8006734:	1c5a      	adds	r2, r3, #1
 8006736:	f8a7 20fe 	strh.w	r2, [r7, #254]	@ 0xfe
 800673a:	f107 0208 	add.w	r2, r7, #8
 800673e:	32a3      	adds	r2, #163	@ 0xa3
 8006740:	4611      	mov	r1, r2
 8006742:	4618      	mov	r0, r3
 8006744:	f7f9 ff3a 	bl	80005bc <EEPROM_ReadByte>
	EEPROM_ReadByte(mem_addr++, &c.piercing_resistance);
 8006748:	f8b7 30fe 	ldrh.w	r3, [r7, #254]	@ 0xfe
 800674c:	1c5a      	adds	r2, r3, #1
 800674e:	f8a7 20fe 	strh.w	r2, [r7, #254]	@ 0xfe
 8006752:	f107 0208 	add.w	r2, r7, #8
 8006756:	32a4      	adds	r2, #164	@ 0xa4
 8006758:	4611      	mov	r1, r2
 800675a:	4618      	mov	r0, r3
 800675c:	f7f9 ff2e 	bl	80005bc <EEPROM_ReadByte>
	EEPROM_ReadByte(mem_addr++, &c.poison_resistance);
 8006760:	f8b7 30fe 	ldrh.w	r3, [r7, #254]	@ 0xfe
 8006764:	1c5a      	adds	r2, r3, #1
 8006766:	f8a7 20fe 	strh.w	r2, [r7, #254]	@ 0xfe
 800676a:	f107 0208 	add.w	r2, r7, #8
 800676e:	32a5      	adds	r2, #165	@ 0xa5
 8006770:	4611      	mov	r1, r2
 8006772:	4618      	mov	r0, r3
 8006774:	f7f9 ff22 	bl	80005bc <EEPROM_ReadByte>
	EEPROM_ReadByte(mem_addr++, &c.psychic_resistance);
 8006778:	f8b7 30fe 	ldrh.w	r3, [r7, #254]	@ 0xfe
 800677c:	1c5a      	adds	r2, r3, #1
 800677e:	f8a7 20fe 	strh.w	r2, [r7, #254]	@ 0xfe
 8006782:	f107 0208 	add.w	r2, r7, #8
 8006786:	32a6      	adds	r2, #166	@ 0xa6
 8006788:	4611      	mov	r1, r2
 800678a:	4618      	mov	r0, r3
 800678c:	f7f9 ff16 	bl	80005bc <EEPROM_ReadByte>
	EEPROM_ReadByte(mem_addr++, &c.radiant_resistance);
 8006790:	f8b7 30fe 	ldrh.w	r3, [r7, #254]	@ 0xfe
 8006794:	1c5a      	adds	r2, r3, #1
 8006796:	f8a7 20fe 	strh.w	r2, [r7, #254]	@ 0xfe
 800679a:	f107 0208 	add.w	r2, r7, #8
 800679e:	32a7      	adds	r2, #167	@ 0xa7
 80067a0:	4611      	mov	r1, r2
 80067a2:	4618      	mov	r0, r3
 80067a4:	f7f9 ff0a 	bl	80005bc <EEPROM_ReadByte>
	EEPROM_ReadByte(mem_addr++, &c.slashing_resistance);
 80067a8:	f8b7 30fe 	ldrh.w	r3, [r7, #254]	@ 0xfe
 80067ac:	1c5a      	adds	r2, r3, #1
 80067ae:	f8a7 20fe 	strh.w	r2, [r7, #254]	@ 0xfe
 80067b2:	f107 0208 	add.w	r2, r7, #8
 80067b6:	32a8      	adds	r2, #168	@ 0xa8
 80067b8:	4611      	mov	r1, r2
 80067ba:	4618      	mov	r0, r3
 80067bc:	f7f9 fefe 	bl	80005bc <EEPROM_ReadByte>
	EEPROM_ReadByte(mem_addr++, &c.thunder_resistance);
 80067c0:	f8b7 30fe 	ldrh.w	r3, [r7, #254]	@ 0xfe
 80067c4:	1c5a      	adds	r2, r3, #1
 80067c6:	f8a7 20fe 	strh.w	r2, [r7, #254]	@ 0xfe
 80067ca:	f107 0208 	add.w	r2, r7, #8
 80067ce:	32a9      	adds	r2, #169	@ 0xa9
 80067d0:	4611      	mov	r1, r2
 80067d2:	4618      	mov	r0, r3
 80067d4:	f7f9 fef2 	bl	80005bc <EEPROM_ReadByte>

	for (int i = 0; i < 14; i++)
 80067d8:	2300      	movs	r3, #0
 80067da:	f8c7 30e8 	str.w	r3, [r7, #232]	@ 0xe8
 80067de:	e014      	b.n	800680a <get_character+0x6d6>
	{
		EEPROM_ReadByte(mem_addr++, &c.status_conditions[i]);
 80067e0:	f8b7 30fe 	ldrh.w	r3, [r7, #254]	@ 0xfe
 80067e4:	1c5a      	adds	r2, r3, #1
 80067e6:	f8a7 20fe 	strh.w	r2, [r7, #254]	@ 0xfe
 80067ea:	f107 0108 	add.w	r1, r7, #8
 80067ee:	f8d7 20e8 	ldr.w	r2, [r7, #232]	@ 0xe8
 80067f2:	32a8      	adds	r2, #168	@ 0xa8
 80067f4:	440a      	add	r2, r1
 80067f6:	3202      	adds	r2, #2
 80067f8:	4611      	mov	r1, r2
 80067fa:	4618      	mov	r0, r3
 80067fc:	f7f9 fede 	bl	80005bc <EEPROM_ReadByte>
	for (int i = 0; i < 14; i++)
 8006800:	f8d7 30e8 	ldr.w	r3, [r7, #232]	@ 0xe8
 8006804:	3301      	adds	r3, #1
 8006806:	f8c7 30e8 	str.w	r3, [r7, #232]	@ 0xe8
 800680a:	f8d7 30e8 	ldr.w	r3, [r7, #232]	@ 0xe8
 800680e:	2b0d      	cmp	r3, #13
 8006810:	dde6      	ble.n	80067e0 <get_character+0x6ac>
	}

	for (int i = 0; i < 8; i++)
 8006812:	2300      	movs	r3, #0
 8006814:	f8c7 30e4 	str.w	r3, [r7, #228]	@ 0xe4
 8006818:	e013      	b.n	8006842 <get_character+0x70e>
	{
		EEPROM_ReadByte(mem_addr++, &c.equipped_weapons[i]);
 800681a:	f8b7 30fe 	ldrh.w	r3, [r7, #254]	@ 0xfe
 800681e:	1c5a      	adds	r2, r3, #1
 8006820:	f8a7 20fe 	strh.w	r2, [r7, #254]	@ 0xfe
 8006824:	f107 0108 	add.w	r1, r7, #8
 8006828:	f8d7 20e4 	ldr.w	r2, [r7, #228]	@ 0xe4
 800682c:	32b8      	adds	r2, #184	@ 0xb8
 800682e:	440a      	add	r2, r1
 8006830:	4611      	mov	r1, r2
 8006832:	4618      	mov	r0, r3
 8006834:	f7f9 fec2 	bl	80005bc <EEPROM_ReadByte>
	for (int i = 0; i < 8; i++)
 8006838:	f8d7 30e4 	ldr.w	r3, [r7, #228]	@ 0xe4
 800683c:	3301      	adds	r3, #1
 800683e:	f8c7 30e4 	str.w	r3, [r7, #228]	@ 0xe4
 8006842:	f8d7 30e4 	ldr.w	r3, [r7, #228]	@ 0xe4
 8006846:	2b07      	cmp	r3, #7
 8006848:	dde7      	ble.n	800681a <get_character+0x6e6>
	}

	for (int i = 0; i < 16; i++)
 800684a:	2300      	movs	r3, #0
 800684c:	f8c7 30e0 	str.w	r3, [r7, #224]	@ 0xe0
 8006850:	e013      	b.n	800687a <get_character+0x746>
	{
		EEPROM_ReadByte(mem_addr++, &c.equipped_spells[i]);
 8006852:	f8b7 30fe 	ldrh.w	r3, [r7, #254]	@ 0xfe
 8006856:	1c5a      	adds	r2, r3, #1
 8006858:	f8a7 20fe 	strh.w	r2, [r7, #254]	@ 0xfe
 800685c:	f107 0108 	add.w	r1, r7, #8
 8006860:	f8d7 20e0 	ldr.w	r2, [r7, #224]	@ 0xe0
 8006864:	32c0      	adds	r2, #192	@ 0xc0
 8006866:	440a      	add	r2, r1
 8006868:	4611      	mov	r1, r2
 800686a:	4618      	mov	r0, r3
 800686c:	f7f9 fea6 	bl	80005bc <EEPROM_ReadByte>
	for (int i = 0; i < 16; i++)
 8006870:	f8d7 30e0 	ldr.w	r3, [r7, #224]	@ 0xe0
 8006874:	3301      	adds	r3, #1
 8006876:	f8c7 30e0 	str.w	r3, [r7, #224]	@ 0xe0
 800687a:	f8d7 30e0 	ldr.w	r3, [r7, #224]	@ 0xe0
 800687e:	2b0f      	cmp	r3, #15
 8006880:	dde7      	ble.n	8006852 <get_character+0x71e>
	}

	for (int i = 0; i < 3; i++)
 8006882:	2300      	movs	r3, #0
 8006884:	f8c7 30dc 	str.w	r3, [r7, #220]	@ 0xdc
 8006888:	e013      	b.n	80068b2 <get_character+0x77e>
	{
		EEPROM_ReadByte(mem_addr++, &c.experience_points[i]);
 800688a:	f8b7 30fe 	ldrh.w	r3, [r7, #254]	@ 0xfe
 800688e:	1c5a      	adds	r2, r3, #1
 8006890:	f8a7 20fe 	strh.w	r2, [r7, #254]	@ 0xfe
 8006894:	f107 0108 	add.w	r1, r7, #8
 8006898:	f8d7 20dc 	ldr.w	r2, [r7, #220]	@ 0xdc
 800689c:	32d0      	adds	r2, #208	@ 0xd0
 800689e:	440a      	add	r2, r1
 80068a0:	4611      	mov	r1, r2
 80068a2:	4618      	mov	r0, r3
 80068a4:	f7f9 fe8a 	bl	80005bc <EEPROM_ReadByte>
	for (int i = 0; i < 3; i++)
 80068a8:	f8d7 30dc 	ldr.w	r3, [r7, #220]	@ 0xdc
 80068ac:	3301      	adds	r3, #1
 80068ae:	f8c7 30dc 	str.w	r3, [r7, #220]	@ 0xdc
 80068b2:	f8d7 30dc 	ldr.w	r3, [r7, #220]	@ 0xdc
 80068b6:	2b02      	cmp	r3, #2
 80068b8:	dde7      	ble.n	800688a <get_character+0x756>
	}

	return c;
 80068ba:	687b      	ldr	r3, [r7, #4]
 80068bc:	4618      	mov	r0, r3
 80068be:	f107 0308 	add.w	r3, r7, #8
 80068c2:	22d3      	movs	r2, #211	@ 0xd3
 80068c4:	4619      	mov	r1, r3
 80068c6:	f002 fdd4 	bl	8009472 <memcpy>
}
 80068ca:	6878      	ldr	r0, [r7, #4]
 80068cc:	f507 7780 	add.w	r7, r7, #256	@ 0x100
 80068d0:	46bd      	mov	sp, r7
 80068d2:	bd80      	pop	{r7, pc}

080068d4 <set_character>:

int set_character(int character_num, uint8_t *data_array)
{
 80068d4:	b580      	push	{r7, lr}
 80068d6:	b084      	sub	sp, #16
 80068d8:	af00      	add	r7, sp, #0
 80068da:	6078      	str	r0, [r7, #4]
 80068dc:	6039      	str	r1, [r7, #0]
	uint16_t mem_addr = (CHARACTER_SIZE * (character_num - 1)) + CHARACTER_OFFSET;
 80068de:	687b      	ldr	r3, [r7, #4]
 80068e0:	3b01      	subs	r3, #1
 80068e2:	b29b      	uxth	r3, r3
 80068e4:	021b      	lsls	r3, r3, #8
 80068e6:	81fb      	strh	r3, [r7, #14]

	if (mem_addr < CHARACTER_OFFSET || mem_addr >= (CHARACTER_OFFSET + (CHARACTER_SIZE * CHARACTER_LIMIT)))
 80068e8:	89fb      	ldrh	r3, [r7, #14]
 80068ea:	f5b3 6fc0 	cmp.w	r3, #1536	@ 0x600
 80068ee:	d301      	bcc.n	80068f4 <set_character+0x20>
	{
		return 0;
 80068f0:	2300      	movs	r3, #0
 80068f2:	e017      	b.n	8006924 <set_character+0x50>
	}

	for (int i = 0; i < CHARACTER_SIZE; i++)
 80068f4:	2300      	movs	r3, #0
 80068f6:	60bb      	str	r3, [r7, #8]
 80068f8:	e010      	b.n	800691c <set_character+0x48>
	{
		EEPROM_WriteByte(mem_addr++, *data_array++);
 80068fa:	89fa      	ldrh	r2, [r7, #14]
 80068fc:	1c53      	adds	r3, r2, #1
 80068fe:	81fb      	strh	r3, [r7, #14]
 8006900:	683b      	ldr	r3, [r7, #0]
 8006902:	1c59      	adds	r1, r3, #1
 8006904:	6039      	str	r1, [r7, #0]
 8006906:	781b      	ldrb	r3, [r3, #0]
 8006908:	4619      	mov	r1, r3
 800690a:	4610      	mov	r0, r2
 800690c:	f7f9 fed4 	bl	80006b8 <EEPROM_WriteByte>
		delay_ms(50);
 8006910:	2032      	movs	r0, #50	@ 0x32
 8006912:	f001 f9df 	bl	8007cd4 <delay_ms>
	for (int i = 0; i < CHARACTER_SIZE; i++)
 8006916:	68bb      	ldr	r3, [r7, #8]
 8006918:	3301      	adds	r3, #1
 800691a:	60bb      	str	r3, [r7, #8]
 800691c:	68bb      	ldr	r3, [r7, #8]
 800691e:	2bff      	cmp	r3, #255	@ 0xff
 8006920:	ddeb      	ble.n	80068fa <set_character+0x26>
	}


	return 1;
 8006922:	2301      	movs	r3, #1
}
 8006924:	4618      	mov	r0, r3
 8006926:	3710      	adds	r7, #16
 8006928:	46bd      	mov	sp, r7
 800692a:	bd80      	pop	{r7, pc}

0800692c <erase_characters>:

int erase_characters()
{
 800692c:	b580      	push	{r7, lr}
 800692e:	b082      	sub	sp, #8
 8006930:	af00      	add	r7, sp, #0
	for (int i = CHARACTER_OFFSET; i < (CHARACTER_OFFSET + (CHARACTER_SIZE * CHARACTER_LIMIT)); i++)
 8006932:	2300      	movs	r3, #0
 8006934:	607b      	str	r3, [r7, #4]
 8006936:	e00b      	b.n	8006950 <erase_characters+0x24>
	{
		EEPROM_WriteByte((uint16_t)i, 0x00);
 8006938:	687b      	ldr	r3, [r7, #4]
 800693a:	b29b      	uxth	r3, r3
 800693c:	2100      	movs	r1, #0
 800693e:	4618      	mov	r0, r3
 8006940:	f7f9 feba 	bl	80006b8 <EEPROM_WriteByte>
		delay_ms(50);
 8006944:	2032      	movs	r0, #50	@ 0x32
 8006946:	f001 f9c5 	bl	8007cd4 <delay_ms>
	for (int i = CHARACTER_OFFSET; i < (CHARACTER_OFFSET + (CHARACTER_SIZE * CHARACTER_LIMIT)); i++)
 800694a:	687b      	ldr	r3, [r7, #4]
 800694c:	3301      	adds	r3, #1
 800694e:	607b      	str	r3, [r7, #4]
 8006950:	687b      	ldr	r3, [r7, #4]
 8006952:	f5b3 6fc0 	cmp.w	r3, #1536	@ 0x600
 8006956:	dbef      	blt.n	8006938 <erase_characters+0xc>
	}

	return 1;
 8006958:	2301      	movs	r3, #1
}
 800695a:	4618      	mov	r0, r3
 800695c:	3708      	adds	r7, #8
 800695e:	46bd      	mov	sp, r7
 8006960:	bd80      	pop	{r7, pc}
	...

08006964 <load_characters>:
 8006964:	b590      	push	{r4, r7, lr}
 8006966:	b0b9      	sub	sp, #228	@ 0xe4
 8006968:	af00      	add	r7, sp, #0
 800696a:	4b1e      	ldr	r3, [pc, #120]	@ (80069e4 <load_characters+0x80>)
 800696c:	681b      	ldr	r3, [r3, #0]
 800696e:	2b00      	cmp	r3, #0
 8006970:	d133      	bne.n	80069da <load_characters+0x76>
 8006972:	2300      	movs	r3, #0
 8006974:	f8c7 30dc 	str.w	r3, [r7, #220]	@ 0xdc
 8006978:	e028      	b.n	80069cc <load_characters+0x68>
 800697a:	f8d7 30dc 	ldr.w	r3, [r7, #220]	@ 0xdc
 800697e:	1c5a      	adds	r2, r3, #1
 8006980:	4919      	ldr	r1, [pc, #100]	@ (80069e8 <load_characters+0x84>)
 8006982:	f8d7 30dc 	ldr.w	r3, [r7, #220]	@ 0xdc
 8006986:	20d3      	movs	r0, #211	@ 0xd3
 8006988:	fb00 f303 	mul.w	r3, r0, r3
 800698c:	18cc      	adds	r4, r1, r3
 800698e:	463b      	mov	r3, r7
 8006990:	4611      	mov	r1, r2
 8006992:	4618      	mov	r0, r3
 8006994:	f7ff fbce 	bl	8006134 <get_character>
 8006998:	4620      	mov	r0, r4
 800699a:	463b      	mov	r3, r7
 800699c:	22d3      	movs	r2, #211	@ 0xd3
 800699e:	4619      	mov	r1, r3
 80069a0:	f002 fd67 	bl	8009472 <memcpy>
 80069a4:	4a10      	ldr	r2, [pc, #64]	@ (80069e8 <load_characters+0x84>)
 80069a6:	f8d7 30dc 	ldr.w	r3, [r7, #220]	@ 0xdc
 80069aa:	21d3      	movs	r1, #211	@ 0xd3
 80069ac:	fb01 f303 	mul.w	r3, r1, r3
 80069b0:	4413      	add	r3, r2
 80069b2:	781b      	ldrb	r3, [r3, #0]
 80069b4:	2b00      	cmp	r3, #0
 80069b6:	d004      	beq.n	80069c2 <load_characters+0x5e>
 80069b8:	4b0c      	ldr	r3, [pc, #48]	@ (80069ec <load_characters+0x88>)
 80069ba:	681b      	ldr	r3, [r3, #0]
 80069bc:	3301      	adds	r3, #1
 80069be:	4a0b      	ldr	r2, [pc, #44]	@ (80069ec <load_characters+0x88>)
 80069c0:	6013      	str	r3, [r2, #0]
 80069c2:	f8d7 30dc 	ldr.w	r3, [r7, #220]	@ 0xdc
 80069c6:	3301      	adds	r3, #1
 80069c8:	f8c7 30dc 	str.w	r3, [r7, #220]	@ 0xdc
 80069cc:	f8d7 30dc 	ldr.w	r3, [r7, #220]	@ 0xdc
 80069d0:	2b05      	cmp	r3, #5
 80069d2:	ddd2      	ble.n	800697a <load_characters+0x16>
 80069d4:	4b03      	ldr	r3, [pc, #12]	@ (80069e4 <load_characters+0x80>)
 80069d6:	2201      	movs	r2, #1
 80069d8:	601a      	str	r2, [r3, #0]
 80069da:	bf00      	nop
 80069dc:	37e4      	adds	r7, #228	@ 0xe4
 80069de:	46bd      	mov	sp, r7
 80069e0:	bd90      	pop	{r4, r7, pc}
 80069e2:	bf00      	nop
 80069e4:	20001844 	.word	0x20001844
 80069e8:	20000618 	.word	0x20000618
 80069ec:	20001840 	.word	0x20001840

080069f0 <toggle_solenoid>:
 80069f0:	b580      	push	{r7, lr}
 80069f2:	af00      	add	r7, sp, #0
 80069f4:	4b0a      	ldr	r3, [pc, #40]	@ (8006a20 <toggle_solenoid+0x30>)
 80069f6:	699b      	ldr	r3, [r3, #24]
 80069f8:	4a09      	ldr	r2, [pc, #36]	@ (8006a20 <toggle_solenoid+0x30>)
 80069fa:	f443 5380 	orr.w	r3, r3, #4096	@ 0x1000
 80069fe:	6193      	str	r3, [r2, #24]
 8006a00:	2064      	movs	r0, #100	@ 0x64
 8006a02:	f001 f967 	bl	8007cd4 <delay_ms>
 8006a06:	4b06      	ldr	r3, [pc, #24]	@ (8006a20 <toggle_solenoid+0x30>)
 8006a08:	699b      	ldr	r3, [r3, #24]
 8006a0a:	4a05      	ldr	r2, [pc, #20]	@ (8006a20 <toggle_solenoid+0x30>)
 8006a0c:	f043 5380 	orr.w	r3, r3, #268435456	@ 0x10000000
 8006a10:	6193      	str	r3, [r2, #24]
 8006a12:	f44f 707a 	mov.w	r0, #1000	@ 0x3e8
 8006a16:	f001 f95d 	bl	8007cd4 <delay_ms>
 8006a1a:	bf00      	nop
 8006a1c:	bd80      	pop	{r7, pc}
 8006a1e:	bf00      	nop
 8006a20:	40020c00 	.word	0x40020c00

08006a24 <set_turn_order>:
 8006a24:	b580      	push	{r7, lr}
 8006a26:	b0c6      	sub	sp, #280	@ 0x118
 8006a28:	af00      	add	r7, sp, #0
 8006a2a:	f7ff ff9b 	bl	8006964 <load_characters>
 8006a2e:	4bc0      	ldr	r3, [pc, #768]	@ (8006d30 <set_turn_order+0x30c>)
 8006a30:	681b      	ldr	r3, [r3, #0]
 8006a32:	2b00      	cmp	r3, #0
 8006a34:	d101      	bne.n	8006a3a <set_turn_order+0x16>
 8006a36:	2300      	movs	r3, #0
 8006a38:	e1f2      	b.n	8006e20 <set_turn_order+0x3fc>
 8006a3a:	2300      	movs	r3, #0
 8006a3c:	f8c7 3114 	str.w	r3, [r7, #276]	@ 0x114
 8006a40:	2300      	movs	r3, #0
 8006a42:	f8c7 3110 	str.w	r3, [r7, #272]	@ 0x110
 8006a46:	e163      	b.n	8006d10 <set_turn_order+0x2ec>
 8006a48:	4aba      	ldr	r2, [pc, #744]	@ (8006d34 <set_turn_order+0x310>)
 8006a4a:	f8d7 3110 	ldr.w	r3, [r7, #272]	@ 0x110
 8006a4e:	21d3      	movs	r1, #211	@ 0xd3
 8006a50:	fb01 f303 	mul.w	r3, r1, r3
 8006a54:	4413      	add	r3, r2
 8006a56:	3341      	adds	r3, #65	@ 0x41
 8006a58:	781b      	ldrb	r3, [r3, #0]
 8006a5a:	2b2b      	cmp	r3, #43	@ 0x2b
 8006a5c:	d10a      	bne.n	8006a74 <set_turn_order+0x50>
 8006a5e:	4ab5      	ldr	r2, [pc, #724]	@ (8006d34 <set_turn_order+0x310>)
 8006a60:	f8d7 3110 	ldr.w	r3, [r7, #272]	@ 0x110
 8006a64:	21d3      	movs	r1, #211	@ 0xd3
 8006a66:	fb01 f303 	mul.w	r3, r1, r3
 8006a6a:	4413      	add	r3, r2
 8006a6c:	3342      	adds	r3, #66	@ 0x42
 8006a6e:	781b      	ldrb	r3, [r3, #0]
 8006a70:	2b02      	cmp	r3, #2
 8006a72:	d82b      	bhi.n	8006acc <set_turn_order+0xa8>
 8006a74:	4aaf      	ldr	r2, [pc, #700]	@ (8006d34 <set_turn_order+0x310>)
 8006a76:	f8d7 3110 	ldr.w	r3, [r7, #272]	@ 0x110
 8006a7a:	21d3      	movs	r1, #211	@ 0xd3
 8006a7c:	fb01 f303 	mul.w	r3, r1, r3
 8006a80:	4413      	add	r3, r2
 8006a82:	3343      	adds	r3, #67	@ 0x43
 8006a84:	781b      	ldrb	r3, [r3, #0]
 8006a86:	2b2b      	cmp	r3, #43	@ 0x2b
 8006a88:	d10a      	bne.n	8006aa0 <set_turn_order+0x7c>
 8006a8a:	4aaa      	ldr	r2, [pc, #680]	@ (8006d34 <set_turn_order+0x310>)
 8006a8c:	f8d7 3110 	ldr.w	r3, [r7, #272]	@ 0x110
 8006a90:	21d3      	movs	r1, #211	@ 0xd3
 8006a92:	fb01 f303 	mul.w	r3, r1, r3
 8006a96:	4413      	add	r3, r2
 8006a98:	3344      	adds	r3, #68	@ 0x44
 8006a9a:	781b      	ldrb	r3, [r3, #0]
 8006a9c:	2b02      	cmp	r3, #2
 8006a9e:	d815      	bhi.n	8006acc <set_turn_order+0xa8>
 8006aa0:	4aa4      	ldr	r2, [pc, #656]	@ (8006d34 <set_turn_order+0x310>)
 8006aa2:	f8d7 3110 	ldr.w	r3, [r7, #272]	@ 0x110
 8006aa6:	21d3      	movs	r1, #211	@ 0xd3
 8006aa8:	fb01 f303 	mul.w	r3, r1, r3
 8006aac:	4413      	add	r3, r2
 8006aae:	3345      	adds	r3, #69	@ 0x45
 8006ab0:	781b      	ldrb	r3, [r3, #0]
 8006ab2:	2b2b      	cmp	r3, #43	@ 0x2b
 8006ab4:	d116      	bne.n	8006ae4 <set_turn_order+0xc0>
 8006ab6:	4a9f      	ldr	r2, [pc, #636]	@ (8006d34 <set_turn_order+0x310>)
 8006ab8:	f8d7 3110 	ldr.w	r3, [r7, #272]	@ 0x110
 8006abc:	21d3      	movs	r1, #211	@ 0xd3
 8006abe:	fb01 f303 	mul.w	r3, r1, r3
 8006ac2:	4413      	add	r3, r2
 8006ac4:	3346      	adds	r3, #70	@ 0x46
 8006ac6:	781b      	ldrb	r3, [r3, #0]
 8006ac8:	2b02      	cmp	r3, #2
 8006aca:	d90b      	bls.n	8006ae4 <set_turn_order+0xc0>
 8006acc:	f8d7 3110 	ldr.w	r3, [r7, #272]	@ 0x110
 8006ad0:	009b      	lsls	r3, r3, #2
 8006ad2:	f503 738c 	add.w	r3, r3, #280	@ 0x118
 8006ad6:	443b      	add	r3, r7
 8006ad8:	2201      	movs	r2, #1
 8006ada:	f843 2c2c 	str.w	r2, [r3, #-44]
 8006ade:	2301      	movs	r3, #1
 8006ae0:	f8c7 3114 	str.w	r3, [r7, #276]	@ 0x114
 8006ae4:	4a93      	ldr	r2, [pc, #588]	@ (8006d34 <set_turn_order+0x310>)
 8006ae6:	f8d7 3110 	ldr.w	r3, [r7, #272]	@ 0x110
 8006aea:	21d3      	movs	r1, #211	@ 0xd3
 8006aec:	fb01 f303 	mul.w	r3, r1, r3
 8006af0:	4413      	add	r3, r2
 8006af2:	3341      	adds	r3, #65	@ 0x41
 8006af4:	781b      	ldrb	r3, [r3, #0]
 8006af6:	2b17      	cmp	r3, #23
 8006af8:	d10a      	bne.n	8006b10 <set_turn_order+0xec>
 8006afa:	4a8e      	ldr	r2, [pc, #568]	@ (8006d34 <set_turn_order+0x310>)
 8006afc:	f8d7 3110 	ldr.w	r3, [r7, #272]	@ 0x110
 8006b00:	21d3      	movs	r1, #211	@ 0xd3
 8006b02:	fb01 f303 	mul.w	r3, r1, r3
 8006b06:	4413      	add	r3, r2
 8006b08:	3342      	adds	r3, #66	@ 0x42
 8006b0a:	781b      	ldrb	r3, [r3, #0]
 8006b0c:	2b02      	cmp	r3, #2
 8006b0e:	d82b      	bhi.n	8006b68 <set_turn_order+0x144>
 8006b10:	4a88      	ldr	r2, [pc, #544]	@ (8006d34 <set_turn_order+0x310>)
 8006b12:	f8d7 3110 	ldr.w	r3, [r7, #272]	@ 0x110
 8006b16:	21d3      	movs	r1, #211	@ 0xd3
 8006b18:	fb01 f303 	mul.w	r3, r1, r3
 8006b1c:	4413      	add	r3, r2
 8006b1e:	3343      	adds	r3, #67	@ 0x43
 8006b20:	781b      	ldrb	r3, [r3, #0]
 8006b22:	2b17      	cmp	r3, #23
 8006b24:	d10a      	bne.n	8006b3c <set_turn_order+0x118>
 8006b26:	4a83      	ldr	r2, [pc, #524]	@ (8006d34 <set_turn_order+0x310>)
 8006b28:	f8d7 3110 	ldr.w	r3, [r7, #272]	@ 0x110
 8006b2c:	21d3      	movs	r1, #211	@ 0xd3
 8006b2e:	fb01 f303 	mul.w	r3, r1, r3
 8006b32:	4413      	add	r3, r2
 8006b34:	3344      	adds	r3, #68	@ 0x44
 8006b36:	781b      	ldrb	r3, [r3, #0]
 8006b38:	2b02      	cmp	r3, #2
 8006b3a:	d815      	bhi.n	8006b68 <set_turn_order+0x144>
 8006b3c:	4a7d      	ldr	r2, [pc, #500]	@ (8006d34 <set_turn_order+0x310>)
 8006b3e:	f8d7 3110 	ldr.w	r3, [r7, #272]	@ 0x110
 8006b42:	21d3      	movs	r1, #211	@ 0xd3
 8006b44:	fb01 f303 	mul.w	r3, r1, r3
 8006b48:	4413      	add	r3, r2
 8006b4a:	3345      	adds	r3, #69	@ 0x45
 8006b4c:	781b      	ldrb	r3, [r3, #0]
 8006b4e:	2b17      	cmp	r3, #23
 8006b50:	d116      	bne.n	8006b80 <set_turn_order+0x15c>
 8006b52:	4a78      	ldr	r2, [pc, #480]	@ (8006d34 <set_turn_order+0x310>)
 8006b54:	f8d7 3110 	ldr.w	r3, [r7, #272]	@ 0x110
 8006b58:	21d3      	movs	r1, #211	@ 0xd3
 8006b5a:	fb01 f303 	mul.w	r3, r1, r3
 8006b5e:	4413      	add	r3, r2
 8006b60:	3346      	adds	r3, #70	@ 0x46
 8006b62:	781b      	ldrb	r3, [r3, #0]
 8006b64:	2b02      	cmp	r3, #2
 8006b66:	d90b      	bls.n	8006b80 <set_turn_order+0x15c>
 8006b68:	f8d7 3110 	ldr.w	r3, [r7, #272]	@ 0x110
 8006b6c:	009b      	lsls	r3, r3, #2
 8006b6e:	f503 738c 	add.w	r3, r3, #280	@ 0x118
 8006b72:	443b      	add	r3, r7
 8006b74:	2201      	movs	r2, #1
 8006b76:	f843 2c2c 	str.w	r2, [r3, #-44]
 8006b7a:	2301      	movs	r3, #1
 8006b7c:	f8c7 3114 	str.w	r3, [r7, #276]	@ 0x114
 8006b80:	4a6c      	ldr	r2, [pc, #432]	@ (8006d34 <set_turn_order+0x310>)
 8006b82:	f8d7 3110 	ldr.w	r3, [r7, #272]	@ 0x110
 8006b86:	21d3      	movs	r1, #211	@ 0xd3
 8006b88:	fb01 f303 	mul.w	r3, r1, r3
 8006b8c:	4413      	add	r3, r2
 8006b8e:	3341      	adds	r3, #65	@ 0x41
 8006b90:	781b      	ldrb	r3, [r3, #0]
 8006b92:	2b00      	cmp	r3, #0
 8006b94:	d015      	beq.n	8006bc2 <set_turn_order+0x19e>
 8006b96:	4a67      	ldr	r2, [pc, #412]	@ (8006d34 <set_turn_order+0x310>)
 8006b98:	f8d7 3110 	ldr.w	r3, [r7, #272]	@ 0x110
 8006b9c:	21d3      	movs	r1, #211	@ 0xd3
 8006b9e:	fb01 f303 	mul.w	r3, r1, r3
 8006ba2:	4413      	add	r3, r2
 8006ba4:	3341      	adds	r3, #65	@ 0x41
 8006ba6:	781b      	ldrb	r3, [r3, #0]
 8006ba8:	2b05      	cmp	r3, #5
 8006baa:	d80a      	bhi.n	8006bc2 <set_turn_order+0x19e>
 8006bac:	4a61      	ldr	r2, [pc, #388]	@ (8006d34 <set_turn_order+0x310>)
 8006bae:	f8d7 3110 	ldr.w	r3, [r7, #272]	@ 0x110
 8006bb2:	21d3      	movs	r1, #211	@ 0xd3
 8006bb4:	fb01 f303 	mul.w	r3, r1, r3
 8006bb8:	4413      	add	r3, r2
 8006bba:	3342      	adds	r3, #66	@ 0x42
 8006bbc:	781b      	ldrb	r3, [r3, #0]
 8006bbe:	2b06      	cmp	r3, #6
 8006bc0:	d841      	bhi.n	8006c46 <set_turn_order+0x222>
 8006bc2:	4a5c      	ldr	r2, [pc, #368]	@ (8006d34 <set_turn_order+0x310>)
 8006bc4:	f8d7 3110 	ldr.w	r3, [r7, #272]	@ 0x110
 8006bc8:	21d3      	movs	r1, #211	@ 0xd3
 8006bca:	fb01 f303 	mul.w	r3, r1, r3
 8006bce:	4413      	add	r3, r2
 8006bd0:	3343      	adds	r3, #67	@ 0x43
 8006bd2:	781b      	ldrb	r3, [r3, #0]
 8006bd4:	2b00      	cmp	r3, #0
 8006bd6:	d015      	beq.n	8006c04 <set_turn_order+0x1e0>
 8006bd8:	4a56      	ldr	r2, [pc, #344]	@ (8006d34 <set_turn_order+0x310>)
 8006bda:	f8d7 3110 	ldr.w	r3, [r7, #272]	@ 0x110
 8006bde:	21d3      	movs	r1, #211	@ 0xd3
 8006be0:	fb01 f303 	mul.w	r3, r1, r3
 8006be4:	4413      	add	r3, r2
 8006be6:	3343      	adds	r3, #67	@ 0x43
 8006be8:	781b      	ldrb	r3, [r3, #0]
 8006bea:	2b05      	cmp	r3, #5
 8006bec:	d80a      	bhi.n	8006c04 <set_turn_order+0x1e0>
 8006bee:	4a51      	ldr	r2, [pc, #324]	@ (8006d34 <set_turn_order+0x310>)
 8006bf0:	f8d7 3110 	ldr.w	r3, [r7, #272]	@ 0x110
 8006bf4:	21d3      	movs	r1, #211	@ 0xd3
 8006bf6:	fb01 f303 	mul.w	r3, r1, r3
 8006bfa:	4413      	add	r3, r2
 8006bfc:	3344      	adds	r3, #68	@ 0x44
 8006bfe:	781b      	ldrb	r3, [r3, #0]
 8006c00:	2b06      	cmp	r3, #6
 8006c02:	d820      	bhi.n	8006c46 <set_turn_order+0x222>
 8006c04:	4a4b      	ldr	r2, [pc, #300]	@ (8006d34 <set_turn_order+0x310>)
 8006c06:	f8d7 3110 	ldr.w	r3, [r7, #272]	@ 0x110
 8006c0a:	21d3      	movs	r1, #211	@ 0xd3
 8006c0c:	fb01 f303 	mul.w	r3, r1, r3
 8006c10:	4413      	add	r3, r2
 8006c12:	3345      	adds	r3, #69	@ 0x45
 8006c14:	781b      	ldrb	r3, [r3, #0]
 8006c16:	2b00      	cmp	r3, #0
 8006c18:	d021      	beq.n	8006c5e <set_turn_order+0x23a>
 8006c1a:	4a46      	ldr	r2, [pc, #280]	@ (8006d34 <set_turn_order+0x310>)
 8006c1c:	f8d7 3110 	ldr.w	r3, [r7, #272]	@ 0x110
 8006c20:	21d3      	movs	r1, #211	@ 0xd3
 8006c22:	fb01 f303 	mul.w	r3, r1, r3
 8006c26:	4413      	add	r3, r2
 8006c28:	3345      	adds	r3, #69	@ 0x45
 8006c2a:	781b      	ldrb	r3, [r3, #0]
 8006c2c:	2b05      	cmp	r3, #5
 8006c2e:	d816      	bhi.n	8006c5e <set_turn_order+0x23a>
 8006c30:	4a40      	ldr	r2, [pc, #256]	@ (8006d34 <set_turn_order+0x310>)
 8006c32:	f8d7 3110 	ldr.w	r3, [r7, #272]	@ 0x110
 8006c36:	21d3      	movs	r1, #211	@ 0xd3
 8006c38:	fb01 f303 	mul.w	r3, r1, r3
 8006c3c:	4413      	add	r3, r2
 8006c3e:	3346      	adds	r3, #70	@ 0x46
 8006c40:	781b      	ldrb	r3, [r3, #0]
 8006c42:	2b06      	cmp	r3, #6
 8006c44:	d90b      	bls.n	8006c5e <set_turn_order+0x23a>
 8006c46:	f8d7 3110 	ldr.w	r3, [r7, #272]	@ 0x110
 8006c4a:	009b      	lsls	r3, r3, #2
 8006c4c:	f503 738c 	add.w	r3, r3, #280	@ 0x118
 8006c50:	443b      	add	r3, r7
 8006c52:	2201      	movs	r2, #1
 8006c54:	f843 2c2c 	str.w	r2, [r3, #-44]
 8006c58:	2301      	movs	r3, #1
 8006c5a:	f8c7 3114 	str.w	r3, [r7, #276]	@ 0x114
 8006c5e:	4a35      	ldr	r2, [pc, #212]	@ (8006d34 <set_turn_order+0x310>)
 8006c60:	f8d7 3110 	ldr.w	r3, [r7, #272]	@ 0x110
 8006c64:	21d3      	movs	r1, #211	@ 0xd3
 8006c66:	fb01 f303 	mul.w	r3, r1, r3
 8006c6a:	4413      	add	r3, r2
 8006c6c:	3341      	adds	r3, #65	@ 0x41
 8006c6e:	781b      	ldrb	r3, [r3, #0]
 8006c70:	2b27      	cmp	r3, #39	@ 0x27
 8006c72:	d10a      	bne.n	8006c8a <set_turn_order+0x266>
 8006c74:	4a2f      	ldr	r2, [pc, #188]	@ (8006d34 <set_turn_order+0x310>)
 8006c76:	f8d7 3110 	ldr.w	r3, [r7, #272]	@ 0x110
 8006c7a:	21d3      	movs	r1, #211	@ 0xd3
 8006c7c:	fb01 f303 	mul.w	r3, r1, r3
 8006c80:	4413      	add	r3, r2
 8006c82:	3342      	adds	r3, #66	@ 0x42
 8006c84:	781b      	ldrb	r3, [r3, #0]
 8006c86:	2b02      	cmp	r3, #2
 8006c88:	d82b      	bhi.n	8006ce2 <set_turn_order+0x2be>
 8006c8a:	4a2a      	ldr	r2, [pc, #168]	@ (8006d34 <set_turn_order+0x310>)
 8006c8c:	f8d7 3110 	ldr.w	r3, [r7, #272]	@ 0x110
 8006c90:	21d3      	movs	r1, #211	@ 0xd3
 8006c92:	fb01 f303 	mul.w	r3, r1, r3
 8006c96:	4413      	add	r3, r2
 8006c98:	3343      	adds	r3, #67	@ 0x43
 8006c9a:	781b      	ldrb	r3, [r3, #0]
 8006c9c:	2b27      	cmp	r3, #39	@ 0x27
 8006c9e:	d10a      	bne.n	8006cb6 <set_turn_order+0x292>
 8006ca0:	4a24      	ldr	r2, [pc, #144]	@ (8006d34 <set_turn_order+0x310>)
 8006ca2:	f8d7 3110 	ldr.w	r3, [r7, #272]	@ 0x110
 8006ca6:	21d3      	movs	r1, #211	@ 0xd3
 8006ca8:	fb01 f303 	mul.w	r3, r1, r3
 8006cac:	4413      	add	r3, r2
 8006cae:	3344      	adds	r3, #68	@ 0x44
 8006cb0:	781b      	ldrb	r3, [r3, #0]
 8006cb2:	2b02      	cmp	r3, #2
 8006cb4:	d815      	bhi.n	8006ce2 <set_turn_order+0x2be>
 8006cb6:	4a1f      	ldr	r2, [pc, #124]	@ (8006d34 <set_turn_order+0x310>)
 8006cb8:	f8d7 3110 	ldr.w	r3, [r7, #272]	@ 0x110
 8006cbc:	21d3      	movs	r1, #211	@ 0xd3
 8006cbe:	fb01 f303 	mul.w	r3, r1, r3
 8006cc2:	4413      	add	r3, r2
 8006cc4:	3345      	adds	r3, #69	@ 0x45
 8006cc6:	781b      	ldrb	r3, [r3, #0]
 8006cc8:	2b27      	cmp	r3, #39	@ 0x27
 8006cca:	d11c      	bne.n	8006d06 <set_turn_order+0x2e2>
 8006ccc:	4a19      	ldr	r2, [pc, #100]	@ (8006d34 <set_turn_order+0x310>)
 8006cce:	f8d7 3110 	ldr.w	r3, [r7, #272]	@ 0x110
 8006cd2:	21d3      	movs	r1, #211	@ 0xd3
 8006cd4:	fb01 f303 	mul.w	r3, r1, r3
 8006cd8:	4413      	add	r3, r2
 8006cda:	3346      	adds	r3, #70	@ 0x46
 8006cdc:	781b      	ldrb	r3, [r3, #0]
 8006cde:	2b02      	cmp	r3, #2
 8006ce0:	d911      	bls.n	8006d06 <set_turn_order+0x2e2>
 8006ce2:	4a14      	ldr	r2, [pc, #80]	@ (8006d34 <set_turn_order+0x310>)
 8006ce4:	f8d7 3110 	ldr.w	r3, [r7, #272]	@ 0x110
 8006ce8:	21d3      	movs	r1, #211	@ 0xd3
 8006cea:	fb01 f303 	mul.w	r3, r1, r3
 8006cee:	4413      	add	r3, r2
 8006cf0:	335d      	adds	r3, #93	@ 0x5d
 8006cf2:	781b      	ldrb	r3, [r3, #0]
 8006cf4:	461a      	mov	r2, r3
 8006cf6:	f8d7 3110 	ldr.w	r3, [r7, #272]	@ 0x110
 8006cfa:	009b      	lsls	r3, r3, #2
 8006cfc:	f503 738c 	add.w	r3, r3, #280	@ 0x118
 8006d00:	443b      	add	r3, r7
 8006d02:	f843 2c44 	str.w	r2, [r3, #-68]
 8006d06:	f8d7 3110 	ldr.w	r3, [r7, #272]	@ 0x110
 8006d0a:	3301      	adds	r3, #1
 8006d0c:	f8c7 3110 	str.w	r3, [r7, #272]	@ 0x110
 8006d10:	4b07      	ldr	r3, [pc, #28]	@ (8006d30 <set_turn_order+0x30c>)
 8006d12:	681b      	ldr	r3, [r3, #0]
 8006d14:	f8d7 2110 	ldr.w	r2, [r7, #272]	@ 0x110
 8006d18:	429a      	cmp	r2, r3
 8006d1a:	f6ff ae95 	blt.w	8006a48 <set_turn_order+0x24>
 8006d1e:	2001      	movs	r0, #1
 8006d20:	f7fa fe90 	bl	8001a44 <lcd_roll_prompt>
 8006d24:	4603      	mov	r3, r0
 8006d26:	2b00      	cmp	r3, #0
 8006d28:	d106      	bne.n	8006d38 <set_turn_order+0x314>
 8006d2a:	2300      	movs	r3, #0
 8006d2c:	e078      	b.n	8006e20 <set_turn_order+0x3fc>
 8006d2e:	bf00      	nop
 8006d30:	20001840 	.word	0x20001840
 8006d34:	20000618 	.word	0x20000618
 8006d38:	f7ff fe5a 	bl	80069f0 <toggle_solenoid>
 8006d3c:	f8d7 3114 	ldr.w	r3, [r7, #276]	@ 0x114
 8006d40:	2b00      	cmp	r3, #0
 8006d42:	d008      	beq.n	8006d56 <set_turn_order+0x332>
 8006d44:	f7fb f8a6 	bl	8001e94 <lcd_reroll_prompt>
 8006d48:	4603      	mov	r3, r0
 8006d4a:	2b00      	cmp	r3, #0
 8006d4c:	d101      	bne.n	8006d52 <set_turn_order+0x32e>
 8006d4e:	2300      	movs	r3, #0
 8006d50:	e066      	b.n	8006e20 <set_turn_order+0x3fc>
 8006d52:	f7ff fe4d 	bl	80069f0 <toggle_solenoid>
 8006d56:	200a      	movs	r0, #10
 8006d58:	f7fb f9de 	bl	8002118 <lcd_enemies_prompt>
 8006d5c:	f8c7 0104 	str.w	r0, [r7, #260]	@ 0x104
 8006d60:	f8d7 3104 	ldr.w	r3, [r7, #260]	@ 0x104
 8006d64:	2b00      	cmp	r3, #0
 8006d66:	d101      	bne.n	8006d6c <set_turn_order+0x348>
 8006d68:	2300      	movs	r3, #0
 8006d6a:	e059      	b.n	8006e20 <set_turn_order+0x3fc>
 8006d6c:	f8d7 3104 	ldr.w	r3, [r7, #260]	@ 0x104
 8006d70:	f8c7 310c 	str.w	r3, [r7, #268]	@ 0x10c
 8006d74:	2300      	movs	r3, #0
 8006d76:	f8c7 3108 	str.w	r3, [r7, #264]	@ 0x108
 8006d7a:	e046      	b.n	8006e0a <set_turn_order+0x3e6>
 8006d7c:	f8d7 3108 	ldr.w	r3, [r7, #264]	@ 0x108
 8006d80:	2b05      	cmp	r3, #5
 8006d82:	dc1d      	bgt.n	8006dc0 <set_turn_order+0x39c>
 8006d84:	4a29      	ldr	r2, [pc, #164]	@ (8006e2c <set_turn_order+0x408>)
 8006d86:	f8d7 3108 	ldr.w	r3, [r7, #264]	@ 0x108
 8006d8a:	21d3      	movs	r1, #211	@ 0xd3
 8006d8c:	fb01 f303 	mul.w	r3, r1, r3
 8006d90:	4413      	add	r3, r2
 8006d92:	781b      	ldrb	r3, [r3, #0]
 8006d94:	2b1f      	cmp	r3, #31
 8006d96:	d913      	bls.n	8006dc0 <set_turn_order+0x39c>
 8006d98:	4a25      	ldr	r2, [pc, #148]	@ (8006e30 <set_turn_order+0x40c>)
 8006d9a:	f8d7 3108 	ldr.w	r3, [r7, #264]	@ 0x108
 8006d9e:	21d3      	movs	r1, #211	@ 0xd3
 8006da0:	fb01 f303 	mul.w	r3, r1, r3
 8006da4:	18d0      	adds	r0, r2, r3
 8006da6:	4a21      	ldr	r2, [pc, #132]	@ (8006e2c <set_turn_order+0x408>)
 8006da8:	f8d7 3108 	ldr.w	r3, [r7, #264]	@ 0x108
 8006dac:	21d3      	movs	r1, #211	@ 0xd3
 8006dae:	fb01 f303 	mul.w	r3, r1, r3
 8006db2:	4413      	add	r3, r2
 8006db4:	4619      	mov	r1, r3
 8006db6:	23d3      	movs	r3, #211	@ 0xd3
 8006db8:	461a      	mov	r2, r3
 8006dba:	f002 fb5a 	bl	8009472 <memcpy>
 8006dbe:	e01f      	b.n	8006e00 <set_turn_order+0x3dc>
 8006dc0:	f8d7 310c 	ldr.w	r3, [r7, #268]	@ 0x10c
 8006dc4:	2b00      	cmp	r3, #0
 8006dc6:	dd25      	ble.n	8006e14 <set_turn_order+0x3f0>
 8006dc8:	f507 738c 	add.w	r3, r7, #280	@ 0x118
 8006dcc:	f5a3 738c 	sub.w	r3, r3, #280	@ 0x118
 8006dd0:	2201      	movs	r2, #1
 8006dd2:	701a      	strb	r2, [r3, #0]
 8006dd4:	4a16      	ldr	r2, [pc, #88]	@ (8006e30 <set_turn_order+0x40c>)
 8006dd6:	f8d7 3108 	ldr.w	r3, [r7, #264]	@ 0x108
 8006dda:	21d3      	movs	r1, #211	@ 0xd3
 8006ddc:	fb01 f303 	mul.w	r3, r1, r3
 8006de0:	441a      	add	r2, r3
 8006de2:	f507 738c 	add.w	r3, r7, #280	@ 0x118
 8006de6:	f5a3 738c 	sub.w	r3, r3, #280	@ 0x118
 8006dea:	4610      	mov	r0, r2
 8006dec:	4619      	mov	r1, r3
 8006dee:	23d3      	movs	r3, #211	@ 0xd3
 8006df0:	461a      	mov	r2, r3
 8006df2:	f002 fb3e 	bl	8009472 <memcpy>
 8006df6:	f8d7 310c 	ldr.w	r3, [r7, #268]	@ 0x10c
 8006dfa:	3b01      	subs	r3, #1
 8006dfc:	f8c7 310c 	str.w	r3, [r7, #268]	@ 0x10c
 8006e00:	f8d7 3108 	ldr.w	r3, [r7, #264]	@ 0x108
 8006e04:	3301      	adds	r3, #1
 8006e06:	f8c7 3108 	str.w	r3, [r7, #264]	@ 0x108
 8006e0a:	f8d7 3108 	ldr.w	r3, [r7, #264]	@ 0x108
 8006e0e:	2b0f      	cmp	r3, #15
 8006e10:	ddb4      	ble.n	8006d7c <set_turn_order+0x358>
 8006e12:	e000      	b.n	8006e16 <set_turn_order+0x3f2>
 8006e14:	bf00      	nop
 8006e16:	4905      	ldr	r1, [pc, #20]	@ (8006e2c <set_turn_order+0x408>)
 8006e18:	4805      	ldr	r0, [pc, #20]	@ (8006e30 <set_turn_order+0x40c>)
 8006e1a:	f7fb fc51 	bl	80026c0 <lcd_turn_order_prompt>
 8006e1e:	2301      	movs	r3, #1
 8006e20:	4618      	mov	r0, r3
 8006e22:	f507 778c 	add.w	r7, r7, #280	@ 0x118
 8006e26:	46bd      	mov	sp, r7
 8006e28:	bd80      	pop	{r7, pc}
 8006e2a:	bf00      	nop
 8006e2c:	20000618 	.word	0x20000618
 8006e30:	20000b0c 	.word	0x20000b0c

08006e34 <combat_turn>:
 8006e34:	e92d 41f0 	stmdb	sp!, {r4, r5, r6, r7, r8, lr}
 8006e38:	b0e8      	sub	sp, #416	@ 0x1a0
 8006e3a:	af32      	add	r7, sp, #200	@ 0xc8
 8006e3c:	2301      	movs	r3, #1
 8006e3e:	f8c7 30ac 	str.w	r3, [r7, #172]	@ 0xac
 8006e42:	2300      	movs	r3, #0
 8006e44:	f8c7 30d4 	str.w	r3, [r7, #212]	@ 0xd4
 8006e48:	2300      	movs	r3, #0
 8006e4a:	f8c7 30d0 	str.w	r3, [r7, #208]	@ 0xd0
 8006e4e:	2300      	movs	r3, #0
 8006e50:	f8c7 30cc 	str.w	r3, [r7, #204]	@ 0xcc
 8006e54:	e318      	b.n	8007488 <combat_turn+0x654>
 8006e56:	4aae      	ldr	r2, [pc, #696]	@ (8007110 <combat_turn+0x2dc>)
 8006e58:	f8d7 30d4 	ldr.w	r3, [r7, #212]	@ 0xd4
 8006e5c:	21d3      	movs	r1, #211	@ 0xd3
 8006e5e:	fb01 f303 	mul.w	r3, r1, r3
 8006e62:	4413      	add	r3, r2
 8006e64:	781b      	ldrb	r3, [r3, #0]
 8006e66:	2b00      	cmp	r3, #0
 8006e68:	f000 8301 	beq.w	800746e <combat_turn+0x63a>
 8006e6c:	4aa8      	ldr	r2, [pc, #672]	@ (8007110 <combat_turn+0x2dc>)
 8006e6e:	f8d7 30d4 	ldr.w	r3, [r7, #212]	@ 0xd4
 8006e72:	21d3      	movs	r1, #211	@ 0xd3
 8006e74:	fb01 f303 	mul.w	r3, r1, r3
 8006e78:	4413      	add	r3, r2
 8006e7a:	781b      	ldrb	r3, [r3, #0]
 8006e7c:	2b1f      	cmp	r3, #31
 8006e7e:	d902      	bls.n	8006e86 <combat_turn+0x52>
 8006e80:	2301      	movs	r3, #1
 8006e82:	f8c7 30d0 	str.w	r3, [r7, #208]	@ 0xd0
 8006e86:	2300      	movs	r3, #0
 8006e88:	f8c7 30c8 	str.w	r3, [r7, #200]	@ 0xc8
 8006e8c:	e00c      	b.n	8006ea8 <combat_turn+0x74>
 8006e8e:	f8d7 30c8 	ldr.w	r3, [r7, #200]	@ 0xc8
 8006e92:	009b      	lsls	r3, r3, #2
 8006e94:	33d8      	adds	r3, #216	@ 0xd8
 8006e96:	443b      	add	r3, r7
 8006e98:	2200      	movs	r2, #0
 8006e9a:	f843 2c74 	str.w	r2, [r3, #-116]
 8006e9e:	f8d7 30c8 	ldr.w	r3, [r7, #200]	@ 0xc8
 8006ea2:	3301      	adds	r3, #1
 8006ea4:	f8c7 30c8 	str.w	r3, [r7, #200]	@ 0xc8
 8006ea8:	f8d7 30c8 	ldr.w	r3, [r7, #200]	@ 0xc8
 8006eac:	2b0b      	cmp	r3, #11
 8006eae:	ddee      	ble.n	8006e8e <combat_turn+0x5a>
 8006eb0:	2300      	movs	r3, #0
 8006eb2:	f8c7 30c4 	str.w	r3, [r7, #196]	@ 0xc4
 8006eb6:	e01c      	b.n	8006ef2 <combat_turn+0xbe>
 8006eb8:	f8d7 30c4 	ldr.w	r3, [r7, #196]	@ 0xc4
 8006ebc:	009b      	lsls	r3, r3, #2
 8006ebe:	33d8      	adds	r3, #216	@ 0xd8
 8006ec0:	443b      	add	r3, r7
 8006ec2:	2200      	movs	r2, #0
 8006ec4:	f843 2c94 	str.w	r2, [r3, #-148]
 8006ec8:	f8d7 30c4 	ldr.w	r3, [r7, #196]	@ 0xc4
 8006ecc:	009b      	lsls	r3, r3, #2
 8006ece:	33d8      	adds	r3, #216	@ 0xd8
 8006ed0:	443b      	add	r3, r7
 8006ed2:	2200      	movs	r2, #0
 8006ed4:	f843 2cb4 	str.w	r2, [r3, #-180]
 8006ed8:	f8d7 30c4 	ldr.w	r3, [r7, #196]	@ 0xc4
 8006edc:	009b      	lsls	r3, r3, #2
 8006ede:	33d8      	adds	r3, #216	@ 0xd8
 8006ee0:	443b      	add	r3, r7
 8006ee2:	2200      	movs	r2, #0
 8006ee4:	f843 2cd4 	str.w	r2, [r3, #-212]
 8006ee8:	f8d7 30c4 	ldr.w	r3, [r7, #196]	@ 0xc4
 8006eec:	3301      	adds	r3, #1
 8006eee:	f8c7 30c4 	str.w	r3, [r7, #196]	@ 0xc4
 8006ef2:	f8d7 30c4 	ldr.w	r3, [r7, #196]	@ 0xc4
 8006ef6:	2b07      	cmp	r3, #7
 8006ef8:	ddde      	ble.n	8006eb8 <combat_turn+0x84>
 8006efa:	f8d7 30d0 	ldr.w	r3, [r7, #208]	@ 0xd0
 8006efe:	2b00      	cmp	r3, #0
 8006f00:	f000 826b 	beq.w	80073da <combat_turn+0x5a6>
 8006f04:	4a82      	ldr	r2, [pc, #520]	@ (8007110 <combat_turn+0x2dc>)
 8006f06:	f8d7 30d4 	ldr.w	r3, [r7, #212]	@ 0xd4
 8006f0a:	21d3      	movs	r1, #211	@ 0xd3
 8006f0c:	fb01 f303 	mul.w	r3, r1, r3
 8006f10:	4413      	add	r3, r2
 8006f12:	3341      	adds	r3, #65	@ 0x41
 8006f14:	781b      	ldrb	r3, [r3, #0]
 8006f16:	2b28      	cmp	r3, #40	@ 0x28
 8006f18:	d915      	bls.n	8006f46 <combat_turn+0x112>
 8006f1a:	4a7d      	ldr	r2, [pc, #500]	@ (8007110 <combat_turn+0x2dc>)
 8006f1c:	f8d7 30d4 	ldr.w	r3, [r7, #212]	@ 0xd4
 8006f20:	21d3      	movs	r1, #211	@ 0xd3
 8006f22:	fb01 f303 	mul.w	r3, r1, r3
 8006f26:	4413      	add	r3, r2
 8006f28:	3341      	adds	r3, #65	@ 0x41
 8006f2a:	781b      	ldrb	r3, [r3, #0]
 8006f2c:	2b2d      	cmp	r3, #45	@ 0x2d
 8006f2e:	d80a      	bhi.n	8006f46 <combat_turn+0x112>
 8006f30:	4a77      	ldr	r2, [pc, #476]	@ (8007110 <combat_turn+0x2dc>)
 8006f32:	f8d7 30d4 	ldr.w	r3, [r7, #212]	@ 0xd4
 8006f36:	21d3      	movs	r1, #211	@ 0xd3
 8006f38:	fb01 f303 	mul.w	r3, r1, r3
 8006f3c:	4413      	add	r3, r2
 8006f3e:	3342      	adds	r3, #66	@ 0x42
 8006f40:	781b      	ldrb	r3, [r3, #0]
 8006f42:	2b01      	cmp	r3, #1
 8006f44:	d841      	bhi.n	8006fca <combat_turn+0x196>
 8006f46:	4a72      	ldr	r2, [pc, #456]	@ (8007110 <combat_turn+0x2dc>)
 8006f48:	f8d7 30d4 	ldr.w	r3, [r7, #212]	@ 0xd4
 8006f4c:	21d3      	movs	r1, #211	@ 0xd3
 8006f4e:	fb01 f303 	mul.w	r3, r1, r3
 8006f52:	4413      	add	r3, r2
 8006f54:	3343      	adds	r3, #67	@ 0x43
 8006f56:	781b      	ldrb	r3, [r3, #0]
 8006f58:	2b28      	cmp	r3, #40	@ 0x28
 8006f5a:	d915      	bls.n	8006f88 <combat_turn+0x154>
 8006f5c:	4a6c      	ldr	r2, [pc, #432]	@ (8007110 <combat_turn+0x2dc>)
 8006f5e:	f8d7 30d4 	ldr.w	r3, [r7, #212]	@ 0xd4
 8006f62:	21d3      	movs	r1, #211	@ 0xd3
 8006f64:	fb01 f303 	mul.w	r3, r1, r3
 8006f68:	4413      	add	r3, r2
 8006f6a:	3343      	adds	r3, #67	@ 0x43
 8006f6c:	781b      	ldrb	r3, [r3, #0]
 8006f6e:	2b2d      	cmp	r3, #45	@ 0x2d
 8006f70:	d80a      	bhi.n	8006f88 <combat_turn+0x154>
 8006f72:	4a67      	ldr	r2, [pc, #412]	@ (8007110 <combat_turn+0x2dc>)
 8006f74:	f8d7 30d4 	ldr.w	r3, [r7, #212]	@ 0xd4
 8006f78:	21d3      	movs	r1, #211	@ 0xd3
 8006f7a:	fb01 f303 	mul.w	r3, r1, r3
 8006f7e:	4413      	add	r3, r2
 8006f80:	3344      	adds	r3, #68	@ 0x44
 8006f82:	781b      	ldrb	r3, [r3, #0]
 8006f84:	2b01      	cmp	r3, #1
 8006f86:	d820      	bhi.n	8006fca <combat_turn+0x196>
 8006f88:	4a61      	ldr	r2, [pc, #388]	@ (8007110 <combat_turn+0x2dc>)
 8006f8a:	f8d7 30d4 	ldr.w	r3, [r7, #212]	@ 0xd4
 8006f8e:	21d3      	movs	r1, #211	@ 0xd3
 8006f90:	fb01 f303 	mul.w	r3, r1, r3
 8006f94:	4413      	add	r3, r2
 8006f96:	3345      	adds	r3, #69	@ 0x45
 8006f98:	781b      	ldrb	r3, [r3, #0]
 8006f9a:	2b28      	cmp	r3, #40	@ 0x28
 8006f9c:	d91b      	bls.n	8006fd6 <combat_turn+0x1a2>
 8006f9e:	4a5c      	ldr	r2, [pc, #368]	@ (8007110 <combat_turn+0x2dc>)
 8006fa0:	f8d7 30d4 	ldr.w	r3, [r7, #212]	@ 0xd4
 8006fa4:	21d3      	movs	r1, #211	@ 0xd3
 8006fa6:	fb01 f303 	mul.w	r3, r1, r3
 8006faa:	4413      	add	r3, r2
 8006fac:	3345      	adds	r3, #69	@ 0x45
 8006fae:	781b      	ldrb	r3, [r3, #0]
 8006fb0:	2b2d      	cmp	r3, #45	@ 0x2d
 8006fb2:	d810      	bhi.n	8006fd6 <combat_turn+0x1a2>
 8006fb4:	4a56      	ldr	r2, [pc, #344]	@ (8007110 <combat_turn+0x2dc>)
 8006fb6:	f8d7 30d4 	ldr.w	r3, [r7, #212]	@ 0xd4
 8006fba:	21d3      	movs	r1, #211	@ 0xd3
 8006fbc:	fb01 f303 	mul.w	r3, r1, r3
 8006fc0:	4413      	add	r3, r2
 8006fc2:	3346      	adds	r3, #70	@ 0x46
 8006fc4:	781b      	ldrb	r3, [r3, #0]
 8006fc6:	2b01      	cmp	r3, #1
 8006fc8:	d905      	bls.n	8006fd6 <combat_turn+0x1a2>
 8006fca:	2301      	movs	r3, #1
 8006fcc:	66bb      	str	r3, [r7, #104]	@ 0x68
 8006fce:	2301      	movs	r3, #1
 8006fd0:	66fb      	str	r3, [r7, #108]	@ 0x6c
 8006fd2:	2301      	movs	r3, #1
 8006fd4:	67bb      	str	r3, [r7, #120]	@ 0x78
 8006fd6:	4a4e      	ldr	r2, [pc, #312]	@ (8007110 <combat_turn+0x2dc>)
 8006fd8:	f8d7 30d4 	ldr.w	r3, [r7, #212]	@ 0xd4
 8006fdc:	21d3      	movs	r1, #211	@ 0xd3
 8006fde:	fb01 f303 	mul.w	r3, r1, r3
 8006fe2:	4413      	add	r3, r2
 8006fe4:	f8d7 20ac 	ldr.w	r2, [r7, #172]	@ 0xac
 8006fe8:	9231      	str	r2, [sp, #196]	@ 0xc4
 8006fea:	681a      	ldr	r2, [r3, #0]
 8006fec:	4690      	mov	r8, r2
 8006fee:	685a      	ldr	r2, [r3, #4]
 8006ff0:	4616      	mov	r6, r2
 8006ff2:	689a      	ldr	r2, [r3, #8]
 8006ff4:	4615      	mov	r5, r2
 8006ff6:	68da      	ldr	r2, [r3, #12]
 8006ff8:	4614      	mov	r4, r2
 8006ffa:	4668      	mov	r0, sp
 8006ffc:	3310      	adds	r3, #16
 8006ffe:	22c3      	movs	r2, #195	@ 0xc3
 8007000:	4619      	mov	r1, r3
 8007002:	f002 fa36 	bl	8009472 <memcpy>
 8007006:	4640      	mov	r0, r8
 8007008:	4631      	mov	r1, r6
 800700a:	462a      	mov	r2, r5
 800700c:	4623      	mov	r3, r4
 800700e:	f7fb f947 	bl	80022a0 <lcd_actions_prompt>
 8007012:	f8c7 00a4 	str.w	r0, [r7, #164]	@ 0xa4
 8007016:	f8d7 30a4 	ldr.w	r3, [r7, #164]	@ 0xa4
 800701a:	2b00      	cmp	r3, #0
 800701c:	d101      	bne.n	8007022 <combat_turn+0x1ee>
 800701e:	2300      	movs	r3, #0
 8007020:	e23a      	b.n	8007498 <combat_turn+0x664>
 8007022:	f8d7 30a4 	ldr.w	r3, [r7, #164]	@ 0xa4
 8007026:	2b0c      	cmp	r3, #12
 8007028:	dc11      	bgt.n	800704e <combat_turn+0x21a>
 800702a:	f8d7 30a4 	ldr.w	r3, [r7, #164]	@ 0xa4
 800702e:	3b01      	subs	r3, #1
 8007030:	009b      	lsls	r3, r3, #2
 8007032:	33d8      	adds	r3, #216	@ 0xd8
 8007034:	443b      	add	r3, r7
 8007036:	f853 3c74 	ldr.w	r3, [r3, #-116]
 800703a:	2b01      	cmp	r3, #1
 800703c:	d107      	bne.n	800704e <combat_turn+0x21a>
 800703e:	f8d7 30cc 	ldr.w	r3, [r7, #204]	@ 0xcc
 8007042:	f1b3 3fff 	cmp.w	r3, #4294967295
 8007046:	d002      	beq.n	800704e <combat_turn+0x21a>
 8007048:	2301      	movs	r3, #1
 800704a:	f8c7 30cc 	str.w	r3, [r7, #204]	@ 0xcc
 800704e:	f8d7 30a4 	ldr.w	r3, [r7, #164]	@ 0xa4
 8007052:	2b01      	cmp	r3, #1
 8007054:	f040 8144 	bne.w	80072e0 <combat_turn+0x4ac>
 8007058:	2300      	movs	r3, #0
 800705a:	f8c7 30c0 	str.w	r3, [r7, #192]	@ 0xc0
 800705e:	e07e      	b.n	800715e <combat_turn+0x32a>
 8007060:	4a2b      	ldr	r2, [pc, #172]	@ (8007110 <combat_turn+0x2dc>)
 8007062:	f8d7 30d4 	ldr.w	r3, [r7, #212]	@ 0xd4
 8007066:	21d3      	movs	r1, #211	@ 0xd3
 8007068:	fb01 f303 	mul.w	r3, r1, r3
 800706c:	441a      	add	r2, r3
 800706e:	f8d7 30c0 	ldr.w	r3, [r7, #192]	@ 0xc0
 8007072:	4413      	add	r3, r2
 8007074:	33b8      	adds	r3, #184	@ 0xb8
 8007076:	781b      	ldrb	r3, [r3, #0]
 8007078:	2b00      	cmp	r3, #0
 800707a:	d06b      	beq.n	8007154 <combat_turn+0x320>
 800707c:	2300      	movs	r3, #0
 800707e:	f8c7 30bc 	str.w	r3, [r7, #188]	@ 0xbc
 8007082:	2300      	movs	r3, #0
 8007084:	f8c7 30b8 	str.w	r3, [r7, #184]	@ 0xb8
 8007088:	4a21      	ldr	r2, [pc, #132]	@ (8007110 <combat_turn+0x2dc>)
 800708a:	f8d7 30d4 	ldr.w	r3, [r7, #212]	@ 0xd4
 800708e:	21d3      	movs	r1, #211	@ 0xd3
 8007090:	fb01 f303 	mul.w	r3, r1, r3
 8007094:	441a      	add	r2, r3
 8007096:	f8d7 30c0 	ldr.w	r3, [r7, #192]	@ 0xc0
 800709a:	4413      	add	r3, r2
 800709c:	33b8      	adds	r3, #184	@ 0xb8
 800709e:	781b      	ldrb	r3, [r3, #0]
 80070a0:	4618      	mov	r0, r3
 80070a2:	4a1b      	ldr	r2, [pc, #108]	@ (8007110 <combat_turn+0x2dc>)
 80070a4:	f8d7 30d4 	ldr.w	r3, [r7, #212]	@ 0xd4
 80070a8:	21d3      	movs	r1, #211	@ 0xd3
 80070aa:	fb01 f303 	mul.w	r3, r1, r3
 80070ae:	4413      	add	r3, r2
 80070b0:	4403      	add	r3, r0
 80070b2:	3365      	adds	r3, #101	@ 0x65
 80070b4:	781b      	ldrb	r3, [r3, #0]
 80070b6:	2b01      	cmp	r3, #1
 80070b8:	d10a      	bne.n	80070d0 <combat_turn+0x29c>
 80070ba:	4a15      	ldr	r2, [pc, #84]	@ (8007110 <combat_turn+0x2dc>)
 80070bc:	f8d7 30d4 	ldr.w	r3, [r7, #212]	@ 0xd4
 80070c0:	21d3      	movs	r1, #211	@ 0xd3
 80070c2:	fb01 f303 	mul.w	r3, r1, r3
 80070c6:	4413      	add	r3, r2
 80070c8:	334f      	adds	r3, #79	@ 0x4f
 80070ca:	781b      	ldrb	r3, [r3, #0]
 80070cc:	f8c7 30bc 	str.w	r3, [r7, #188]	@ 0xbc
 80070d0:	4a0f      	ldr	r2, [pc, #60]	@ (8007110 <combat_turn+0x2dc>)
 80070d2:	f8d7 30d4 	ldr.w	r3, [r7, #212]	@ 0xd4
 80070d6:	21d3      	movs	r1, #211	@ 0xd3
 80070d8:	fb01 f303 	mul.w	r3, r1, r3
 80070dc:	4413      	add	r3, r2
 80070de:	3355      	adds	r3, #85	@ 0x55
 80070e0:	781a      	ldrb	r2, [r3, #0]
 80070e2:	490b      	ldr	r1, [pc, #44]	@ (8007110 <combat_turn+0x2dc>)
 80070e4:	f8d7 30d4 	ldr.w	r3, [r7, #212]	@ 0xd4
 80070e8:	20d3      	movs	r0, #211	@ 0xd3
 80070ea:	fb00 f303 	mul.w	r3, r0, r3
 80070ee:	440b      	add	r3, r1
 80070f0:	3357      	adds	r3, #87	@ 0x57
 80070f2:	781b      	ldrb	r3, [r3, #0]
 80070f4:	429a      	cmp	r2, r3
 80070f6:	d30d      	bcc.n	8007114 <combat_turn+0x2e0>
 80070f8:	4a05      	ldr	r2, [pc, #20]	@ (8007110 <combat_turn+0x2dc>)
 80070fa:	f8d7 30d4 	ldr.w	r3, [r7, #212]	@ 0xd4
 80070fe:	21d3      	movs	r1, #211	@ 0xd3
 8007100:	fb01 f303 	mul.w	r3, r1, r3
 8007104:	4413      	add	r3, r2
 8007106:	3355      	adds	r3, #85	@ 0x55
 8007108:	781b      	ldrb	r3, [r3, #0]
 800710a:	f8c7 30b8 	str.w	r3, [r7, #184]	@ 0xb8
 800710e:	e00c      	b.n	800712a <combat_turn+0x2f6>
 8007110:	20000b0c 	.word	0x20000b0c
 8007114:	4ac4      	ldr	r2, [pc, #784]	@ (8007428 <combat_turn+0x5f4>)
 8007116:	f8d7 30d4 	ldr.w	r3, [r7, #212]	@ 0xd4
 800711a:	21d3      	movs	r1, #211	@ 0xd3
 800711c:	fb01 f303 	mul.w	r3, r1, r3
 8007120:	4413      	add	r3, r2
 8007122:	3357      	adds	r3, #87	@ 0x57
 8007124:	781b      	ldrb	r3, [r3, #0]
 8007126:	f8c7 30b8 	str.w	r3, [r7, #184]	@ 0xb8
 800712a:	f8d7 20bc 	ldr.w	r2, [r7, #188]	@ 0xbc
 800712e:	f8d7 30b8 	ldr.w	r3, [r7, #184]	@ 0xb8
 8007132:	441a      	add	r2, r3
 8007134:	f8d7 30c0 	ldr.w	r3, [r7, #192]	@ 0xc0
 8007138:	009b      	lsls	r3, r3, #2
 800713a:	33d8      	adds	r3, #216	@ 0xd8
 800713c:	443b      	add	r3, r7
 800713e:	f843 2cb4 	str.w	r2, [r3, #-180]
 8007142:	f8d7 30c0 	ldr.w	r3, [r7, #192]	@ 0xc0
 8007146:	009b      	lsls	r3, r3, #2
 8007148:	33d8      	adds	r3, #216	@ 0xd8
 800714a:	443b      	add	r3, r7
 800714c:	f8d7 20b8 	ldr.w	r2, [r7, #184]	@ 0xb8
 8007150:	f843 2cd4 	str.w	r2, [r3, #-212]
 8007154:	f8d7 30c0 	ldr.w	r3, [r7, #192]	@ 0xc0
 8007158:	3301      	adds	r3, #1
 800715a:	f8c7 30c0 	str.w	r3, [r7, #192]	@ 0xc0
 800715e:	f8d7 30c0 	ldr.w	r3, [r7, #192]	@ 0xc0
 8007162:	2b07      	cmp	r3, #7
 8007164:	f77f af7c 	ble.w	8007060 <combat_turn+0x22c>
 8007168:	f8d7 30d4 	ldr.w	r3, [r7, #212]	@ 0xd4
 800716c:	22d3      	movs	r2, #211	@ 0xd3
 800716e:	fb02 f303 	mul.w	r3, r2, r3
 8007172:	33b8      	adds	r3, #184	@ 0xb8
 8007174:	4aac      	ldr	r2, [pc, #688]	@ (8007428 <combat_turn+0x5f4>)
 8007176:	4413      	add	r3, r2
 8007178:	4618      	mov	r0, r3
 800717a:	f7fa faa1 	bl	80016c0 <lcd_weapon_select_prompt>
 800717e:	f8c7 00a0 	str.w	r0, [r7, #160]	@ 0xa0
 8007182:	2300      	movs	r3, #0
 8007184:	f8c7 309c 	str.w	r3, [r7, #156]	@ 0x9c
 8007188:	f8d7 30a0 	ldr.w	r3, [r7, #160]	@ 0xa0
 800718c:	2b00      	cmp	r3, #0
 800718e:	f000 80a1 	beq.w	80072d4 <combat_turn+0x4a0>
 8007192:	2002      	movs	r0, #2
 8007194:	f7fa fc56 	bl	8001a44 <lcd_roll_prompt>
 8007198:	4603      	mov	r3, r0
 800719a:	2b00      	cmp	r3, #0
 800719c:	f000 8169 	beq.w	8007472 <combat_turn+0x63e>
 80071a0:	f7ff fc26 	bl	80069f0 <toggle_solenoid>
 80071a4:	f8d7 30a0 	ldr.w	r3, [r7, #160]	@ 0xa0
 80071a8:	009b      	lsls	r3, r3, #2
 80071aa:	33d8      	adds	r3, #216	@ 0xd8
 80071ac:	443b      	add	r3, r7
 80071ae:	f853 3cb4 	ldr.w	r3, [r3, #-180]
 80071b2:	2101      	movs	r1, #1
 80071b4:	4618      	mov	r0, r3
 80071b6:	f7fa fecf 	bl	8001f58 <lcd_confirm_hit_prompt>
 80071ba:	f8c7 009c 	str.w	r0, [r7, #156]	@ 0x9c
 80071be:	f8d7 309c 	ldr.w	r3, [r7, #156]	@ 0x9c
 80071c2:	2b02      	cmp	r3, #2
 80071c4:	d137      	bne.n	8007236 <combat_turn+0x402>
 80071c6:	f8d7 30a0 	ldr.w	r3, [r7, #160]	@ 0xa0
 80071ca:	009b      	lsls	r3, r3, #2
 80071cc:	33d8      	adds	r3, #216	@ 0xd8
 80071ce:	443b      	add	r3, r7
 80071d0:	f853 3c94 	ldr.w	r3, [r3, #-148]
 80071d4:	f8c7 3098 	str.w	r3, [r7, #152]	@ 0x98
 80071d8:	f8d7 3098 	ldr.w	r3, [r7, #152]	@ 0x98
 80071dc:	2b00      	cmp	r3, #0
 80071de:	da00      	bge.n	80071e2 <combat_turn+0x3ae>
 80071e0:	3307      	adds	r3, #7
 80071e2:	10db      	asrs	r3, r3, #3
 80071e4:	f8c7 3098 	str.w	r3, [r7, #152]	@ 0x98
 80071e8:	f8d7 30a0 	ldr.w	r3, [r7, #160]	@ 0xa0
 80071ec:	009b      	lsls	r3, r3, #2
 80071ee:	33d8      	adds	r3, #216	@ 0xd8
 80071f0:	443b      	add	r3, r7
 80071f2:	f853 3c94 	ldr.w	r3, [r3, #-148]
 80071f6:	4259      	negs	r1, r3
 80071f8:	f003 020f 	and.w	r2, r3, #15
 80071fc:	f001 030f 	and.w	r3, r1, #15
 8007200:	bf58      	it	pl
 8007202:	425a      	negpl	r2, r3
 8007204:	f8d7 30a0 	ldr.w	r3, [r7, #160]	@ 0xa0
 8007208:	009b      	lsls	r3, r3, #2
 800720a:	33d8      	adds	r3, #216	@ 0xd8
 800720c:	443b      	add	r3, r7
 800720e:	f843 2c94 	str.w	r2, [r3, #-148]
 8007212:	f8d7 30a0 	ldr.w	r3, [r7, #160]	@ 0xa0
 8007216:	009b      	lsls	r3, r3, #2
 8007218:	33d8      	adds	r3, #216	@ 0xd8
 800721a:	443b      	add	r3, r7
 800721c:	f853 2c94 	ldr.w	r2, [r3, #-148]
 8007220:	f8d7 3098 	ldr.w	r3, [r7, #152]	@ 0x98
 8007224:	011b      	lsls	r3, r3, #4
 8007226:	441a      	add	r2, r3
 8007228:	f8d7 30a0 	ldr.w	r3, [r7, #160]	@ 0xa0
 800722c:	009b      	lsls	r3, r3, #2
 800722e:	33d8      	adds	r3, #216	@ 0xd8
 8007230:	443b      	add	r3, r7
 8007232:	f843 2c94 	str.w	r2, [r3, #-148]
 8007236:	f8d7 309c 	ldr.w	r3, [r7, #156]	@ 0x9c
 800723a:	2b00      	cmp	r3, #0
 800723c:	d013      	beq.n	8007266 <combat_turn+0x432>
 800723e:	f8d7 30a0 	ldr.w	r3, [r7, #160]	@ 0xa0
 8007242:	009b      	lsls	r3, r3, #2
 8007244:	33d8      	adds	r3, #216	@ 0xd8
 8007246:	443b      	add	r3, r7
 8007248:	f853 2c94 	ldr.w	r2, [r3, #-148]
 800724c:	f8d7 30a0 	ldr.w	r3, [r7, #160]	@ 0xa0
 8007250:	009b      	lsls	r3, r3, #2
 8007252:	33d8      	adds	r3, #216	@ 0xd8
 8007254:	443b      	add	r3, r7
 8007256:	f853 3cd4 	ldr.w	r3, [r3, #-212]
 800725a:	4619      	mov	r1, r3
 800725c:	4610      	mov	r0, r2
 800725e:	f7fa fef1 	bl	8002044 <lcd_roll_damage_prompt>
 8007262:	f7ff fbc5 	bl	80069f0 <toggle_solenoid>
 8007266:	2001      	movs	r0, #1
 8007268:	f7fa fd36 	bl	8001cd8 <lcd_down_check>
 800726c:	4603      	mov	r3, r0
 800726e:	2b00      	cmp	r3, #0
 8007270:	dd30      	ble.n	80072d4 <combat_turn+0x4a0>
 8007272:	2101      	movs	r1, #1
 8007274:	486c      	ldr	r0, [pc, #432]	@ (8007428 <combat_turn+0x5f4>)
 8007276:	f7fa f8cf 	bl	8001418 <lcd_remove_from_combat>
 800727a:	f8c7 0094 	str.w	r0, [r7, #148]	@ 0x94
 800727e:	f8d7 3094 	ldr.w	r3, [r7, #148]	@ 0x94
 8007282:	3b01      	subs	r3, #1
 8007284:	4a68      	ldr	r2, [pc, #416]	@ (8007428 <combat_turn+0x5f4>)
 8007286:	21d3      	movs	r1, #211	@ 0xd3
 8007288:	fb01 f303 	mul.w	r3, r1, r3
 800728c:	4413      	add	r3, r2
 800728e:	2200      	movs	r2, #0
 8007290:	701a      	strb	r2, [r3, #0]
 8007292:	2300      	movs	r3, #0
 8007294:	f8c7 30b4 	str.w	r3, [r7, #180]	@ 0xb4
 8007298:	e014      	b.n	80072c4 <combat_turn+0x490>
 800729a:	4b64      	ldr	r3, [pc, #400]	@ (800742c <combat_turn+0x5f8>)
 800729c:	2201      	movs	r2, #1
 800729e:	601a      	str	r2, [r3, #0]
 80072a0:	4a61      	ldr	r2, [pc, #388]	@ (8007428 <combat_turn+0x5f4>)
 80072a2:	f8d7 30b4 	ldr.w	r3, [r7, #180]	@ 0xb4
 80072a6:	21d3      	movs	r1, #211	@ 0xd3
 80072a8:	fb01 f303 	mul.w	r3, r1, r3
 80072ac:	4413      	add	r3, r2
 80072ae:	781b      	ldrb	r3, [r3, #0]
 80072b0:	2b01      	cmp	r3, #1
 80072b2:	d102      	bne.n	80072ba <combat_turn+0x486>
 80072b4:	4b5d      	ldr	r3, [pc, #372]	@ (800742c <combat_turn+0x5f8>)
 80072b6:	2200      	movs	r2, #0
 80072b8:	601a      	str	r2, [r3, #0]
 80072ba:	f8d7 30b4 	ldr.w	r3, [r7, #180]	@ 0xb4
 80072be:	3301      	adds	r3, #1
 80072c0:	f8c7 30b4 	str.w	r3, [r7, #180]	@ 0xb4
 80072c4:	f8d7 30b4 	ldr.w	r3, [r7, #180]	@ 0xb4
 80072c8:	2b0f      	cmp	r3, #15
 80072ca:	dde6      	ble.n	800729a <combat_turn+0x466>
 80072cc:	2101      	movs	r1, #1
 80072ce:	4856      	ldr	r0, [pc, #344]	@ (8007428 <combat_turn+0x5f4>)
 80072d0:	f7fa f8a2 	bl	8001418 <lcd_remove_from_combat>
 80072d4:	f8d7 30d4 	ldr.w	r3, [r7, #212]	@ 0xd4
 80072d8:	3301      	adds	r3, #1
 80072da:	f8c7 30d4 	str.w	r3, [r7, #212]	@ 0xd4
 80072de:	e0d3      	b.n	8007488 <combat_turn+0x654>
 80072e0:	f8d7 30a4 	ldr.w	r3, [r7, #164]	@ 0xa4
 80072e4:	2b06      	cmp	r3, #6
 80072e6:	d113      	bne.n	8007310 <combat_turn+0x4dc>
 80072e8:	4a4f      	ldr	r2, [pc, #316]	@ (8007428 <combat_turn+0x5f4>)
 80072ea:	f8d7 30d4 	ldr.w	r3, [r7, #212]	@ 0xd4
 80072ee:	21d3      	movs	r1, #211	@ 0xd3
 80072f0:	fb01 f303 	mul.w	r3, r1, r3
 80072f4:	4413      	add	r3, r2
 80072f6:	339b      	adds	r3, #155	@ 0x9b
 80072f8:	781b      	ldrb	r3, [r3, #0]
 80072fa:	4619      	mov	r1, r3
 80072fc:	2011      	movs	r0, #17
 80072fe:	f7fa f801 	bl	8001304 <lcd_roll_ability_prompt>
 8007302:	4603      	mov	r3, r0
 8007304:	2b00      	cmp	r3, #0
 8007306:	f000 80b6 	beq.w	8007476 <combat_turn+0x642>
 800730a:	f7ff fb71 	bl	80069f0 <toggle_solenoid>
 800730e:	e055      	b.n	80073bc <combat_turn+0x588>
 8007310:	f8d7 30a4 	ldr.w	r3, [r7, #164]	@ 0xa4
 8007314:	2b07      	cmp	r3, #7
 8007316:	d113      	bne.n	8007340 <combat_turn+0x50c>
 8007318:	4a43      	ldr	r2, [pc, #268]	@ (8007428 <combat_turn+0x5f4>)
 800731a:	f8d7 30d4 	ldr.w	r3, [r7, #212]	@ 0xd4
 800731e:	21d3      	movs	r1, #211	@ 0xd3
 8007320:	fb01 f303 	mul.w	r3, r1, r3
 8007324:	4413      	add	r3, r2
 8007326:	3398      	adds	r3, #152	@ 0x98
 8007328:	781b      	ldrb	r3, [r3, #0]
 800732a:	4619      	mov	r1, r3
 800732c:	200e      	movs	r0, #14
 800732e:	f7f9 ffe9 	bl	8001304 <lcd_roll_ability_prompt>
 8007332:	4603      	mov	r3, r0
 8007334:	2b00      	cmp	r3, #0
 8007336:	f000 80a0 	beq.w	800747a <combat_turn+0x646>
 800733a:	f7ff fb59 	bl	80069f0 <toggle_solenoid>
 800733e:	e03d      	b.n	80073bc <combat_turn+0x588>
 8007340:	f8d7 30a4 	ldr.w	r3, [r7, #164]	@ 0xa4
 8007344:	2b08      	cmp	r3, #8
 8007346:	d109      	bne.n	800735c <combat_turn+0x528>
 8007348:	2003      	movs	r0, #3
 800734a:	f7fa fb7b 	bl	8001a44 <lcd_roll_prompt>
 800734e:	4603      	mov	r3, r0
 8007350:	2b00      	cmp	r3, #0
 8007352:	f000 8094 	beq.w	800747e <combat_turn+0x64a>
 8007356:	f7ff fb4b 	bl	80069f0 <toggle_solenoid>
 800735a:	e02f      	b.n	80073bc <combat_turn+0x588>
 800735c:	f8d7 30a4 	ldr.w	r3, [r7, #164]	@ 0xa4
 8007360:	2b0a      	cmp	r3, #10
 8007362:	d112      	bne.n	800738a <combat_turn+0x556>
 8007364:	4a30      	ldr	r2, [pc, #192]	@ (8007428 <combat_turn+0x5f4>)
 8007366:	f8d7 30d4 	ldr.w	r3, [r7, #212]	@ 0xd4
 800736a:	21d3      	movs	r1, #211	@ 0xd3
 800736c:	fb01 f303 	mul.w	r3, r1, r3
 8007370:	4413      	add	r3, r2
 8007372:	3396      	adds	r3, #150	@ 0x96
 8007374:	781b      	ldrb	r3, [r3, #0]
 8007376:	4619      	mov	r1, r3
 8007378:	200c      	movs	r0, #12
 800737a:	f7f9 ffc3 	bl	8001304 <lcd_roll_ability_prompt>
 800737e:	4603      	mov	r3, r0
 8007380:	2b00      	cmp	r3, #0
 8007382:	d07e      	beq.n	8007482 <combat_turn+0x64e>
 8007384:	f7ff fb34 	bl	80069f0 <toggle_solenoid>
 8007388:	e018      	b.n	80073bc <combat_turn+0x588>
 800738a:	f8d7 30a4 	ldr.w	r3, [r7, #164]	@ 0xa4
 800738e:	2b0b      	cmp	r3, #11
 8007390:	d112      	bne.n	80073b8 <combat_turn+0x584>
 8007392:	4a25      	ldr	r2, [pc, #148]	@ (8007428 <combat_turn+0x5f4>)
 8007394:	f8d7 30d4 	ldr.w	r3, [r7, #212]	@ 0xd4
 8007398:	21d3      	movs	r1, #211	@ 0xd3
 800739a:	fb01 f303 	mul.w	r3, r1, r3
 800739e:	4413      	add	r3, r2
 80073a0:	3391      	adds	r3, #145	@ 0x91
 80073a2:	781b      	ldrb	r3, [r3, #0]
 80073a4:	4619      	mov	r1, r3
 80073a6:	200c      	movs	r0, #12
 80073a8:	f7f9 ffac 	bl	8001304 <lcd_roll_ability_prompt>
 80073ac:	4603      	mov	r3, r0
 80073ae:	2b00      	cmp	r3, #0
 80073b0:	d069      	beq.n	8007486 <combat_turn+0x652>
 80073b2:	f7ff fb1d 	bl	80069f0 <toggle_solenoid>
 80073b6:	e001      	b.n	80073bc <combat_turn+0x588>
 80073b8:	f7fa fd0a 	bl	8001dd0 <lcd_no_roll_prompt>
 80073bc:	f8d7 30cc 	ldr.w	r3, [r7, #204]	@ 0xcc
 80073c0:	2b01      	cmp	r3, #1
 80073c2:	d104      	bne.n	80073ce <combat_turn+0x59a>
 80073c4:	f04f 33ff 	mov.w	r3, #4294967295
 80073c8:	f8c7 30cc 	str.w	r3, [r7, #204]	@ 0xcc
 80073cc:	e05c      	b.n	8007488 <combat_turn+0x654>
 80073ce:	f8d7 30d4 	ldr.w	r3, [r7, #212]	@ 0xd4
 80073d2:	3301      	adds	r3, #1
 80073d4:	f8c7 30d4 	str.w	r3, [r7, #212]	@ 0xd4
 80073d8:	e056      	b.n	8007488 <combat_turn+0x654>
 80073da:	2002      	movs	r0, #2
 80073dc:	f7fa fb32 	bl	8001a44 <lcd_roll_prompt>
 80073e0:	4603      	mov	r3, r0
 80073e2:	2b01      	cmp	r3, #1
 80073e4:	d13d      	bne.n	8007462 <combat_turn+0x62e>
 80073e6:	2100      	movs	r1, #0
 80073e8:	2000      	movs	r0, #0
 80073ea:	f7fa fdb5 	bl	8001f58 <lcd_confirm_hit_prompt>
 80073ee:	4603      	mov	r3, r0
 80073f0:	2b00      	cmp	r3, #0
 80073f2:	d036      	beq.n	8007462 <combat_turn+0x62e>
 80073f4:	2000      	movs	r0, #0
 80073f6:	f7fa fc6f 	bl	8001cd8 <lcd_down_check>
 80073fa:	4603      	mov	r3, r0
 80073fc:	2b00      	cmp	r3, #0
 80073fe:	d030      	beq.n	8007462 <combat_turn+0x62e>
 8007400:	2100      	movs	r1, #0
 8007402:	4809      	ldr	r0, [pc, #36]	@ (8007428 <combat_turn+0x5f4>)
 8007404:	f7fa f808 	bl	8001418 <lcd_remove_from_combat>
 8007408:	f8c7 00a8 	str.w	r0, [r7, #168]	@ 0xa8
 800740c:	f8d7 30a8 	ldr.w	r3, [r7, #168]	@ 0xa8
 8007410:	3b01      	subs	r3, #1
 8007412:	4a05      	ldr	r2, [pc, #20]	@ (8007428 <combat_turn+0x5f4>)
 8007414:	21d3      	movs	r1, #211	@ 0xd3
 8007416:	fb01 f303 	mul.w	r3, r1, r3
 800741a:	4413      	add	r3, r2
 800741c:	2200      	movs	r2, #0
 800741e:	701a      	strb	r2, [r3, #0]
 8007420:	2300      	movs	r3, #0
 8007422:	f8c7 30b0 	str.w	r3, [r7, #176]	@ 0xb0
 8007426:	e018      	b.n	800745a <combat_turn+0x626>
 8007428:	20000b0c 	.word	0x20000b0c
 800742c:	2000183c 	.word	0x2000183c
 8007430:	4b1c      	ldr	r3, [pc, #112]	@ (80074a4 <combat_turn+0x670>)
 8007432:	2201      	movs	r2, #1
 8007434:	601a      	str	r2, [r3, #0]
 8007436:	4a1c      	ldr	r2, [pc, #112]	@ (80074a8 <combat_turn+0x674>)
 8007438:	f8d7 30b0 	ldr.w	r3, [r7, #176]	@ 0xb0
 800743c:	21d3      	movs	r1, #211	@ 0xd3
 800743e:	fb01 f303 	mul.w	r3, r1, r3
 8007442:	4413      	add	r3, r2
 8007444:	781b      	ldrb	r3, [r3, #0]
 8007446:	2b1f      	cmp	r3, #31
 8007448:	d902      	bls.n	8007450 <combat_turn+0x61c>
 800744a:	4b16      	ldr	r3, [pc, #88]	@ (80074a4 <combat_turn+0x670>)
 800744c:	2200      	movs	r2, #0
 800744e:	601a      	str	r2, [r3, #0]
 8007450:	f8d7 30b0 	ldr.w	r3, [r7, #176]	@ 0xb0
 8007454:	3301      	adds	r3, #1
 8007456:	f8c7 30b0 	str.w	r3, [r7, #176]	@ 0xb0
 800745a:	f8d7 30b0 	ldr.w	r3, [r7, #176]	@ 0xb0
 800745e:	2b0f      	cmp	r3, #15
 8007460:	dde6      	ble.n	8007430 <combat_turn+0x5fc>
 8007462:	f8d7 30d4 	ldr.w	r3, [r7, #212]	@ 0xd4
 8007466:	3301      	adds	r3, #1
 8007468:	f8c7 30d4 	str.w	r3, [r7, #212]	@ 0xd4
 800746c:	e00c      	b.n	8007488 <combat_turn+0x654>
 800746e:	bf00      	nop
 8007470:	e00a      	b.n	8007488 <combat_turn+0x654>
 8007472:	bf00      	nop
 8007474:	e008      	b.n	8007488 <combat_turn+0x654>
 8007476:	bf00      	nop
 8007478:	e006      	b.n	8007488 <combat_turn+0x654>
 800747a:	bf00      	nop
 800747c:	e004      	b.n	8007488 <combat_turn+0x654>
 800747e:	bf00      	nop
 8007480:	e002      	b.n	8007488 <combat_turn+0x654>
 8007482:	bf00      	nop
 8007484:	e000      	b.n	8007488 <combat_turn+0x654>
 8007486:	bf00      	nop
 8007488:	4b06      	ldr	r3, [pc, #24]	@ (80074a4 <combat_turn+0x670>)
 800748a:	681b      	ldr	r3, [r3, #0]
 800748c:	2b00      	cmp	r3, #0
 800748e:	f43f ace2 	beq.w	8006e56 <combat_turn+0x22>
 8007492:	f7fa fbd7 	bl	8001c44 <lcd_combat_end>
 8007496:	2301      	movs	r3, #1
 8007498:	4618      	mov	r0, r3
 800749a:	37d8      	adds	r7, #216	@ 0xd8
 800749c:	46bd      	mov	sp, r7
 800749e:	e8bd 81f0 	ldmia.w	sp!, {r4, r5, r6, r7, r8, pc}
 80074a2:	bf00      	nop
 80074a4:	2000183c 	.word	0x2000183c
 80074a8:	20000b0c 	.word	0x20000b0c

080074ac <ability_check>:
 80074ac:	b580      	push	{r7, lr}
 80074ae:	b084      	sub	sp, #16
 80074b0:	af00      	add	r7, sp, #0
 80074b2:	f7ff fa57 	bl	8006964 <load_characters>
 80074b6:	4b90      	ldr	r3, [pc, #576]	@ (80076f8 <ability_check+0x24c>)
 80074b8:	681b      	ldr	r3, [r3, #0]
 80074ba:	2b00      	cmp	r3, #0
 80074bc:	d101      	bne.n	80074c2 <ability_check+0x16>
 80074be:	2300      	movs	r3, #0
 80074c0:	e116      	b.n	80076f0 <ability_check+0x244>
 80074c2:	f7fb f869 	bl	8002598 <lcd_list_abilities_prompt>
 80074c6:	60b8      	str	r0, [r7, #8]
 80074c8:	68bb      	ldr	r3, [r7, #8]
 80074ca:	2b00      	cmp	r3, #0
 80074cc:	d101      	bne.n	80074d2 <ability_check+0x26>
 80074ce:	2300      	movs	r3, #0
 80074d0:	e10e      	b.n	80076f0 <ability_check+0x244>
 80074d2:	68b9      	ldr	r1, [r7, #8]
 80074d4:	4889      	ldr	r0, [pc, #548]	@ (80076fc <ability_check+0x250>)
 80074d6:	f7fa ff91 	bl	80023fc <lcd_list_characters_prompt>
 80074da:	6078      	str	r0, [r7, #4]
 80074dc:	687b      	ldr	r3, [r7, #4]
 80074de:	2b00      	cmp	r3, #0
 80074e0:	d101      	bne.n	80074e6 <ability_check+0x3a>
 80074e2:	2300      	movs	r3, #0
 80074e4:	e104      	b.n	80076f0 <ability_check+0x244>
 80074e6:	2300      	movs	r3, #0
 80074e8:	73fb      	strb	r3, [r7, #15]
 80074ea:	68bb      	ldr	r3, [r7, #8]
 80074ec:	3b01      	subs	r3, #1
 80074ee:	2b11      	cmp	r3, #17
 80074f0:	f200 80ee 	bhi.w	80076d0 <ability_check+0x224>
 80074f4:	a201      	add	r2, pc, #4	@ (adr r2, 80074fc <ability_check+0x50>)
 80074f6:	f852 f023 	ldr.w	pc, [r2, r3, lsl #2]
 80074fa:	bf00      	nop
 80074fc:	08007545 	.word	0x08007545
 8007500:	0800755b 	.word	0x0800755b
 8007504:	08007571 	.word	0x08007571
 8007508:	08007587 	.word	0x08007587
 800750c:	0800759d 	.word	0x0800759d
 8007510:	080075b3 	.word	0x080075b3
 8007514:	080075c9 	.word	0x080075c9
 8007518:	080075df 	.word	0x080075df
 800751c:	080075f5 	.word	0x080075f5
 8007520:	0800760b 	.word	0x0800760b
 8007524:	08007621 	.word	0x08007621
 8007528:	08007637 	.word	0x08007637
 800752c:	0800764d 	.word	0x0800764d
 8007530:	08007663 	.word	0x08007663
 8007534:	08007679 	.word	0x08007679
 8007538:	0800768f 	.word	0x0800768f
 800753c:	080076a5 	.word	0x080076a5
 8007540:	080076bb 	.word	0x080076bb
 8007544:	687b      	ldr	r3, [r7, #4]
 8007546:	3b01      	subs	r3, #1
 8007548:	4a6c      	ldr	r2, [pc, #432]	@ (80076fc <ability_check+0x250>)
 800754a:	21d3      	movs	r1, #211	@ 0xd3
 800754c:	fb01 f303 	mul.w	r3, r1, r3
 8007550:	4413      	add	r3, r2
 8007552:	338b      	adds	r3, #139	@ 0x8b
 8007554:	781b      	ldrb	r3, [r3, #0]
 8007556:	73fb      	strb	r3, [r7, #15]
 8007558:	e0bb      	b.n	80076d2 <ability_check+0x226>
 800755a:	687b      	ldr	r3, [r7, #4]
 800755c:	3b01      	subs	r3, #1
 800755e:	4a67      	ldr	r2, [pc, #412]	@ (80076fc <ability_check+0x250>)
 8007560:	21d3      	movs	r1, #211	@ 0xd3
 8007562:	fb01 f303 	mul.w	r3, r1, r3
 8007566:	4413      	add	r3, r2
 8007568:	338c      	adds	r3, #140	@ 0x8c
 800756a:	781b      	ldrb	r3, [r3, #0]
 800756c:	73fb      	strb	r3, [r7, #15]
 800756e:	e0b0      	b.n	80076d2 <ability_check+0x226>
 8007570:	687b      	ldr	r3, [r7, #4]
 8007572:	3b01      	subs	r3, #1
 8007574:	4a61      	ldr	r2, [pc, #388]	@ (80076fc <ability_check+0x250>)
 8007576:	21d3      	movs	r1, #211	@ 0xd3
 8007578:	fb01 f303 	mul.w	r3, r1, r3
 800757c:	4413      	add	r3, r2
 800757e:	338d      	adds	r3, #141	@ 0x8d
 8007580:	781b      	ldrb	r3, [r3, #0]
 8007582:	73fb      	strb	r3, [r7, #15]
 8007584:	e0a5      	b.n	80076d2 <ability_check+0x226>
 8007586:	687b      	ldr	r3, [r7, #4]
 8007588:	3b01      	subs	r3, #1
 800758a:	4a5c      	ldr	r2, [pc, #368]	@ (80076fc <ability_check+0x250>)
 800758c:	21d3      	movs	r1, #211	@ 0xd3
 800758e:	fb01 f303 	mul.w	r3, r1, r3
 8007592:	4413      	add	r3, r2
 8007594:	338e      	adds	r3, #142	@ 0x8e
 8007596:	781b      	ldrb	r3, [r3, #0]
 8007598:	73fb      	strb	r3, [r7, #15]
 800759a:	e09a      	b.n	80076d2 <ability_check+0x226>
 800759c:	687b      	ldr	r3, [r7, #4]
 800759e:	3b01      	subs	r3, #1
 80075a0:	4a56      	ldr	r2, [pc, #344]	@ (80076fc <ability_check+0x250>)
 80075a2:	21d3      	movs	r1, #211	@ 0xd3
 80075a4:	fb01 f303 	mul.w	r3, r1, r3
 80075a8:	4413      	add	r3, r2
 80075aa:	338f      	adds	r3, #143	@ 0x8f
 80075ac:	781b      	ldrb	r3, [r3, #0]
 80075ae:	73fb      	strb	r3, [r7, #15]
 80075b0:	e08f      	b.n	80076d2 <ability_check+0x226>
 80075b2:	687b      	ldr	r3, [r7, #4]
 80075b4:	3b01      	subs	r3, #1
 80075b6:	4a51      	ldr	r2, [pc, #324]	@ (80076fc <ability_check+0x250>)
 80075b8:	21d3      	movs	r1, #211	@ 0xd3
 80075ba:	fb01 f303 	mul.w	r3, r1, r3
 80075be:	4413      	add	r3, r2
 80075c0:	3390      	adds	r3, #144	@ 0x90
 80075c2:	781b      	ldrb	r3, [r3, #0]
 80075c4:	73fb      	strb	r3, [r7, #15]
 80075c6:	e084      	b.n	80076d2 <ability_check+0x226>
 80075c8:	687b      	ldr	r3, [r7, #4]
 80075ca:	3b01      	subs	r3, #1
 80075cc:	4a4b      	ldr	r2, [pc, #300]	@ (80076fc <ability_check+0x250>)
 80075ce:	21d3      	movs	r1, #211	@ 0xd3
 80075d0:	fb01 f303 	mul.w	r3, r1, r3
 80075d4:	4413      	add	r3, r2
 80075d6:	3391      	adds	r3, #145	@ 0x91
 80075d8:	781b      	ldrb	r3, [r3, #0]
 80075da:	73fb      	strb	r3, [r7, #15]
 80075dc:	e079      	b.n	80076d2 <ability_check+0x226>
 80075de:	687b      	ldr	r3, [r7, #4]
 80075e0:	3b01      	subs	r3, #1
 80075e2:	4a46      	ldr	r2, [pc, #280]	@ (80076fc <ability_check+0x250>)
 80075e4:	21d3      	movs	r1, #211	@ 0xd3
 80075e6:	fb01 f303 	mul.w	r3, r1, r3
 80075ea:	4413      	add	r3, r2
 80075ec:	3392      	adds	r3, #146	@ 0x92
 80075ee:	781b      	ldrb	r3, [r3, #0]
 80075f0:	73fb      	strb	r3, [r7, #15]
 80075f2:	e06e      	b.n	80076d2 <ability_check+0x226>
 80075f4:	687b      	ldr	r3, [r7, #4]
 80075f6:	3b01      	subs	r3, #1
 80075f8:	4a40      	ldr	r2, [pc, #256]	@ (80076fc <ability_check+0x250>)
 80075fa:	21d3      	movs	r1, #211	@ 0xd3
 80075fc:	fb01 f303 	mul.w	r3, r1, r3
 8007600:	4413      	add	r3, r2
 8007602:	3393      	adds	r3, #147	@ 0x93
 8007604:	781b      	ldrb	r3, [r3, #0]
 8007606:	73fb      	strb	r3, [r7, #15]
 8007608:	e063      	b.n	80076d2 <ability_check+0x226>
 800760a:	687b      	ldr	r3, [r7, #4]
 800760c:	3b01      	subs	r3, #1
 800760e:	4a3b      	ldr	r2, [pc, #236]	@ (80076fc <ability_check+0x250>)
 8007610:	21d3      	movs	r1, #211	@ 0xd3
 8007612:	fb01 f303 	mul.w	r3, r1, r3
 8007616:	4413      	add	r3, r2
 8007618:	3394      	adds	r3, #148	@ 0x94
 800761a:	781b      	ldrb	r3, [r3, #0]
 800761c:	73fb      	strb	r3, [r7, #15]
 800761e:	e058      	b.n	80076d2 <ability_check+0x226>
 8007620:	687b      	ldr	r3, [r7, #4]
 8007622:	3b01      	subs	r3, #1
 8007624:	4a35      	ldr	r2, [pc, #212]	@ (80076fc <ability_check+0x250>)
 8007626:	21d3      	movs	r1, #211	@ 0xd3
 8007628:	fb01 f303 	mul.w	r3, r1, r3
 800762c:	4413      	add	r3, r2
 800762e:	3395      	adds	r3, #149	@ 0x95
 8007630:	781b      	ldrb	r3, [r3, #0]
 8007632:	73fb      	strb	r3, [r7, #15]
 8007634:	e04d      	b.n	80076d2 <ability_check+0x226>
 8007636:	687b      	ldr	r3, [r7, #4]
 8007638:	3b01      	subs	r3, #1
 800763a:	4a30      	ldr	r2, [pc, #192]	@ (80076fc <ability_check+0x250>)
 800763c:	21d3      	movs	r1, #211	@ 0xd3
 800763e:	fb01 f303 	mul.w	r3, r1, r3
 8007642:	4413      	add	r3, r2
 8007644:	3396      	adds	r3, #150	@ 0x96
 8007646:	781b      	ldrb	r3, [r3, #0]
 8007648:	73fb      	strb	r3, [r7, #15]
 800764a:	e042      	b.n	80076d2 <ability_check+0x226>
 800764c:	687b      	ldr	r3, [r7, #4]
 800764e:	3b01      	subs	r3, #1
 8007650:	4a2a      	ldr	r2, [pc, #168]	@ (80076fc <ability_check+0x250>)
 8007652:	21d3      	movs	r1, #211	@ 0xd3
 8007654:	fb01 f303 	mul.w	r3, r1, r3
 8007658:	4413      	add	r3, r2
 800765a:	3397      	adds	r3, #151	@ 0x97
 800765c:	781b      	ldrb	r3, [r3, #0]
 800765e:	73fb      	strb	r3, [r7, #15]
 8007660:	e037      	b.n	80076d2 <ability_check+0x226>
 8007662:	687b      	ldr	r3, [r7, #4]
 8007664:	3b01      	subs	r3, #1
 8007666:	4a25      	ldr	r2, [pc, #148]	@ (80076fc <ability_check+0x250>)
 8007668:	21d3      	movs	r1, #211	@ 0xd3
 800766a:	fb01 f303 	mul.w	r3, r1, r3
 800766e:	4413      	add	r3, r2
 8007670:	3398      	adds	r3, #152	@ 0x98
 8007672:	781b      	ldrb	r3, [r3, #0]
 8007674:	73fb      	strb	r3, [r7, #15]
 8007676:	e02c      	b.n	80076d2 <ability_check+0x226>
 8007678:	687b      	ldr	r3, [r7, #4]
 800767a:	3b01      	subs	r3, #1
 800767c:	4a1f      	ldr	r2, [pc, #124]	@ (80076fc <ability_check+0x250>)
 800767e:	21d3      	movs	r1, #211	@ 0xd3
 8007680:	fb01 f303 	mul.w	r3, r1, r3
 8007684:	4413      	add	r3, r2
 8007686:	3399      	adds	r3, #153	@ 0x99
 8007688:	781b      	ldrb	r3, [r3, #0]
 800768a:	73fb      	strb	r3, [r7, #15]
 800768c:	e021      	b.n	80076d2 <ability_check+0x226>
 800768e:	687b      	ldr	r3, [r7, #4]
 8007690:	3b01      	subs	r3, #1
 8007692:	4a1a      	ldr	r2, [pc, #104]	@ (80076fc <ability_check+0x250>)
 8007694:	21d3      	movs	r1, #211	@ 0xd3
 8007696:	fb01 f303 	mul.w	r3, r1, r3
 800769a:	4413      	add	r3, r2
 800769c:	339a      	adds	r3, #154	@ 0x9a
 800769e:	781b      	ldrb	r3, [r3, #0]
 80076a0:	73fb      	strb	r3, [r7, #15]
 80076a2:	e016      	b.n	80076d2 <ability_check+0x226>
 80076a4:	687b      	ldr	r3, [r7, #4]
 80076a6:	3b01      	subs	r3, #1
 80076a8:	4a14      	ldr	r2, [pc, #80]	@ (80076fc <ability_check+0x250>)
 80076aa:	21d3      	movs	r1, #211	@ 0xd3
 80076ac:	fb01 f303 	mul.w	r3, r1, r3
 80076b0:	4413      	add	r3, r2
 80076b2:	339b      	adds	r3, #155	@ 0x9b
 80076b4:	781b      	ldrb	r3, [r3, #0]
 80076b6:	73fb      	strb	r3, [r7, #15]
 80076b8:	e00b      	b.n	80076d2 <ability_check+0x226>
 80076ba:	687b      	ldr	r3, [r7, #4]
 80076bc:	3b01      	subs	r3, #1
 80076be:	4a0f      	ldr	r2, [pc, #60]	@ (80076fc <ability_check+0x250>)
 80076c0:	21d3      	movs	r1, #211	@ 0xd3
 80076c2:	fb01 f303 	mul.w	r3, r1, r3
 80076c6:	4413      	add	r3, r2
 80076c8:	339c      	adds	r3, #156	@ 0x9c
 80076ca:	781b      	ldrb	r3, [r3, #0]
 80076cc:	73fb      	strb	r3, [r7, #15]
 80076ce:	e000      	b.n	80076d2 <ability_check+0x226>
 80076d0:	bf00      	nop
 80076d2:	7bfb      	ldrb	r3, [r7, #15]
 80076d4:	4619      	mov	r1, r3
 80076d6:	68b8      	ldr	r0, [r7, #8]
 80076d8:	f7f9 fe14 	bl	8001304 <lcd_roll_ability_prompt>
 80076dc:	4603      	mov	r3, r0
 80076de:	2b00      	cmp	r3, #0
 80076e0:	d101      	bne.n	80076e6 <ability_check+0x23a>
 80076e2:	2300      	movs	r3, #0
 80076e4:	e004      	b.n	80076f0 <ability_check+0x244>
 80076e6:	f7ff f983 	bl	80069f0 <toggle_solenoid>
 80076ea:	f7fa fa6b 	bl	8001bc4 <lcd_ability_check_end>
 80076ee:	2301      	movs	r3, #1
 80076f0:	4618      	mov	r0, r3
 80076f2:	3710      	adds	r7, #16
 80076f4:	46bd      	mov	sp, r7
 80076f6:	bd80      	pop	{r7, pc}
 80076f8:	20001840 	.word	0x20001840
 80076fc:	20000618 	.word	0x20000618

08007700 <roll_anything>:
 8007700:	b580      	push	{r7, lr}
 8007702:	af00      	add	r7, sp, #0
 8007704:	2000      	movs	r0, #0
 8007706:	f7fa f99d 	bl	8001a44 <lcd_roll_prompt>
 800770a:	4603      	mov	r3, r0
 800770c:	2b00      	cmp	r3, #0
 800770e:	d101      	bne.n	8007714 <roll_anything+0x14>
 8007710:	2301      	movs	r3, #1
 8007712:	e002      	b.n	800771a <roll_anything+0x1a>
 8007714:	f7ff f96c 	bl	80069f0 <toggle_solenoid>
 8007718:	e7f4      	b.n	8007704 <roll_anything+0x4>
 800771a:	4618      	mov	r0, r3
 800771c:	bd80      	pop	{r7, pc}
	...

08007720 <i2c_init>:
 *
 *
 * Original Author: original author: Husamuldeen <https://github.com/hussamaldean>
 *
 */
void i2c_init(void){
 8007720:	b480      	push	{r7}
 8007722:	af00      	add	r7, sp, #0

	RCC->AHB1ENR|=RCC_AHB1ENR_GPIOBEN; //enable gpiob clock
 8007724:	4b1f      	ldr	r3, [pc, #124]	@ (80077a4 <i2c_init+0x84>)
 8007726:	6b1b      	ldr	r3, [r3, #48]	@ 0x30
 8007728:	4a1e      	ldr	r2, [pc, #120]	@ (80077a4 <i2c_init+0x84>)
 800772a:	f043 0302 	orr.w	r3, r3, #2
 800772e:	6313      	str	r3, [r2, #48]	@ 0x30
	RCC->APB1ENR|=RCC_APB1ENR_I2C1EN; //enable i2c1 clock
 8007730:	4b1c      	ldr	r3, [pc, #112]	@ (80077a4 <i2c_init+0x84>)
 8007732:	6c1b      	ldr	r3, [r3, #64]	@ 0x40
 8007734:	4a1b      	ldr	r2, [pc, #108]	@ (80077a4 <i2c_init+0x84>)
 8007736:	f443 1300 	orr.w	r3, r3, #2097152	@ 0x200000
 800773a:	6413      	str	r3, [r2, #64]	@ 0x40
	GPIOB->MODER|=0xA0000; //set pb8and9 to alternative function
 800773c:	4b1a      	ldr	r3, [pc, #104]	@ (80077a8 <i2c_init+0x88>)
 800773e:	681b      	ldr	r3, [r3, #0]
 8007740:	4a19      	ldr	r2, [pc, #100]	@ (80077a8 <i2c_init+0x88>)
 8007742:	f443 2320 	orr.w	r3, r3, #655360	@ 0xa0000
 8007746:	6013      	str	r3, [r2, #0]
	GPIOB->AFR[1]|=0x44;
 8007748:	4b17      	ldr	r3, [pc, #92]	@ (80077a8 <i2c_init+0x88>)
 800774a:	6a5b      	ldr	r3, [r3, #36]	@ 0x24
 800774c:	4a16      	ldr	r2, [pc, #88]	@ (80077a8 <i2c_init+0x88>)
 800774e:	f043 0344 	orr.w	r3, r3, #68	@ 0x44
 8007752:	6253      	str	r3, [r2, #36]	@ 0x24
	GPIOB->OTYPER|=GPIO_OTYPER_OT8|GPIO_OTYPER_OT9; //set pb8 and pb9 as open drain
 8007754:	4b14      	ldr	r3, [pc, #80]	@ (80077a8 <i2c_init+0x88>)
 8007756:	685b      	ldr	r3, [r3, #4]
 8007758:	4a13      	ldr	r2, [pc, #76]	@ (80077a8 <i2c_init+0x88>)
 800775a:	f443 7340 	orr.w	r3, r3, #768	@ 0x300
 800775e:	6053      	str	r3, [r2, #4]
	I2C1->CR1=I2C_CR1_SWRST;
 8007760:	4b12      	ldr	r3, [pc, #72]	@ (80077ac <i2c_init+0x8c>)
 8007762:	f44f 4200 	mov.w	r2, #32768	@ 0x8000
 8007766:	601a      	str	r2, [r3, #0]
	I2C1->CR1&=~I2C_CR1_SWRST;
 8007768:	4b10      	ldr	r3, [pc, #64]	@ (80077ac <i2c_init+0x8c>)
 800776a:	681b      	ldr	r3, [r3, #0]
 800776c:	4a0f      	ldr	r2, [pc, #60]	@ (80077ac <i2c_init+0x8c>)
 800776e:	f423 4300 	bic.w	r3, r3, #32768	@ 0x8000
 8007772:	6013      	str	r3, [r2, #0]
	I2C1->CR2|=16;
 8007774:	4b0d      	ldr	r3, [pc, #52]	@ (80077ac <i2c_init+0x8c>)
 8007776:	685b      	ldr	r3, [r3, #4]
 8007778:	4a0c      	ldr	r2, [pc, #48]	@ (80077ac <i2c_init+0x8c>)
 800777a:	f043 0310 	orr.w	r3, r3, #16
 800777e:	6053      	str	r3, [r2, #4]
	I2C1->CCR=80;
 8007780:	4b0a      	ldr	r3, [pc, #40]	@ (80077ac <i2c_init+0x8c>)
 8007782:	2250      	movs	r2, #80	@ 0x50
 8007784:	61da      	str	r2, [r3, #28]
	I2C1->TRISE=17; //output max rise
 8007786:	4b09      	ldr	r3, [pc, #36]	@ (80077ac <i2c_init+0x8c>)
 8007788:	2211      	movs	r2, #17
 800778a:	621a      	str	r2, [r3, #32]
	I2C1->CR1|=I2C_CR1_PE;
 800778c:	4b07      	ldr	r3, [pc, #28]	@ (80077ac <i2c_init+0x8c>)
 800778e:	681b      	ldr	r3, [r3, #0]
 8007790:	4a06      	ldr	r2, [pc, #24]	@ (80077ac <i2c_init+0x8c>)
 8007792:	f043 0301 	orr.w	r3, r3, #1
 8007796:	6013      	str	r3, [r2, #0]

}
 8007798:	bf00      	nop
 800779a:	46bd      	mov	sp, r7
 800779c:	f85d 7b04 	ldr.w	r7, [sp], #4
 80077a0:	4770      	bx	lr
 80077a2:	bf00      	nop
 80077a4:	40023800 	.word	0x40023800
 80077a8:	40020400 	.word	0x40020400
 80077ac:	40005400 	.word	0x40005400

080077b0 <EXTI0_IRQHandler>:

uint16_t address_1=0x0127;

//we may need to implement some form of switch debouncing
void EXTI0_IRQHandler(void)
{
 80077b0:	b480      	push	{r7}
 80077b2:	b083      	sub	sp, #12
 80077b4:	af00      	add	r7, sp, #0
	for(int i =0 ; i<1000000; i++);
 80077b6:	2300      	movs	r3, #0
 80077b8:	607b      	str	r3, [r7, #4]
 80077ba:	e002      	b.n	80077c2 <EXTI0_IRQHandler+0x12>
 80077bc:	687b      	ldr	r3, [r7, #4]
 80077be:	3301      	adds	r3, #1
 80077c0:	607b      	str	r3, [r7, #4]
 80077c2:	687b      	ldr	r3, [r7, #4]
 80077c4:	4a20      	ldr	r2, [pc, #128]	@ (8007848 <EXTI0_IRQHandler+0x98>)
 80077c6:	4293      	cmp	r3, r2
 80077c8:	ddf8      	ble.n	80077bc <EXTI0_IRQHandler+0xc>
   if (EXTI->PR & (1 << 0))
 80077ca:	4b20      	ldr	r3, [pc, #128]	@ (800784c <EXTI0_IRQHandler+0x9c>)
 80077cc:	695b      	ldr	r3, [r3, #20]
 80077ce:	f003 0301 	and.w	r3, r3, #1
 80077d2:	2b00      	cmp	r3, #0
 80077d4:	d005      	beq.n	80077e2 <EXTI0_IRQHandler+0x32>
   {
       EXTI->PR |= (1 << 0);     // Clear pending bit
 80077d6:	4b1d      	ldr	r3, [pc, #116]	@ (800784c <EXTI0_IRQHandler+0x9c>)
 80077d8:	695b      	ldr	r3, [r3, #20]
 80077da:	4a1c      	ldr	r2, [pc, #112]	@ (800784c <EXTI0_IRQHandler+0x9c>)
 80077dc:	f043 0301 	orr.w	r3, r3, #1
 80077e0:	6153      	str	r3, [r2, #20]
   }

  button_flag = 1;
 80077e2:	4b1b      	ldr	r3, [pc, #108]	@ (8007850 <EXTI0_IRQHandler+0xa0>)
 80077e4:	2201      	movs	r2, #1
 80077e6:	601a      	str	r2, [r3, #0]
  led_flag = 1;
 80077e8:	4b1a      	ldr	r3, [pc, #104]	@ (8007854 <EXTI0_IRQHandler+0xa4>)
 80077ea:	2201      	movs	r2, #1
 80077ec:	601a      	str	r2, [r3, #0]
  lcd_roll_prompt_selection_ok_pressed_flag = 1;
 80077ee:	4b1a      	ldr	r3, [pc, #104]	@ (8007858 <EXTI0_IRQHandler+0xa8>)
 80077f0:	2201      	movs	r2, #1
 80077f2:	601a      	str	r2, [r3, #0]

  lcd_combat_end_flag = 1;
 80077f4:	4b19      	ldr	r3, [pc, #100]	@ (800785c <EXTI0_IRQHandler+0xac>)
 80077f6:	2201      	movs	r2, #1
 80077f8:	601a      	str	r2, [r3, #0]
  return_to_program_start_flag = 1;
 80077fa:	4b19      	ldr	r3, [pc, #100]	@ (8007860 <EXTI0_IRQHandler+0xb0>)
 80077fc:	2201      	movs	r2, #1
 80077fe:	601a      	str	r2, [r3, #0]

  flag_ok = 1;
 8007800:	4b18      	ldr	r3, [pc, #96]	@ (8007864 <EXTI0_IRQHandler+0xb4>)
 8007802:	2201      	movs	r2, #1
 8007804:	601a      	str	r2, [r3, #0]
  if (press_button_0 == 0)
 8007806:	4b18      	ldr	r3, [pc, #96]	@ (8007868 <EXTI0_IRQHandler+0xb8>)
 8007808:	681b      	ldr	r3, [r3, #0]
 800780a:	2b00      	cmp	r3, #0
 800780c:	d109      	bne.n	8007822 <EXTI0_IRQHandler+0x72>
  {
  GPIOD->BSRR=GPIOD->BSRR |(GPIO_BSRR_BS13_Msk);
 800780e:	4b17      	ldr	r3, [pc, #92]	@ (800786c <EXTI0_IRQHandler+0xbc>)
 8007810:	699b      	ldr	r3, [r3, #24]
 8007812:	4a16      	ldr	r2, [pc, #88]	@ (800786c <EXTI0_IRQHandler+0xbc>)
 8007814:	f443 5300 	orr.w	r3, r3, #8192	@ 0x2000
 8007818:	6193      	str	r3, [r2, #24]
  press_button_0 = 1;
 800781a:	4b13      	ldr	r3, [pc, #76]	@ (8007868 <EXTI0_IRQHandler+0xb8>)
 800781c:	2201      	movs	r2, #1
 800781e:	601a      	str	r2, [r3, #0]
  else if(press_button_0 == 1)
  {
  GPIOD->BSRR=GPIOD->BSRR |(GPIO_BSRR_BR13_Msk);
  press_button_0 = 0;
  }
}
 8007820:	e00c      	b.n	800783c <EXTI0_IRQHandler+0x8c>
  else if(press_button_0 == 1)
 8007822:	4b11      	ldr	r3, [pc, #68]	@ (8007868 <EXTI0_IRQHandler+0xb8>)
 8007824:	681b      	ldr	r3, [r3, #0]
 8007826:	2b01      	cmp	r3, #1
 8007828:	d108      	bne.n	800783c <EXTI0_IRQHandler+0x8c>
  GPIOD->BSRR=GPIOD->BSRR |(GPIO_BSRR_BR13_Msk);
 800782a:	4b10      	ldr	r3, [pc, #64]	@ (800786c <EXTI0_IRQHandler+0xbc>)
 800782c:	699b      	ldr	r3, [r3, #24]
 800782e:	4a0f      	ldr	r2, [pc, #60]	@ (800786c <EXTI0_IRQHandler+0xbc>)
 8007830:	f043 5300 	orr.w	r3, r3, #536870912	@ 0x20000000
 8007834:	6193      	str	r3, [r2, #24]
  press_button_0 = 0;
 8007836:	4b0c      	ldr	r3, [pc, #48]	@ (8007868 <EXTI0_IRQHandler+0xb8>)
 8007838:	2200      	movs	r2, #0
 800783a:	601a      	str	r2, [r3, #0]
}
 800783c:	bf00      	nop
 800783e:	370c      	adds	r7, #12
 8007840:	46bd      	mov	sp, r7
 8007842:	f85d 7b04 	ldr.w	r7, [sp], #4
 8007846:	4770      	bx	lr
 8007848:	000f423f 	.word	0x000f423f
 800784c:	40013c00 	.word	0x40013c00
 8007850:	2000186c 	.word	0x2000186c
 8007854:	20000580 	.word	0x20000580
 8007858:	20001874 	.word	0x20001874
 800785c:	20001884 	.word	0x20001884
 8007860:	20001880 	.word	0x20001880
 8007864:	2000185c 	.word	0x2000185c
 8007868:	20001848 	.word	0x20001848
 800786c:	40020c00 	.word	0x40020c00

08007870 <EXTI1_IRQHandler>:
  EXTI->FTSR &= ~(1 << 0);  // Disable falling edge

  NVIC_EnableIRQ(EXTI0_IRQn);
}

void EXTI1_IRQHandler(void) {
 8007870:	b480      	push	{r7}
 8007872:	b083      	sub	sp, #12
 8007874:	af00      	add	r7, sp, #0
	for(int i =0 ; i<1000000; i++);
 8007876:	2300      	movs	r3, #0
 8007878:	607b      	str	r3, [r7, #4]
 800787a:	e002      	b.n	8007882 <EXTI1_IRQHandler+0x12>
 800787c:	687b      	ldr	r3, [r7, #4]
 800787e:	3301      	adds	r3, #1
 8007880:	607b      	str	r3, [r7, #4]
 8007882:	687b      	ldr	r3, [r7, #4]
 8007884:	4a21      	ldr	r2, [pc, #132]	@ (800790c <EXTI1_IRQHandler+0x9c>)
 8007886:	4293      	cmp	r3, r2
 8007888:	ddf8      	ble.n	800787c <EXTI1_IRQHandler+0xc>

    if (EXTI->PR & (1 << 1)) {
 800788a:	4b21      	ldr	r3, [pc, #132]	@ (8007910 <EXTI1_IRQHandler+0xa0>)
 800788c:	695b      	ldr	r3, [r3, #20]
 800788e:	f003 0302 	and.w	r3, r3, #2
 8007892:	2b00      	cmp	r3, #0
 8007894:	d034      	beq.n	8007900 <EXTI1_IRQHandler+0x90>
        EXTI->PR |= (1 << 1);     // Clear pending bit
 8007896:	4b1e      	ldr	r3, [pc, #120]	@ (8007910 <EXTI1_IRQHandler+0xa0>)
 8007898:	695b      	ldr	r3, [r3, #20]
 800789a:	4a1d      	ldr	r2, [pc, #116]	@ (8007910 <EXTI1_IRQHandler+0xa0>)
 800789c:	f043 0302 	orr.w	r3, r3, #2
 80078a0:	6153      	str	r3, [r2, #20]

        button_flag = 1;
 80078a2:	4b1c      	ldr	r3, [pc, #112]	@ (8007914 <EXTI1_IRQHandler+0xa4>)
 80078a4:	2201      	movs	r2, #1
 80078a6:	601a      	str	r2, [r3, #0]
    lcd_roll_prompt_selection++;
 80078a8:	4b1b      	ldr	r3, [pc, #108]	@ (8007918 <EXTI1_IRQHandler+0xa8>)
 80078aa:	681b      	ldr	r3, [r3, #0]
 80078ac:	3301      	adds	r3, #1
 80078ae:	4a1a      	ldr	r2, [pc, #104]	@ (8007918 <EXTI1_IRQHandler+0xa8>)
 80078b0:	6013      	str	r3, [r2, #0]

    lcd_roll_prompt_selection_changed = 1;
 80078b2:	4b1a      	ldr	r3, [pc, #104]	@ (800791c <EXTI1_IRQHandler+0xac>)
 80078b4:	2201      	movs	r2, #1
 80078b6:	601a      	str	r2, [r3, #0]
    flag_left = 1;
 80078b8:	4b19      	ldr	r3, [pc, #100]	@ (8007920 <EXTI1_IRQHandler+0xb0>)
 80078ba:	2201      	movs	r2, #1
 80078bc:	601a      	str	r2, [r3, #0]
// PD15 -
    //display_once = 0;
        event_down = 1;
 80078be:	4b19      	ldr	r3, [pc, #100]	@ (8007924 <EXTI1_IRQHandler+0xb4>)
 80078c0:	2201      	movs	r2, #1
 80078c2:	601a      	str	r2, [r3, #0]
        lcd_down_selection = 1;
 80078c4:	4b18      	ldr	r3, [pc, #96]	@ (8007928 <EXTI1_IRQHandler+0xb8>)
 80078c6:	2201      	movs	r2, #1
 80078c8:	601a      	str	r2, [r3, #0]
    if (press_button_1 == 0)
 80078ca:	4b18      	ldr	r3, [pc, #96]	@ (800792c <EXTI1_IRQHandler+0xbc>)
 80078cc:	681b      	ldr	r3, [r3, #0]
 80078ce:	2b00      	cmp	r3, #0
 80078d0:	d109      	bne.n	80078e6 <EXTI1_IRQHandler+0x76>
    {
    GPIOD->BSRR=GPIOD->BSRR |(GPIO_BSRR_BS15_Msk);
 80078d2:	4b17      	ldr	r3, [pc, #92]	@ (8007930 <EXTI1_IRQHandler+0xc0>)
 80078d4:	699b      	ldr	r3, [r3, #24]
 80078d6:	4a16      	ldr	r2, [pc, #88]	@ (8007930 <EXTI1_IRQHandler+0xc0>)
 80078d8:	f443 4300 	orr.w	r3, r3, #32768	@ 0x8000
 80078dc:	6193      	str	r3, [r2, #24]
    press_button_1 = 1;
 80078de:	4b13      	ldr	r3, [pc, #76]	@ (800792c <EXTI1_IRQHandler+0xbc>)
 80078e0:	2201      	movs	r2, #1
 80078e2:	601a      	str	r2, [r3, #0]
    {
    GPIOD->BSRR=GPIOD->BSRR |(GPIO_BSRR_BR15_Msk);
    press_button_1 = 0;
    }
    }
}
 80078e4:	e00c      	b.n	8007900 <EXTI1_IRQHandler+0x90>
    else if(press_button_1 == 1)
 80078e6:	4b11      	ldr	r3, [pc, #68]	@ (800792c <EXTI1_IRQHandler+0xbc>)
 80078e8:	681b      	ldr	r3, [r3, #0]
 80078ea:	2b01      	cmp	r3, #1
 80078ec:	d108      	bne.n	8007900 <EXTI1_IRQHandler+0x90>
    GPIOD->BSRR=GPIOD->BSRR |(GPIO_BSRR_BR15_Msk);
 80078ee:	4b10      	ldr	r3, [pc, #64]	@ (8007930 <EXTI1_IRQHandler+0xc0>)
 80078f0:	699b      	ldr	r3, [r3, #24]
 80078f2:	4a0f      	ldr	r2, [pc, #60]	@ (8007930 <EXTI1_IRQHandler+0xc0>)
 80078f4:	f043 4300 	orr.w	r3, r3, #2147483648	@ 0x80000000
 80078f8:	6193      	str	r3, [r2, #24]
    press_button_1 = 0;
 80078fa:	4b0c      	ldr	r3, [pc, #48]	@ (800792c <EXTI1_IRQHandler+0xbc>)
 80078fc:	2200      	movs	r2, #0
 80078fe:	601a      	str	r2, [r3, #0]
}
 8007900:	bf00      	nop
 8007902:	370c      	adds	r7, #12
 8007904:	46bd      	mov	sp, r7
 8007906:	f85d 7b04 	ldr.w	r7, [sp], #4
 800790a:	4770      	bx	lr
 800790c:	000f423f 	.word	0x000f423f
 8007910:	40013c00 	.word	0x40013c00
 8007914:	2000186c 	.word	0x2000186c
 8007918:	20001870 	.word	0x20001870
 800791c:	2000187c 	.word	0x2000187c
 8007920:	20001860 	.word	0x20001860
 8007924:	20001858 	.word	0x20001858
 8007928:	20001878 	.word	0x20001878
 800792c:	2000184c 	.word	0x2000184c
 8007930:	40020c00 	.word	0x40020c00

08007934 <EXTI2_IRQHandler>:

void EXTI2_IRQHandler(void) {
 8007934:	b480      	push	{r7}
 8007936:	b083      	sub	sp, #12
 8007938:	af00      	add	r7, sp, #0
	for(int i =0 ; i<1000000; i++);
 800793a:	2300      	movs	r3, #0
 800793c:	607b      	str	r3, [r7, #4]
 800793e:	e002      	b.n	8007946 <EXTI2_IRQHandler+0x12>
 8007940:	687b      	ldr	r3, [r7, #4]
 8007942:	3301      	adds	r3, #1
 8007944:	607b      	str	r3, [r7, #4]
 8007946:	687b      	ldr	r3, [r7, #4]
 8007948:	4a20      	ldr	r2, [pc, #128]	@ (80079cc <EXTI2_IRQHandler+0x98>)
 800794a:	4293      	cmp	r3, r2
 800794c:	ddf8      	ble.n	8007940 <EXTI2_IRQHandler+0xc>

	flag_right = 1;
 800794e:	4b20      	ldr	r3, [pc, #128]	@ (80079d0 <EXTI2_IRQHandler+0x9c>)
 8007950:	2201      	movs	r2, #1
 8007952:	601a      	str	r2, [r3, #0]
    if (EXTI->PR & (1 << 2)) {
 8007954:	4b1f      	ldr	r3, [pc, #124]	@ (80079d4 <EXTI2_IRQHandler+0xa0>)
 8007956:	695b      	ldr	r3, [r3, #20]
 8007958:	f003 0304 	and.w	r3, r3, #4
 800795c:	2b00      	cmp	r3, #0
 800795e:	d02e      	beq.n	80079be <EXTI2_IRQHandler+0x8a>
        EXTI->PR |= (1 << 2);     // Clear pending bit
 8007960:	4b1c      	ldr	r3, [pc, #112]	@ (80079d4 <EXTI2_IRQHandler+0xa0>)
 8007962:	695b      	ldr	r3, [r3, #20]
 8007964:	4a1b      	ldr	r2, [pc, #108]	@ (80079d4 <EXTI2_IRQHandler+0xa0>)
 8007966:	f043 0304 	orr.w	r3, r3, #4
 800796a:	6153      	str	r3, [r2, #20]
        button_flag = 1;
 800796c:	4b1a      	ldr	r3, [pc, #104]	@ (80079d8 <EXTI2_IRQHandler+0xa4>)
 800796e:	2201      	movs	r2, #1
 8007970:	601a      	str	r2, [r3, #0]
     event_up = 1;
 8007972:	4b1a      	ldr	r3, [pc, #104]	@ (80079dc <EXTI2_IRQHandler+0xa8>)
 8007974:	2201      	movs	r2, #1
 8007976:	601a      	str	r2, [r3, #0]
    lcd_roll_prompt_selection--;
 8007978:	4b19      	ldr	r3, [pc, #100]	@ (80079e0 <EXTI2_IRQHandler+0xac>)
 800797a:	681b      	ldr	r3, [r3, #0]
 800797c:	3b01      	subs	r3, #1
 800797e:	4a18      	ldr	r2, [pc, #96]	@ (80079e0 <EXTI2_IRQHandler+0xac>)
 8007980:	6013      	str	r3, [r2, #0]

    lcd_roll_prompt_selection_changed = 1;
 8007982:	4b18      	ldr	r3, [pc, #96]	@ (80079e4 <EXTI2_IRQHandler+0xb0>)
 8007984:	2201      	movs	r2, #1
 8007986:	601a      	str	r2, [r3, #0]

    //display_once_2 = 0;
    if (press_button_2 == 0)
 8007988:	4b17      	ldr	r3, [pc, #92]	@ (80079e8 <EXTI2_IRQHandler+0xb4>)
 800798a:	681b      	ldr	r3, [r3, #0]
 800798c:	2b00      	cmp	r3, #0
 800798e:	d109      	bne.n	80079a4 <EXTI2_IRQHandler+0x70>
    {
    GPIOD->BSRR=GPIOD->BSRR |(GPIO_BSRR_BS13_Msk);
 8007990:	4b16      	ldr	r3, [pc, #88]	@ (80079ec <EXTI2_IRQHandler+0xb8>)
 8007992:	699b      	ldr	r3, [r3, #24]
 8007994:	4a15      	ldr	r2, [pc, #84]	@ (80079ec <EXTI2_IRQHandler+0xb8>)
 8007996:	f443 5300 	orr.w	r3, r3, #8192	@ 0x2000
 800799a:	6193      	str	r3, [r2, #24]
    press_button_2 = 1;
 800799c:	4b12      	ldr	r3, [pc, #72]	@ (80079e8 <EXTI2_IRQHandler+0xb4>)
 800799e:	2201      	movs	r2, #1
 80079a0:	601a      	str	r2, [r3, #0]
    {
    GPIOD->BSRR=GPIOD->BSRR |(GPIO_BSRR_BR13_Msk);
    press_button_2 = 0;
    }
    }
}
 80079a2:	e00c      	b.n	80079be <EXTI2_IRQHandler+0x8a>
    else if(press_button_2 == 1)
 80079a4:	4b10      	ldr	r3, [pc, #64]	@ (80079e8 <EXTI2_IRQHandler+0xb4>)
 80079a6:	681b      	ldr	r3, [r3, #0]
 80079a8:	2b01      	cmp	r3, #1
 80079aa:	d108      	bne.n	80079be <EXTI2_IRQHandler+0x8a>
    GPIOD->BSRR=GPIOD->BSRR |(GPIO_BSRR_BR13_Msk);
 80079ac:	4b0f      	ldr	r3, [pc, #60]	@ (80079ec <EXTI2_IRQHandler+0xb8>)
 80079ae:	699b      	ldr	r3, [r3, #24]
 80079b0:	4a0e      	ldr	r2, [pc, #56]	@ (80079ec <EXTI2_IRQHandler+0xb8>)
 80079b2:	f043 5300 	orr.w	r3, r3, #536870912	@ 0x20000000
 80079b6:	6193      	str	r3, [r2, #24]
    press_button_2 = 0;
 80079b8:	4b0b      	ldr	r3, [pc, #44]	@ (80079e8 <EXTI2_IRQHandler+0xb4>)
 80079ba:	2200      	movs	r2, #0
 80079bc:	601a      	str	r2, [r3, #0]
}
 80079be:	bf00      	nop
 80079c0:	370c      	adds	r7, #12
 80079c2:	46bd      	mov	sp, r7
 80079c4:	f85d 7b04 	ldr.w	r7, [sp], #4
 80079c8:	4770      	bx	lr
 80079ca:	bf00      	nop
 80079cc:	000f423f 	.word	0x000f423f
 80079d0:	20001864 	.word	0x20001864
 80079d4:	40013c00 	.word	0x40013c00
 80079d8:	2000186c 	.word	0x2000186c
 80079dc:	20001854 	.word	0x20001854
 80079e0:	20001870 	.word	0x20001870
 80079e4:	2000187c 	.word	0x2000187c
 80079e8:	20001850 	.word	0x20001850
 80079ec:	40020c00 	.word	0x40020c00

080079f0 <main>:
/**
  * @brief  The application entry point.
  * @retval int
  */
int main(void)
{
 80079f0:	b580      	push	{r7, lr}
 80079f2:	b0c2      	sub	sp, #264	@ 0x108
 80079f4:	af00      	add	r7, sp, #0

  SystemClock_Config();
 80079f6:	f000 f8cd 	bl	8007b94 <SystemClock_Config>
  //LED_Init();
  //EXTI0_Init();
 // BUTTON_Init();
  UART_Init();
 80079fa:	f000 fbb7 	bl	800816c <UART_Init>

  //LCD integration
  LED_gpio_initialization();
 80079fe:	f7fb fb57 	bl	80030b0 <LED_gpio_initialization>
  gpio_button_initialization();
 8007a02:	f7fb fcef 	bl	80033e4 <gpio_button_initialization>
 // exti1_initialization();
  button_interrupt_initialization();
 8007a06:	f7fb fd23 	bl	8003450 <button_interrupt_initialization>
  gpio_init_ST7789();
 8007a0a:	f7fb f8c7 	bl	8002b9c <gpio_init_ST7789>
  SPI1_GPIO_Init();
 8007a0e:	f7fb fbc1 	bl	8003194 <SPI1_GPIO_Init>
  SPI1_Init();
 8007a12:	f7fb fc01 	bl	8003218 <SPI1_Init>
  ST7789_Init();
 8007a16:	f7fb f911 	bl	8002c3c <ST7789_Init>
//  LCD_test();
  ST7789_Fill(0xFFFF);
 8007a1a:	f64f 70ff 	movw	r0, #65535	@ 0xffff
 8007a1e:	f7f8 fead 	bl	800077c <ST7789_Fill>
  delay_ms(300);
 8007a22:	f44f 7096 	mov.w	r0, #300	@ 0x12c
 8007a26:	f000 f955 	bl	8007cd4 <delay_ms>
  draw_centered_string(120, "D&D",PURPLE, 8);
 8007a2a:	2308      	movs	r3, #8
 8007a2c:	f647 020f 	movw	r2, #30735	@ 0x780f
 8007a30:	4950      	ldr	r1, [pc, #320]	@ (8007b74 <main+0x184>)
 8007a32:	2078      	movs	r0, #120	@ 0x78
 8007a34:	f7f8 ffa4 	bl	8000980 <draw_centered_string>
  ST7789_DrawFullScreen(myImage);
 8007a38:	484f      	ldr	r0, [pc, #316]	@ (8007b78 <main+0x188>)
 8007a3a:	f7fb f82a 	bl	8002a92 <ST7789_DrawFullScreen>
  delay_ms(3000);
 8007a3e:	f640 30b8 	movw	r0, #3000	@ 0xbb8
 8007a42:	f000 f947 	bl	8007cd4 <delay_ms>
  //EEPROM integration
  i2c_init();
 8007a46:	f7ff fe6b 	bl	8007720 <i2c_init>
	char input_str[MAX_STR_LEN];


  while (1)
  {
	  button_flag = 0;
 8007a4a:	4b4c      	ldr	r3, [pc, #304]	@ (8007b7c <main+0x18c>)
 8007a4c:	2200      	movs	r2, #0
 8007a4e:	601a      	str	r2, [r3, #0]
	  deterministic_state = lcd_roll_prompt_selection + 1000;
 8007a50:	4b4b      	ldr	r3, [pc, #300]	@ (8007b80 <main+0x190>)
 8007a52:	681b      	ldr	r3, [r3, #0]
 8007a54:	f503 737a 	add.w	r3, r3, #1000	@ 0x3e8
 8007a58:	4a4a      	ldr	r2, [pc, #296]	@ (8007b84 <main+0x194>)
 8007a5a:	6013      	str	r3, [r2, #0]
	  switch ((deterministic_state % 5))
 8007a5c:	4b49      	ldr	r3, [pc, #292]	@ (8007b84 <main+0x194>)
 8007a5e:	6819      	ldr	r1, [r3, #0]
 8007a60:	4b49      	ldr	r3, [pc, #292]	@ (8007b88 <main+0x198>)
 8007a62:	fb83 2301 	smull	r2, r3, r3, r1
 8007a66:	105a      	asrs	r2, r3, #1
 8007a68:	17cb      	asrs	r3, r1, #31
 8007a6a:	1ad2      	subs	r2, r2, r3
 8007a6c:	4613      	mov	r3, r2
 8007a6e:	009b      	lsls	r3, r3, #2
 8007a70:	4413      	add	r3, r2
 8007a72:	1aca      	subs	r2, r1, r3
 8007a74:	2a04      	cmp	r2, #4
 8007a76:	d868      	bhi.n	8007b4a <main+0x15a>
 8007a78:	a301      	add	r3, pc, #4	@ (adr r3, 8007a80 <main+0x90>)
 8007a7a:	f853 f022 	ldr.w	pc, [r3, r2, lsl #2]
 8007a7e:	bf00      	nop
 8007a80:	08007a95 	.word	0x08007a95
 8007a84:	08007aa9 	.word	0x08007aa9
 8007a88:	08007ac1 	.word	0x08007ac1
 8007a8c:	08007ae3 	.word	0x08007ae3
 8007a90:	08007afb 	.word	0x08007afb
	  {
	  	  case PROGRAM_START:
	  		program_start_mode_lcd();
 8007a94:	f7f9 f838 	bl	8000b08 <program_start_mode_lcd>

	  		  if (flag_ok)
 8007a98:	4b3c      	ldr	r3, [pc, #240]	@ (8007b8c <main+0x19c>)
 8007a9a:	681b      	ldr	r3, [r3, #0]
 8007a9c:	2b00      	cmp	r3, #0
 8007a9e:	d058      	beq.n	8007b52 <main+0x162>
	  		  {
	  			flag_ok = 0;
 8007aa0:	4b3a      	ldr	r3, [pc, #232]	@ (8007b8c <main+0x19c>)
 8007aa2:	2200      	movs	r2, #0
 8007aa4:	601a      	str	r2, [r3, #0]
	  			  break;
 8007aa6:	e05f      	b.n	8007b68 <main+0x178>
	  		  }
	  		  break;
	  	  case DICE_ROLL:
	  		dice_roller_mode_lcd();
 8007aa8:	f7f8 ffc2 	bl	8000a30 <dice_roller_mode_lcd>
	  		  if (flag_ok)
 8007aac:	4b37      	ldr	r3, [pc, #220]	@ (8007b8c <main+0x19c>)
 8007aae:	681b      	ldr	r3, [r3, #0]
 8007ab0:	2b00      	cmp	r3, #0
 8007ab2:	d050      	beq.n	8007b56 <main+0x166>
			  {
				  flag_ok = 0;
 8007ab4:	4b35      	ldr	r3, [pc, #212]	@ (8007b8c <main+0x19c>)
 8007ab6:	2200      	movs	r2, #0
 8007ab8:	601a      	str	r2, [r3, #0]
				  roll_anything();
 8007aba:	f7ff fe21 	bl	8007700 <roll_anything>
				  break;
 8007abe:	e053      	b.n	8007b68 <main+0x178>
			  }
	  		  break;
	  	  case COMBAT:
	  		combat_mode_lcd();
 8007ac0:	f7f8 ff92 	bl	80009e8 <combat_mode_lcd>
	  		  if (flag_ok)
 8007ac4:	4b31      	ldr	r3, [pc, #196]	@ (8007b8c <main+0x19c>)
 8007ac6:	681b      	ldr	r3, [r3, #0]
 8007ac8:	2b00      	cmp	r3, #0
 8007aca:	d046      	beq.n	8007b5a <main+0x16a>
			  {
				  flag_ok = 0;
 8007acc:	4b2f      	ldr	r3, [pc, #188]	@ (8007b8c <main+0x19c>)
 8007ace:	2200      	movs	r2, #0
 8007ad0:	601a      	str	r2, [r3, #0]
		  			if (set_turn_order() != 0)
 8007ad2:	f7fe ffa7 	bl	8006a24 <set_turn_order>
 8007ad6:	4603      	mov	r3, r0
 8007ad8:	2b00      	cmp	r3, #0
 8007ada:	d040      	beq.n	8007b5e <main+0x16e>
		  			{
		  				combat_turn();
 8007adc:	f7ff f9aa 	bl	8006e34 <combat_turn>
		  			}

				  break;
 8007ae0:	e03d      	b.n	8007b5e <main+0x16e>
			  }
	  		  break;
	  	  case ABILITY_CHECK:
	  		ability_check_mode_lcd();
 8007ae2:	f7f8 ffed 	bl	8000ac0 <ability_check_mode_lcd>
	  		  if (flag_ok)
 8007ae6:	4b29      	ldr	r3, [pc, #164]	@ (8007b8c <main+0x19c>)
 8007ae8:	681b      	ldr	r3, [r3, #0]
 8007aea:	2b00      	cmp	r3, #0
 8007aec:	d039      	beq.n	8007b62 <main+0x172>
	  		  {
	  			flag_ok = 0;
 8007aee:	4b27      	ldr	r3, [pc, #156]	@ (8007b8c <main+0x19c>)
 8007af0:	2200      	movs	r2, #0
 8007af2:	601a      	str	r2, [r3, #0]
	  			ability_check();
 8007af4:	f7ff fcda 	bl	80074ac <ability_check>
	  			  break;
 8007af8:	e036      	b.n	8007b68 <main+0x178>
	  		  }
	  		  break;
	  	  case SERIAL:
	  		serial_mode_lcd();
 8007afa:	f7f8 ffbd 	bl	8000a78 <serial_mode_lcd>


	  		  if (flag_ok)
 8007afe:	4b23      	ldr	r3, [pc, #140]	@ (8007b8c <main+0x19c>)
 8007b00:	681b      	ldr	r3, [r3, #0]
 8007b02:	2b00      	cmp	r3, #0
 8007b04:	d02f      	beq.n	8007b66 <main+0x176>
	  		  {

	  			for (int i = 0; i < MAX_STR_LEN; i++)
 8007b06:	2300      	movs	r3, #0
 8007b08:	f8c7 3104 	str.w	r3, [r7, #260]	@ 0x104
 8007b0c:	e00d      	b.n	8007b2a <main+0x13a>
				{
					input_str[i] = 0;
 8007b0e:	f507 7384 	add.w	r3, r7, #264	@ 0x108
 8007b12:	f5a3 7282 	sub.w	r2, r3, #260	@ 0x104
 8007b16:	f8d7 3104 	ldr.w	r3, [r7, #260]	@ 0x104
 8007b1a:	4413      	add	r3, r2
 8007b1c:	2200      	movs	r2, #0
 8007b1e:	701a      	strb	r2, [r3, #0]
	  			for (int i = 0; i < MAX_STR_LEN; i++)
 8007b20:	f8d7 3104 	ldr.w	r3, [r7, #260]	@ 0x104
 8007b24:	3301      	adds	r3, #1
 8007b26:	f8c7 3104 	str.w	r3, [r7, #260]	@ 0x104
 8007b2a:	f8d7 3104 	ldr.w	r3, [r7, #260]	@ 0x104
 8007b2e:	2bff      	cmp	r3, #255	@ 0xff
 8007b30:	dded      	ble.n	8007b0e <main+0x11e>
				}

				printf("$$ ");
 8007b32:	4817      	ldr	r0, [pc, #92]	@ (8007b90 <main+0x1a0>)
 8007b34:	f001 fa7c 	bl	8009030 <iprintf>
				accumulate_line(input_str);
 8007b38:	1d3b      	adds	r3, r7, #4
 8007b3a:	4618      	mov	r0, r3
 8007b3c:	f7fb fc92 	bl	8003464 <accumulate_line>
				process_command(input_str);
 8007b40:	1d3b      	adds	r3, r7, #4
 8007b42:	4618      	mov	r0, r3
 8007b44:	f7fe fa0e 	bl	8005f64 <process_command>
				break;
 8007b48:	e00e      	b.n	8007b68 <main+0x178>
	  		  }
			break;
	  	  default:
	  		  deterministic_state = PROGRAM_START;
 8007b4a:	4b0e      	ldr	r3, [pc, #56]	@ (8007b84 <main+0x194>)
 8007b4c:	2200      	movs	r2, #0
 8007b4e:	601a      	str	r2, [r3, #0]
	  		  break;
 8007b50:	e00a      	b.n	8007b68 <main+0x178>
	  		  break;
 8007b52:	bf00      	nop
 8007b54:	e008      	b.n	8007b68 <main+0x178>
	  		  break;
 8007b56:	bf00      	nop
 8007b58:	e006      	b.n	8007b68 <main+0x178>
	  		  break;
 8007b5a:	bf00      	nop
 8007b5c:	e004      	b.n	8007b68 <main+0x178>
				  break;
 8007b5e:	bf00      	nop
 8007b60:	e002      	b.n	8007b68 <main+0x178>
	  		  break;
 8007b62:	bf00      	nop
 8007b64:	e000      	b.n	8007b68 <main+0x178>
			break;
 8007b66:	bf00      	nop
	  }
	  while (button_flag == 0){;}
 8007b68:	bf00      	nop
 8007b6a:	4b04      	ldr	r3, [pc, #16]	@ (8007b7c <main+0x18c>)
 8007b6c:	681b      	ldr	r3, [r3, #0]
 8007b6e:	2b00      	cmp	r3, #0
 8007b70:	d0fb      	beq.n	8007b6a <main+0x17a>
	  button_flag = 0;
 8007b72:	e76a      	b.n	8007a4a <main+0x5a>
 8007b74:	0800c4bc 	.word	0x0800c4bc
 8007b78:	0800c4ec 	.word	0x0800c4ec
 8007b7c:	2000186c 	.word	0x2000186c
 8007b80:	20001870 	.word	0x20001870
 8007b84:	20001868 	.word	0x20001868
 8007b88:	66666667 	.word	0x66666667
 8007b8c:	2000185c 	.word	0x2000185c
 8007b90:	0800c4c0 	.word	0x0800c4c0

08007b94 <SystemClock_Config>:
/**
  * @brief System Clock Configuration
  * @retval None
  */
void SystemClock_Config(void)
{
 8007b94:	b580      	push	{r7, lr}
 8007b96:	b094      	sub	sp, #80	@ 0x50
 8007b98:	af00      	add	r7, sp, #0
  RCC_OscInitTypeDef RCC_OscInitStruct = {0};
 8007b9a:	f107 0320 	add.w	r3, r7, #32
 8007b9e:	2230      	movs	r2, #48	@ 0x30
 8007ba0:	2100      	movs	r1, #0
 8007ba2:	4618      	mov	r0, r3
 8007ba4:	f001 fbce 	bl	8009344 <memset>
  RCC_ClkInitTypeDef RCC_ClkInitStruct = {0};
 8007ba8:	f107 030c 	add.w	r3, r7, #12
 8007bac:	2200      	movs	r2, #0
 8007bae:	601a      	str	r2, [r3, #0]
 8007bb0:	605a      	str	r2, [r3, #4]
 8007bb2:	609a      	str	r2, [r3, #8]
 8007bb4:	60da      	str	r2, [r3, #12]
 8007bb6:	611a      	str	r2, [r3, #16]

  /** Configure the main internal regulator output voltage
  */
  __HAL_RCC_PWR_CLK_ENABLE();
 8007bb8:	2300      	movs	r3, #0
 8007bba:	60bb      	str	r3, [r7, #8]
 8007bbc:	4b28      	ldr	r3, [pc, #160]	@ (8007c60 <SystemClock_Config+0xcc>)
 8007bbe:	6c1b      	ldr	r3, [r3, #64]	@ 0x40
 8007bc0:	4a27      	ldr	r2, [pc, #156]	@ (8007c60 <SystemClock_Config+0xcc>)
 8007bc2:	f043 5380 	orr.w	r3, r3, #268435456	@ 0x10000000
 8007bc6:	6413      	str	r3, [r2, #64]	@ 0x40
 8007bc8:	4b25      	ldr	r3, [pc, #148]	@ (8007c60 <SystemClock_Config+0xcc>)
 8007bca:	6c1b      	ldr	r3, [r3, #64]	@ 0x40
 8007bcc:	f003 5380 	and.w	r3, r3, #268435456	@ 0x10000000
 8007bd0:	60bb      	str	r3, [r7, #8]
 8007bd2:	68bb      	ldr	r3, [r7, #8]
  __HAL_PWR_VOLTAGESCALING_CONFIG(PWR_REGULATOR_VOLTAGE_SCALE1);
 8007bd4:	2300      	movs	r3, #0
 8007bd6:	607b      	str	r3, [r7, #4]
 8007bd8:	4b22      	ldr	r3, [pc, #136]	@ (8007c64 <SystemClock_Config+0xd0>)
 8007bda:	681b      	ldr	r3, [r3, #0]
 8007bdc:	4a21      	ldr	r2, [pc, #132]	@ (8007c64 <SystemClock_Config+0xd0>)
 8007bde:	f443 4340 	orr.w	r3, r3, #49152	@ 0xc000
 8007be2:	6013      	str	r3, [r2, #0]
 8007be4:	4b1f      	ldr	r3, [pc, #124]	@ (8007c64 <SystemClock_Config+0xd0>)
 8007be6:	681b      	ldr	r3, [r3, #0]
 8007be8:	f403 4340 	and.w	r3, r3, #49152	@ 0xc000
 8007bec:	607b      	str	r3, [r7, #4]
 8007bee:	687b      	ldr	r3, [r7, #4]

  /** Initializes the RCC Oscillators according to the specified parameters
  * in the RCC_OscInitTypeDef structure.
  */
  RCC_OscInitStruct.OscillatorType = RCC_OSCILLATORTYPE_HSI;
 8007bf0:	2302      	movs	r3, #2
 8007bf2:	623b      	str	r3, [r7, #32]
  RCC_OscInitStruct.HSIState = RCC_HSI_ON;
 8007bf4:	2301      	movs	r3, #1
 8007bf6:	62fb      	str	r3, [r7, #44]	@ 0x2c
  RCC_OscInitStruct.HSICalibrationValue = RCC_HSICALIBRATION_DEFAULT;
 8007bf8:	2310      	movs	r3, #16
 8007bfa:	633b      	str	r3, [r7, #48]	@ 0x30
  RCC_OscInitStruct.PLL.PLLState = RCC_PLL_ON;
 8007bfc:	2302      	movs	r3, #2
 8007bfe:	63bb      	str	r3, [r7, #56]	@ 0x38
  RCC_OscInitStruct.PLL.PLLSource = RCC_PLLSOURCE_HSI;
 8007c00:	2300      	movs	r3, #0
 8007c02:	63fb      	str	r3, [r7, #60]	@ 0x3c
  RCC_OscInitStruct.PLL.PLLM = 8;
 8007c04:	2308      	movs	r3, #8
 8007c06:	643b      	str	r3, [r7, #64]	@ 0x40
  RCC_OscInitStruct.PLL.PLLN = 192;
 8007c08:	23c0      	movs	r3, #192	@ 0xc0
 8007c0a:	647b      	str	r3, [r7, #68]	@ 0x44
  RCC_OscInitStruct.PLL.PLLP = RCC_PLLP_DIV4;
 8007c0c:	2304      	movs	r3, #4
 8007c0e:	64bb      	str	r3, [r7, #72]	@ 0x48
  RCC_OscInitStruct.PLL.PLLQ = 8;
 8007c10:	2308      	movs	r3, #8
 8007c12:	64fb      	str	r3, [r7, #76]	@ 0x4c
  if (HAL_RCC_OscConfig(&RCC_OscInitStruct) != HAL_OK)
 8007c14:	f107 0320 	add.w	r3, r7, #32
 8007c18:	4618      	mov	r0, r3
 8007c1a:	f000 fc2b 	bl	8008474 <HAL_RCC_OscConfig>
 8007c1e:	4603      	mov	r3, r0
 8007c20:	2b00      	cmp	r3, #0
 8007c22:	d001      	beq.n	8007c28 <SystemClock_Config+0x94>
  {
    Error_Handler();
 8007c24:	f000 f820 	bl	8007c68 <Error_Handler>
  }

  /** Initializes the CPU, AHB and APB buses clocks
  */
  RCC_ClkInitStruct.ClockType = RCC_CLOCKTYPE_HCLK|RCC_CLOCKTYPE_SYSCLK
 8007c28:	230f      	movs	r3, #15
 8007c2a:	60fb      	str	r3, [r7, #12]
                              |RCC_CLOCKTYPE_PCLK1|RCC_CLOCKTYPE_PCLK2;
  RCC_ClkInitStruct.SYSCLKSource = RCC_SYSCLKSOURCE_PLLCLK;
 8007c2c:	2302      	movs	r3, #2
 8007c2e:	613b      	str	r3, [r7, #16]
  RCC_ClkInitStruct.AHBCLKDivider = RCC_SYSCLK_DIV1;
 8007c30:	2300      	movs	r3, #0
 8007c32:	617b      	str	r3, [r7, #20]
  RCC_ClkInitStruct.APB1CLKDivider = RCC_HCLK_DIV4;
 8007c34:	f44f 53a0 	mov.w	r3, #5120	@ 0x1400
 8007c38:	61bb      	str	r3, [r7, #24]
  RCC_ClkInitStruct.APB2CLKDivider = RCC_HCLK_DIV2;
 8007c3a:	f44f 5380 	mov.w	r3, #4096	@ 0x1000
 8007c3e:	61fb      	str	r3, [r7, #28]

  if (HAL_RCC_ClockConfig(&RCC_ClkInitStruct, FLASH_LATENCY_3) != HAL_OK)
 8007c40:	f107 030c 	add.w	r3, r7, #12
 8007c44:	2103      	movs	r1, #3
 8007c46:	4618      	mov	r0, r3
 8007c48:	f000 fe8c 	bl	8008964 <HAL_RCC_ClockConfig>
 8007c4c:	4603      	mov	r3, r0
 8007c4e:	2b00      	cmp	r3, #0
 8007c50:	d001      	beq.n	8007c56 <SystemClock_Config+0xc2>
  {
    Error_Handler();
 8007c52:	f000 f809 	bl	8007c68 <Error_Handler>
  }
}
 8007c56:	bf00      	nop
 8007c58:	3750      	adds	r7, #80	@ 0x50
 8007c5a:	46bd      	mov	sp, r7
 8007c5c:	bd80      	pop	{r7, pc}
 8007c5e:	bf00      	nop
 8007c60:	40023800 	.word	0x40023800
 8007c64:	40007000 	.word	0x40007000

08007c68 <Error_Handler>:
/**
  * @brief  This function is executed in case of error occurrence.
  * @retval None
  */
void Error_Handler(void)
{
 8007c68:	b480      	push	{r7}
 8007c6a:	af00      	add	r7, sp, #0
  \details Disables IRQ interrupts by setting special-purpose register PRIMASK.
           Can only be executed in Privileged modes.
 */
__STATIC_FORCEINLINE void __disable_irq(void)
{
  __ASM volatile ("cpsid i" : : : "memory");
 8007c6c:	b672      	cpsid	i
}
 8007c6e:	bf00      	nop
  /* USER CODE BEGIN Error_Handler_Debug */
  /* User can add his own implementation to report the HAL error return state */
  __disable_irq();
  while (1)
 8007c70:	bf00      	nop
 8007c72:	e7fd      	b.n	8007c70 <Error_Handler+0x8>

08007c74 <NMI_Handler>:
 8007c74:	b480      	push	{r7}
 8007c76:	af00      	add	r7, sp, #0
 8007c78:	bf00      	nop
 8007c7a:	e7fd      	b.n	8007c78 <NMI_Handler+0x4>

08007c7c <HardFault_Handler>:
 8007c7c:	b480      	push	{r7}
 8007c7e:	af00      	add	r7, sp, #0
 8007c80:	bf00      	nop
 8007c82:	e7fd      	b.n	8007c80 <HardFault_Handler+0x4>

08007c84 <MemManage_Handler>:
 8007c84:	b480      	push	{r7}
 8007c86:	af00      	add	r7, sp, #0
 8007c88:	bf00      	nop
 8007c8a:	e7fd      	b.n	8007c88 <MemManage_Handler+0x4>

08007c8c <BusFault_Handler>:
 8007c8c:	b480      	push	{r7}
 8007c8e:	af00      	add	r7, sp, #0
 8007c90:	bf00      	nop
 8007c92:	e7fd      	b.n	8007c90 <BusFault_Handler+0x4>

08007c94 <UsageFault_Handler>:
 8007c94:	b480      	push	{r7}
 8007c96:	af00      	add	r7, sp, #0
 8007c98:	bf00      	nop
 8007c9a:	e7fd      	b.n	8007c98 <UsageFault_Handler+0x4>

08007c9c <SVC_Handler>:
 8007c9c:	b480      	push	{r7}
 8007c9e:	af00      	add	r7, sp, #0
 8007ca0:	bf00      	nop
 8007ca2:	46bd      	mov	sp, r7
 8007ca4:	f85d 7b04 	ldr.w	r7, [sp], #4
 8007ca8:	4770      	bx	lr

08007caa <DebugMon_Handler>:
 8007caa:	b480      	push	{r7}
 8007cac:	af00      	add	r7, sp, #0
 8007cae:	bf00      	nop
 8007cb0:	46bd      	mov	sp, r7
 8007cb2:	f85d 7b04 	ldr.w	r7, [sp], #4
 8007cb6:	4770      	bx	lr

08007cb8 <PendSV_Handler>:
 8007cb8:	b480      	push	{r7}
 8007cba:	af00      	add	r7, sp, #0
 8007cbc:	bf00      	nop
 8007cbe:	46bd      	mov	sp, r7
 8007cc0:	f85d 7b04 	ldr.w	r7, [sp], #4
 8007cc4:	4770      	bx	lr

08007cc6 <SysTick_Handler>:
 8007cc6:	b580      	push	{r7, lr}
 8007cc8:	af00      	add	r7, sp, #0
 8007cca:	f000 fafd 	bl	80082c8 <HAL_IncTick>
 8007cce:	bf00      	nop
 8007cd0:	bd80      	pop	{r7, pc}
	...

08007cd4 <delay_ms>:
 8007cd4:	b480      	push	{r7}
 8007cd6:	b085      	sub	sp, #20
 8007cd8:	af00      	add	r7, sp, #0
 8007cda:	6078      	str	r0, [r7, #4]
 8007cdc:	4b11      	ldr	r3, [pc, #68]	@ (8007d24 <delay_ms+0x50>)
 8007cde:	4a12      	ldr	r2, [pc, #72]	@ (8007d28 <delay_ms+0x54>)
 8007ce0:	605a      	str	r2, [r3, #4]
 8007ce2:	4b10      	ldr	r3, [pc, #64]	@ (8007d24 <delay_ms+0x50>)
 8007ce4:	2200      	movs	r2, #0
 8007ce6:	609a      	str	r2, [r3, #8]
 8007ce8:	4b0e      	ldr	r3, [pc, #56]	@ (8007d24 <delay_ms+0x50>)
 8007cea:	2205      	movs	r2, #5
 8007cec:	601a      	str	r2, [r3, #0]
 8007cee:	2300      	movs	r3, #0
 8007cf0:	60fb      	str	r3, [r7, #12]
 8007cf2:	e009      	b.n	8007d08 <delay_ms+0x34>
 8007cf4:	bf00      	nop
 8007cf6:	4b0b      	ldr	r3, [pc, #44]	@ (8007d24 <delay_ms+0x50>)
 8007cf8:	681b      	ldr	r3, [r3, #0]
 8007cfa:	f403 3380 	and.w	r3, r3, #65536	@ 0x10000
 8007cfe:	2b00      	cmp	r3, #0
 8007d00:	d0f9      	beq.n	8007cf6 <delay_ms+0x22>
 8007d02:	68fb      	ldr	r3, [r7, #12]
 8007d04:	3301      	adds	r3, #1
 8007d06:	60fb      	str	r3, [r7, #12]
 8007d08:	68fa      	ldr	r2, [r7, #12]
 8007d0a:	687b      	ldr	r3, [r7, #4]
 8007d0c:	429a      	cmp	r2, r3
 8007d0e:	dbf1      	blt.n	8007cf4 <delay_ms+0x20>
 8007d10:	4b04      	ldr	r3, [pc, #16]	@ (8007d24 <delay_ms+0x50>)
 8007d12:	2200      	movs	r2, #0
 8007d14:	601a      	str	r2, [r3, #0]
 8007d16:	bf00      	nop
 8007d18:	3714      	adds	r7, #20
 8007d1a:	46bd      	mov	sp, r7
 8007d1c:	f85d 7b04 	ldr.w	r7, [sp], #4
 8007d20:	4770      	bx	lr
 8007d22:	bf00      	nop
 8007d24:	e000e010 	.word	0xe000e010
 8007d28:	0001869f 	.word	0x0001869f

08007d2c <_read>:
 8007d2c:	b580      	push	{r7, lr}
 8007d2e:	b086      	sub	sp, #24
 8007d30:	af00      	add	r7, sp, #0
 8007d32:	60f8      	str	r0, [r7, #12]
 8007d34:	60b9      	str	r1, [r7, #8]
 8007d36:	607a      	str	r2, [r7, #4]
 8007d38:	2300      	movs	r3, #0
 8007d3a:	617b      	str	r3, [r7, #20]
 8007d3c:	e00a      	b.n	8007d54 <_read+0x28>
 8007d3e:	f000 f915 	bl	8007f6c <__io_getchar>
 8007d42:	4601      	mov	r1, r0
 8007d44:	68bb      	ldr	r3, [r7, #8]
 8007d46:	1c5a      	adds	r2, r3, #1
 8007d48:	60ba      	str	r2, [r7, #8]
 8007d4a:	b2ca      	uxtb	r2, r1
 8007d4c:	701a      	strb	r2, [r3, #0]
 8007d4e:	697b      	ldr	r3, [r7, #20]
 8007d50:	3301      	adds	r3, #1
 8007d52:	617b      	str	r3, [r7, #20]
 8007d54:	697a      	ldr	r2, [r7, #20]
 8007d56:	687b      	ldr	r3, [r7, #4]
 8007d58:	429a      	cmp	r2, r3
 8007d5a:	dbf0      	blt.n	8007d3e <_read+0x12>
 8007d5c:	687b      	ldr	r3, [r7, #4]
 8007d5e:	4618      	mov	r0, r3
 8007d60:	3718      	adds	r7, #24
 8007d62:	46bd      	mov	sp, r7
 8007d64:	bd80      	pop	{r7, pc}

08007d66 <_write>:
 8007d66:	b580      	push	{r7, lr}
 8007d68:	b086      	sub	sp, #24
 8007d6a:	af00      	add	r7, sp, #0
 8007d6c:	60f8      	str	r0, [r7, #12]
 8007d6e:	60b9      	str	r1, [r7, #8]
 8007d70:	607a      	str	r2, [r7, #4]
 8007d72:	2300      	movs	r3, #0
 8007d74:	617b      	str	r3, [r7, #20]
 8007d76:	e009      	b.n	8007d8c <_write+0x26>
 8007d78:	68bb      	ldr	r3, [r7, #8]
 8007d7a:	1c5a      	adds	r2, r3, #1
 8007d7c:	60ba      	str	r2, [r7, #8]
 8007d7e:	781b      	ldrb	r3, [r3, #0]
 8007d80:	4618      	mov	r0, r3
 8007d82:	f000 f8a7 	bl	8007ed4 <__io_putchar>
 8007d86:	697b      	ldr	r3, [r7, #20]
 8007d88:	3301      	adds	r3, #1
 8007d8a:	617b      	str	r3, [r7, #20]
 8007d8c:	697a      	ldr	r2, [r7, #20]
 8007d8e:	687b      	ldr	r3, [r7, #4]
 8007d90:	429a      	cmp	r2, r3
 8007d92:	dbf1      	blt.n	8007d78 <_write+0x12>
 8007d94:	687b      	ldr	r3, [r7, #4]
 8007d96:	4618      	mov	r0, r3
 8007d98:	3718      	adds	r7, #24
 8007d9a:	46bd      	mov	sp, r7
 8007d9c:	bd80      	pop	{r7, pc}

08007d9e <_close>:
 8007d9e:	b480      	push	{r7}
 8007da0:	b083      	sub	sp, #12
 8007da2:	af00      	add	r7, sp, #0
 8007da4:	6078      	str	r0, [r7, #4]
 8007da6:	f04f 33ff 	mov.w	r3, #4294967295
 8007daa:	4618      	mov	r0, r3
 8007dac:	370c      	adds	r7, #12
 8007dae:	46bd      	mov	sp, r7
 8007db0:	f85d 7b04 	ldr.w	r7, [sp], #4
 8007db4:	4770      	bx	lr

08007db6 <_fstat>:
 8007db6:	b480      	push	{r7}
 8007db8:	b083      	sub	sp, #12
 8007dba:	af00      	add	r7, sp, #0
 8007dbc:	6078      	str	r0, [r7, #4]
 8007dbe:	6039      	str	r1, [r7, #0]
 8007dc0:	683b      	ldr	r3, [r7, #0]
 8007dc2:	f44f 5200 	mov.w	r2, #8192	@ 0x2000
 8007dc6:	605a      	str	r2, [r3, #4]
 8007dc8:	2300      	movs	r3, #0
 8007dca:	4618      	mov	r0, r3
 8007dcc:	370c      	adds	r7, #12
 8007dce:	46bd      	mov	sp, r7
 8007dd0:	f85d 7b04 	ldr.w	r7, [sp], #4
 8007dd4:	4770      	bx	lr

08007dd6 <_isatty>:
 8007dd6:	b480      	push	{r7}
 8007dd8:	b083      	sub	sp, #12
 8007dda:	af00      	add	r7, sp, #0
 8007ddc:	6078      	str	r0, [r7, #4]
 8007dde:	2301      	movs	r3, #1
 8007de0:	4618      	mov	r0, r3
 8007de2:	370c      	adds	r7, #12
 8007de4:	46bd      	mov	sp, r7
 8007de6:	f85d 7b04 	ldr.w	r7, [sp], #4
 8007dea:	4770      	bx	lr

08007dec <_lseek>:
 8007dec:	b480      	push	{r7}
 8007dee:	b085      	sub	sp, #20
 8007df0:	af00      	add	r7, sp, #0
 8007df2:	60f8      	str	r0, [r7, #12]
 8007df4:	60b9      	str	r1, [r7, #8]
 8007df6:	607a      	str	r2, [r7, #4]
 8007df8:	2300      	movs	r3, #0
 8007dfa:	4618      	mov	r0, r3
 8007dfc:	3714      	adds	r7, #20
 8007dfe:	46bd      	mov	sp, r7
 8007e00:	f85d 7b04 	ldr.w	r7, [sp], #4
 8007e04:	4770      	bx	lr
	...

08007e08 <_sbrk>:
 8007e08:	b580      	push	{r7, lr}
 8007e0a:	b086      	sub	sp, #24
 8007e0c:	af00      	add	r7, sp, #0
 8007e0e:	6078      	str	r0, [r7, #4]
 8007e10:	4a14      	ldr	r2, [pc, #80]	@ (8007e64 <_sbrk+0x5c>)
 8007e12:	4b15      	ldr	r3, [pc, #84]	@ (8007e68 <_sbrk+0x60>)
 8007e14:	1ad3      	subs	r3, r2, r3
 8007e16:	617b      	str	r3, [r7, #20]
 8007e18:	697b      	ldr	r3, [r7, #20]
 8007e1a:	613b      	str	r3, [r7, #16]
 8007e1c:	4b13      	ldr	r3, [pc, #76]	@ (8007e6c <_sbrk+0x64>)
 8007e1e:	681b      	ldr	r3, [r3, #0]
 8007e20:	2b00      	cmp	r3, #0
 8007e22:	d102      	bne.n	8007e2a <_sbrk+0x22>
 8007e24:	4b11      	ldr	r3, [pc, #68]	@ (8007e6c <_sbrk+0x64>)
 8007e26:	4a12      	ldr	r2, [pc, #72]	@ (8007e70 <_sbrk+0x68>)
 8007e28:	601a      	str	r2, [r3, #0]
 8007e2a:	4b10      	ldr	r3, [pc, #64]	@ (8007e6c <_sbrk+0x64>)
 8007e2c:	681a      	ldr	r2, [r3, #0]
 8007e2e:	687b      	ldr	r3, [r7, #4]
 8007e30:	4413      	add	r3, r2
 8007e32:	693a      	ldr	r2, [r7, #16]
 8007e34:	429a      	cmp	r2, r3
 8007e36:	d207      	bcs.n	8007e48 <_sbrk+0x40>
 8007e38:	f001 faee 	bl	8009418 <__errno>
 8007e3c:	4603      	mov	r3, r0
 8007e3e:	220c      	movs	r2, #12
 8007e40:	601a      	str	r2, [r3, #0]
 8007e42:	f04f 33ff 	mov.w	r3, #4294967295
 8007e46:	e009      	b.n	8007e5c <_sbrk+0x54>
 8007e48:	4b08      	ldr	r3, [pc, #32]	@ (8007e6c <_sbrk+0x64>)
 8007e4a:	681b      	ldr	r3, [r3, #0]
 8007e4c:	60fb      	str	r3, [r7, #12]
 8007e4e:	4b07      	ldr	r3, [pc, #28]	@ (8007e6c <_sbrk+0x64>)
 8007e50:	681a      	ldr	r2, [r3, #0]
 8007e52:	687b      	ldr	r3, [r7, #4]
 8007e54:	4413      	add	r3, r2
 8007e56:	4a05      	ldr	r2, [pc, #20]	@ (8007e6c <_sbrk+0x64>)
 8007e58:	6013      	str	r3, [r2, #0]
 8007e5a:	68fb      	ldr	r3, [r7, #12]
 8007e5c:	4618      	mov	r0, r3
 8007e5e:	3718      	adds	r7, #24
 8007e60:	46bd      	mov	sp, r7
 8007e62:	bd80      	pop	{r7, pc}
 8007e64:	20020000 	.word	0x20020000
 8007e68:	00000400 	.word	0x00000400
 8007e6c:	20001888 	.word	0x20001888
 8007e70:	200029f8 	.word	0x200029f8

08007e74 <SystemInit>:
 8007e74:	b480      	push	{r7}
 8007e76:	af00      	add	r7, sp, #0
 8007e78:	4b06      	ldr	r3, [pc, #24]	@ (8007e94 <SystemInit+0x20>)
 8007e7a:	f8d3 3088 	ldr.w	r3, [r3, #136]	@ 0x88
 8007e7e:	4a05      	ldr	r2, [pc, #20]	@ (8007e94 <SystemInit+0x20>)
 8007e80:	f443 0370 	orr.w	r3, r3, #15728640	@ 0xf00000
 8007e84:	f8c2 3088 	str.w	r3, [r2, #136]	@ 0x88
 8007e88:	bf00      	nop
 8007e8a:	46bd      	mov	sp, r7
 8007e8c:	f85d 7b04 	ldr.w	r7, [sp], #4
 8007e90:	4770      	bx	lr
 8007e92:	bf00      	nop
 8007e94:	e000ed00 	.word	0xe000ed00

08007e98 <__NVIC_EnableIRQ>:
 8007e98:	b480      	push	{r7}
 8007e9a:	b083      	sub	sp, #12
 8007e9c:	af00      	add	r7, sp, #0
 8007e9e:	4603      	mov	r3, r0
 8007ea0:	71fb      	strb	r3, [r7, #7]
 8007ea2:	f997 3007 	ldrsb.w	r3, [r7, #7]
 8007ea6:	2b00      	cmp	r3, #0
 8007ea8:	db0b      	blt.n	8007ec2 <__NVIC_EnableIRQ+0x2a>
 8007eaa:	79fb      	ldrb	r3, [r7, #7]
 8007eac:	f003 021f 	and.w	r2, r3, #31
 8007eb0:	4907      	ldr	r1, [pc, #28]	@ (8007ed0 <__NVIC_EnableIRQ+0x38>)
 8007eb2:	f997 3007 	ldrsb.w	r3, [r7, #7]
 8007eb6:	095b      	lsrs	r3, r3, #5
 8007eb8:	2001      	movs	r0, #1
 8007eba:	fa00 f202 	lsl.w	r2, r0, r2
 8007ebe:	f841 2023 	str.w	r2, [r1, r3, lsl #2]
 8007ec2:	bf00      	nop
 8007ec4:	370c      	adds	r7, #12
 8007ec6:	46bd      	mov	sp, r7
 8007ec8:	f85d 7b04 	ldr.w	r7, [sp], #4
 8007ecc:	4770      	bx	lr
 8007ece:	bf00      	nop
 8007ed0:	e000e100 	.word	0xe000e100

08007ed4 <__io_putchar>:
 8007ed4:	b480      	push	{r7}
 8007ed6:	b083      	sub	sp, #12
 8007ed8:	af00      	add	r7, sp, #0
 8007eda:	6078      	str	r0, [r7, #4]
 8007edc:	4b1d      	ldr	r3, [pc, #116]	@ (8007f54 <__io_putchar+0x80>)
 8007ede:	681b      	ldr	r3, [r3, #0]
 8007ee0:	2b00      	cmp	r3, #0
 8007ee2:	d12e      	bne.n	8007f42 <__io_putchar+0x6e>
 8007ee4:	4b1c      	ldr	r3, [pc, #112]	@ (8007f58 <__io_putchar+0x84>)
 8007ee6:	681b      	ldr	r3, [r3, #0]
 8007ee8:	1c5a      	adds	r2, r3, #1
 8007eea:	491b      	ldr	r1, [pc, #108]	@ (8007f58 <__io_putchar+0x84>)
 8007eec:	600a      	str	r2, [r1, #0]
 8007eee:	687a      	ldr	r2, [r7, #4]
 8007ef0:	b2d1      	uxtb	r1, r2
 8007ef2:	4a1a      	ldr	r2, [pc, #104]	@ (8007f5c <__io_putchar+0x88>)
 8007ef4:	54d1      	strb	r1, [r2, r3]
 8007ef6:	4b1a      	ldr	r3, [pc, #104]	@ (8007f60 <__io_putchar+0x8c>)
 8007ef8:	681b      	ldr	r3, [r3, #0]
 8007efa:	2b00      	cmp	r3, #0
 8007efc:	d002      	beq.n	8007f04 <__io_putchar+0x30>
 8007efe:	4b18      	ldr	r3, [pc, #96]	@ (8007f60 <__io_putchar+0x8c>)
 8007f00:	2200      	movs	r2, #0
 8007f02:	601a      	str	r2, [r3, #0]
 8007f04:	4b14      	ldr	r3, [pc, #80]	@ (8007f58 <__io_putchar+0x84>)
 8007f06:	681b      	ldr	r3, [r3, #0]
 8007f08:	f5b3 6f00 	cmp.w	r3, #2048	@ 0x800
 8007f0c:	d102      	bne.n	8007f14 <__io_putchar+0x40>
 8007f0e:	4b12      	ldr	r3, [pc, #72]	@ (8007f58 <__io_putchar+0x84>)
 8007f10:	2200      	movs	r2, #0
 8007f12:	601a      	str	r2, [r3, #0]
 8007f14:	4b10      	ldr	r3, [pc, #64]	@ (8007f58 <__io_putchar+0x84>)
 8007f16:	681a      	ldr	r2, [r3, #0]
 8007f18:	4b12      	ldr	r3, [pc, #72]	@ (8007f64 <__io_putchar+0x90>)
 8007f1a:	681b      	ldr	r3, [r3, #0]
 8007f1c:	429a      	cmp	r2, r3
 8007f1e:	d102      	bne.n	8007f26 <__io_putchar+0x52>
 8007f20:	4b0c      	ldr	r3, [pc, #48]	@ (8007f54 <__io_putchar+0x80>)
 8007f22:	2201      	movs	r2, #1
 8007f24:	601a      	str	r2, [r3, #0]
 8007f26:	4b10      	ldr	r3, [pc, #64]	@ (8007f68 <__io_putchar+0x94>)
 8007f28:	68db      	ldr	r3, [r3, #12]
 8007f2a:	f003 0380 	and.w	r3, r3, #128	@ 0x80
 8007f2e:	2b00      	cmp	r3, #0
 8007f30:	d105      	bne.n	8007f3e <__io_putchar+0x6a>
 8007f32:	4b0d      	ldr	r3, [pc, #52]	@ (8007f68 <__io_putchar+0x94>)
 8007f34:	68db      	ldr	r3, [r3, #12]
 8007f36:	4a0c      	ldr	r2, [pc, #48]	@ (8007f68 <__io_putchar+0x94>)
 8007f38:	f043 0380 	orr.w	r3, r3, #128	@ 0x80
 8007f3c:	60d3      	str	r3, [r2, #12]
 8007f3e:	2301      	movs	r3, #1
 8007f40:	e001      	b.n	8007f46 <__io_putchar+0x72>
 8007f42:	f04f 33ff 	mov.w	r3, #4294967295
 8007f46:	4618      	mov	r0, r3
 8007f48:	370c      	adds	r7, #12
 8007f4a:	46bd      	mov	sp, r7
 8007f4c:	f85d 7b04 	ldr.w	r7, [sp], #4
 8007f50:	4770      	bx	lr
 8007f52:	bf00      	nop
 8007f54:	20002894 	.word	0x20002894
 8007f58:	2000288c 	.word	0x2000288c
 8007f5c:	2000188c 	.word	0x2000188c
 8007f60:	20000588 	.word	0x20000588
 8007f64:	20002890 	.word	0x20002890
 8007f68:	40004400 	.word	0x40004400

08007f6c <__io_getchar>:
 8007f6c:	b480      	push	{r7}
 8007f6e:	b083      	sub	sp, #12
 8007f70:	af00      	add	r7, sp, #0
 8007f72:	4b20      	ldr	r3, [pc, #128]	@ (8007ff4 <__io_getchar+0x88>)
 8007f74:	681b      	ldr	r3, [r3, #0]
 8007f76:	2b00      	cmp	r3, #0
 8007f78:	d133      	bne.n	8007fe2 <__io_getchar+0x76>
 8007f7a:	4b1f      	ldr	r3, [pc, #124]	@ (8007ff8 <__io_getchar+0x8c>)
 8007f7c:	681b      	ldr	r3, [r3, #0]
 8007f7e:	1c5a      	adds	r2, r3, #1
 8007f80:	491d      	ldr	r1, [pc, #116]	@ (8007ff8 <__io_getchar+0x8c>)
 8007f82:	600a      	str	r2, [r1, #0]
 8007f84:	4a1d      	ldr	r2, [pc, #116]	@ (8007ffc <__io_getchar+0x90>)
 8007f86:	5cd3      	ldrb	r3, [r2, r3]
 8007f88:	71fb      	strb	r3, [r7, #7]
 8007f8a:	4b1b      	ldr	r3, [pc, #108]	@ (8007ff8 <__io_getchar+0x8c>)
 8007f8c:	681b      	ldr	r3, [r3, #0]
 8007f8e:	3b01      	subs	r3, #1
 8007f90:	4a1a      	ldr	r2, [pc, #104]	@ (8007ffc <__io_getchar+0x90>)
 8007f92:	2100      	movs	r1, #0
 8007f94:	54d1      	strb	r1, [r2, r3]
 8007f96:	4b1a      	ldr	r3, [pc, #104]	@ (8008000 <__io_getchar+0x94>)
 8007f98:	681b      	ldr	r3, [r3, #0]
 8007f9a:	2b00      	cmp	r3, #0
 8007f9c:	d002      	beq.n	8007fa4 <__io_getchar+0x38>
 8007f9e:	4b18      	ldr	r3, [pc, #96]	@ (8008000 <__io_getchar+0x94>)
 8007fa0:	2200      	movs	r2, #0
 8007fa2:	601a      	str	r2, [r3, #0]
 8007fa4:	4b14      	ldr	r3, [pc, #80]	@ (8007ff8 <__io_getchar+0x8c>)
 8007fa6:	681b      	ldr	r3, [r3, #0]
 8007fa8:	f5b3 6f00 	cmp.w	r3, #2048	@ 0x800
 8007fac:	d102      	bne.n	8007fb4 <__io_getchar+0x48>
 8007fae:	4b12      	ldr	r3, [pc, #72]	@ (8007ff8 <__io_getchar+0x8c>)
 8007fb0:	2200      	movs	r2, #0
 8007fb2:	601a      	str	r2, [r3, #0]
 8007fb4:	4b13      	ldr	r3, [pc, #76]	@ (8008004 <__io_getchar+0x98>)
 8007fb6:	681a      	ldr	r2, [r3, #0]
 8007fb8:	4b0f      	ldr	r3, [pc, #60]	@ (8007ff8 <__io_getchar+0x8c>)
 8007fba:	681b      	ldr	r3, [r3, #0]
 8007fbc:	429a      	cmp	r2, r3
 8007fbe:	d102      	bne.n	8007fc6 <__io_getchar+0x5a>
 8007fc0:	4b0c      	ldr	r3, [pc, #48]	@ (8007ff4 <__io_getchar+0x88>)
 8007fc2:	2201      	movs	r2, #1
 8007fc4:	601a      	str	r2, [r3, #0]
 8007fc6:	4b10      	ldr	r3, [pc, #64]	@ (8008008 <__io_getchar+0x9c>)
 8007fc8:	68db      	ldr	r3, [r3, #12]
 8007fca:	f003 0320 	and.w	r3, r3, #32
 8007fce:	2b00      	cmp	r3, #0
 8007fd0:	d105      	bne.n	8007fde <__io_getchar+0x72>
 8007fd2:	4b0d      	ldr	r3, [pc, #52]	@ (8008008 <__io_getchar+0x9c>)
 8007fd4:	68db      	ldr	r3, [r3, #12]
 8007fd6:	4a0c      	ldr	r2, [pc, #48]	@ (8008008 <__io_getchar+0x9c>)
 8007fd8:	f043 0320 	orr.w	r3, r3, #32
 8007fdc:	60d3      	str	r3, [r2, #12]
 8007fde:	79fb      	ldrb	r3, [r7, #7]
 8007fe0:	e001      	b.n	8007fe6 <__io_getchar+0x7a>
 8007fe2:	f04f 33ff 	mov.w	r3, #4294967295
 8007fe6:	4618      	mov	r0, r3
 8007fe8:	370c      	adds	r7, #12
 8007fea:	46bd      	mov	sp, r7
 8007fec:	f85d 7b04 	ldr.w	r7, [sp], #4
 8007ff0:	4770      	bx	lr
 8007ff2:	bf00      	nop
 8007ff4:	2000058c 	.word	0x2000058c
 8007ff8:	2000289c 	.word	0x2000289c
 8007ffc:	2000208c 	.word	0x2000208c
 8008000:	200028a0 	.word	0x200028a0
 8008004:	20002898 	.word	0x20002898
 8008008:	40004400 	.word	0x40004400

0800800c <USART2_IRQHandler>:
 800800c:	b480      	push	{r7}
 800800e:	b085      	sub	sp, #20
 8008010:	af00      	add	r7, sp, #0
 8008012:	4b4b      	ldr	r3, [pc, #300]	@ (8008140 <USART2_IRQHandler+0x134>)
 8008014:	681b      	ldr	r3, [r3, #0]
 8008016:	f003 0320 	and.w	r3, r3, #32
 800801a:	2b00      	cmp	r3, #0
 800801c:	d033      	beq.n	8008086 <USART2_IRQHandler+0x7a>
 800801e:	4b48      	ldr	r3, [pc, #288]	@ (8008140 <USART2_IRQHandler+0x134>)
 8008020:	68db      	ldr	r3, [r3, #12]
 8008022:	f003 0320 	and.w	r3, r3, #32
 8008026:	2b00      	cmp	r3, #0
 8008028:	d02d      	beq.n	8008086 <USART2_IRQHandler+0x7a>
 800802a:	4b46      	ldr	r3, [pc, #280]	@ (8008144 <USART2_IRQHandler+0x138>)
 800802c:	681b      	ldr	r3, [r3, #0]
 800802e:	2b00      	cmp	r3, #0
 8008030:	d123      	bne.n	800807a <USART2_IRQHandler+0x6e>
 8008032:	4b43      	ldr	r3, [pc, #268]	@ (8008140 <USART2_IRQHandler+0x134>)
 8008034:	685b      	ldr	r3, [r3, #4]
 8008036:	71fb      	strb	r3, [r7, #7]
 8008038:	4b43      	ldr	r3, [pc, #268]	@ (8008148 <USART2_IRQHandler+0x13c>)
 800803a:	681b      	ldr	r3, [r3, #0]
 800803c:	1c5a      	adds	r2, r3, #1
 800803e:	4942      	ldr	r1, [pc, #264]	@ (8008148 <USART2_IRQHandler+0x13c>)
 8008040:	600a      	str	r2, [r1, #0]
 8008042:	4942      	ldr	r1, [pc, #264]	@ (800814c <USART2_IRQHandler+0x140>)
 8008044:	79fa      	ldrb	r2, [r7, #7]
 8008046:	54ca      	strb	r2, [r1, r3]
 8008048:	4b41      	ldr	r3, [pc, #260]	@ (8008150 <USART2_IRQHandler+0x144>)
 800804a:	681b      	ldr	r3, [r3, #0]
 800804c:	2b00      	cmp	r3, #0
 800804e:	d002      	beq.n	8008056 <USART2_IRQHandler+0x4a>
 8008050:	4b3f      	ldr	r3, [pc, #252]	@ (8008150 <USART2_IRQHandler+0x144>)
 8008052:	2200      	movs	r2, #0
 8008054:	601a      	str	r2, [r3, #0]
 8008056:	4b3c      	ldr	r3, [pc, #240]	@ (8008148 <USART2_IRQHandler+0x13c>)
 8008058:	681b      	ldr	r3, [r3, #0]
 800805a:	f5b3 6f00 	cmp.w	r3, #2048	@ 0x800
 800805e:	d102      	bne.n	8008066 <USART2_IRQHandler+0x5a>
 8008060:	4b39      	ldr	r3, [pc, #228]	@ (8008148 <USART2_IRQHandler+0x13c>)
 8008062:	2200      	movs	r2, #0
 8008064:	601a      	str	r2, [r3, #0]
 8008066:	4b38      	ldr	r3, [pc, #224]	@ (8008148 <USART2_IRQHandler+0x13c>)
 8008068:	681a      	ldr	r2, [r3, #0]
 800806a:	4b3a      	ldr	r3, [pc, #232]	@ (8008154 <USART2_IRQHandler+0x148>)
 800806c:	681b      	ldr	r3, [r3, #0]
 800806e:	429a      	cmp	r2, r3
 8008070:	d109      	bne.n	8008086 <USART2_IRQHandler+0x7a>
 8008072:	4b34      	ldr	r3, [pc, #208]	@ (8008144 <USART2_IRQHandler+0x138>)
 8008074:	2201      	movs	r2, #1
 8008076:	601a      	str	r2, [r3, #0]
 8008078:	e005      	b.n	8008086 <USART2_IRQHandler+0x7a>
 800807a:	4b31      	ldr	r3, [pc, #196]	@ (8008140 <USART2_IRQHandler+0x134>)
 800807c:	68db      	ldr	r3, [r3, #12]
 800807e:	4a30      	ldr	r2, [pc, #192]	@ (8008140 <USART2_IRQHandler+0x134>)
 8008080:	f023 0320 	bic.w	r3, r3, #32
 8008084:	60d3      	str	r3, [r2, #12]
 8008086:	4b2e      	ldr	r3, [pc, #184]	@ (8008140 <USART2_IRQHandler+0x134>)
 8008088:	681b      	ldr	r3, [r3, #0]
 800808a:	f003 0380 	and.w	r3, r3, #128	@ 0x80
 800808e:	2b00      	cmp	r3, #0
 8008090:	d050      	beq.n	8008134 <USART2_IRQHandler+0x128>
 8008092:	4b2b      	ldr	r3, [pc, #172]	@ (8008140 <USART2_IRQHandler+0x134>)
 8008094:	68db      	ldr	r3, [r3, #12]
 8008096:	f003 0380 	and.w	r3, r3, #128	@ 0x80
 800809a:	2b00      	cmp	r3, #0
 800809c:	d04a      	beq.n	8008134 <USART2_IRQHandler+0x128>
 800809e:	2301      	movs	r3, #1
 80080a0:	60fb      	str	r3, [r7, #12]
 80080a2:	2300      	movs	r3, #0
 80080a4:	60bb      	str	r3, [r7, #8]
 80080a6:	e00a      	b.n	80080be <USART2_IRQHandler+0xb2>
 80080a8:	4a2b      	ldr	r2, [pc, #172]	@ (8008158 <USART2_IRQHandler+0x14c>)
 80080aa:	68bb      	ldr	r3, [r7, #8]
 80080ac:	4413      	add	r3, r2
 80080ae:	781b      	ldrb	r3, [r3, #0]
 80080b0:	2b00      	cmp	r3, #0
 80080b2:	d001      	beq.n	80080b8 <USART2_IRQHandler+0xac>
 80080b4:	2300      	movs	r3, #0
 80080b6:	60fb      	str	r3, [r7, #12]
 80080b8:	68bb      	ldr	r3, [r7, #8]
 80080ba:	3301      	adds	r3, #1
 80080bc:	60bb      	str	r3, [r7, #8]
 80080be:	68bb      	ldr	r3, [r7, #8]
 80080c0:	f5b3 6f00 	cmp.w	r3, #2048	@ 0x800
 80080c4:	dbf0      	blt.n	80080a8 <USART2_IRQHandler+0x9c>
 80080c6:	4a25      	ldr	r2, [pc, #148]	@ (800815c <USART2_IRQHandler+0x150>)
 80080c8:	68fb      	ldr	r3, [r7, #12]
 80080ca:	6013      	str	r3, [r2, #0]
 80080cc:	4b23      	ldr	r3, [pc, #140]	@ (800815c <USART2_IRQHandler+0x150>)
 80080ce:	681b      	ldr	r3, [r3, #0]
 80080d0:	2b00      	cmp	r3, #0
 80080d2:	d129      	bne.n	8008128 <USART2_IRQHandler+0x11c>
 80080d4:	4b22      	ldr	r3, [pc, #136]	@ (8008160 <USART2_IRQHandler+0x154>)
 80080d6:	681b      	ldr	r3, [r3, #0]
 80080d8:	1c5a      	adds	r2, r3, #1
 80080da:	4921      	ldr	r1, [pc, #132]	@ (8008160 <USART2_IRQHandler+0x154>)
 80080dc:	600a      	str	r2, [r1, #0]
 80080de:	4a1e      	ldr	r2, [pc, #120]	@ (8008158 <USART2_IRQHandler+0x14c>)
 80080e0:	5cd3      	ldrb	r3, [r2, r3]
 80080e2:	71fb      	strb	r3, [r7, #7]
 80080e4:	4b1e      	ldr	r3, [pc, #120]	@ (8008160 <USART2_IRQHandler+0x154>)
 80080e6:	681b      	ldr	r3, [r3, #0]
 80080e8:	3b01      	subs	r3, #1
 80080ea:	4a1b      	ldr	r2, [pc, #108]	@ (8008158 <USART2_IRQHandler+0x14c>)
 80080ec:	2100      	movs	r1, #0
 80080ee:	54d1      	strb	r1, [r2, r3]
 80080f0:	4a13      	ldr	r2, [pc, #76]	@ (8008140 <USART2_IRQHandler+0x134>)
 80080f2:	79fb      	ldrb	r3, [r7, #7]
 80080f4:	6053      	str	r3, [r2, #4]
 80080f6:	4b1b      	ldr	r3, [pc, #108]	@ (8008164 <USART2_IRQHandler+0x158>)
 80080f8:	681b      	ldr	r3, [r3, #0]
 80080fa:	2b00      	cmp	r3, #0
 80080fc:	d002      	beq.n	8008104 <USART2_IRQHandler+0xf8>
 80080fe:	4b19      	ldr	r3, [pc, #100]	@ (8008164 <USART2_IRQHandler+0x158>)
 8008100:	2200      	movs	r2, #0
 8008102:	601a      	str	r2, [r3, #0]
 8008104:	4b16      	ldr	r3, [pc, #88]	@ (8008160 <USART2_IRQHandler+0x154>)
 8008106:	681b      	ldr	r3, [r3, #0]
 8008108:	f5b3 6f00 	cmp.w	r3, #2048	@ 0x800
 800810c:	d102      	bne.n	8008114 <USART2_IRQHandler+0x108>
 800810e:	4b14      	ldr	r3, [pc, #80]	@ (8008160 <USART2_IRQHandler+0x154>)
 8008110:	2200      	movs	r2, #0
 8008112:	601a      	str	r2, [r3, #0]
 8008114:	4b14      	ldr	r3, [pc, #80]	@ (8008168 <USART2_IRQHandler+0x15c>)
 8008116:	681a      	ldr	r2, [r3, #0]
 8008118:	4b0e      	ldr	r3, [pc, #56]	@ (8008154 <USART2_IRQHandler+0x148>)
 800811a:	681b      	ldr	r3, [r3, #0]
 800811c:	429a      	cmp	r2, r3
 800811e:	d109      	bne.n	8008134 <USART2_IRQHandler+0x128>
 8008120:	4b0e      	ldr	r3, [pc, #56]	@ (800815c <USART2_IRQHandler+0x150>)
 8008122:	2201      	movs	r2, #1
 8008124:	601a      	str	r2, [r3, #0]
 8008126:	e005      	b.n	8008134 <USART2_IRQHandler+0x128>
 8008128:	4b05      	ldr	r3, [pc, #20]	@ (8008140 <USART2_IRQHandler+0x134>)
 800812a:	68db      	ldr	r3, [r3, #12]
 800812c:	4a04      	ldr	r2, [pc, #16]	@ (8008140 <USART2_IRQHandler+0x134>)
 800812e:	f023 0380 	bic.w	r3, r3, #128	@ 0x80
 8008132:	60d3      	str	r3, [r2, #12]
 8008134:	bf00      	nop
 8008136:	3714      	adds	r7, #20
 8008138:	46bd      	mov	sp, r7
 800813a:	f85d 7b04 	ldr.w	r7, [sp], #4
 800813e:	4770      	bx	lr
 8008140:	40004400 	.word	0x40004400
 8008144:	200028a0 	.word	0x200028a0
 8008148:	20002898 	.word	0x20002898
 800814c:	2000208c 	.word	0x2000208c
 8008150:	2000058c 	.word	0x2000058c
 8008154:	2000289c 	.word	0x2000289c
 8008158:	2000188c 	.word	0x2000188c
 800815c:	20000588 	.word	0x20000588
 8008160:	20002890 	.word	0x20002890
 8008164:	20002894 	.word	0x20002894
 8008168:	2000288c 	.word	0x2000288c

0800816c <UART_Init>:
 800816c:	b580      	push	{r7, lr}
 800816e:	af00      	add	r7, sp, #0
 8008170:	4b25      	ldr	r3, [pc, #148]	@ (8008208 <UART_Init+0x9c>)
 8008172:	6c1b      	ldr	r3, [r3, #64]	@ 0x40
 8008174:	4a24      	ldr	r2, [pc, #144]	@ (8008208 <UART_Init+0x9c>)
 8008176:	f443 3300 	orr.w	r3, r3, #131072	@ 0x20000
 800817a:	6413      	str	r3, [r2, #64]	@ 0x40
 800817c:	4b22      	ldr	r3, [pc, #136]	@ (8008208 <UART_Init+0x9c>)
 800817e:	6b1b      	ldr	r3, [r3, #48]	@ 0x30
 8008180:	4a21      	ldr	r2, [pc, #132]	@ (8008208 <UART_Init+0x9c>)
 8008182:	f043 0301 	orr.w	r3, r3, #1
 8008186:	6313      	str	r3, [r2, #48]	@ 0x30
 8008188:	4b20      	ldr	r3, [pc, #128]	@ (800820c <UART_Init+0xa0>)
 800818a:	681b      	ldr	r3, [r3, #0]
 800818c:	4a1f      	ldr	r2, [pc, #124]	@ (800820c <UART_Init+0xa0>)
 800818e:	f043 0320 	orr.w	r3, r3, #32
 8008192:	6013      	str	r3, [r2, #0]
 8008194:	4b1d      	ldr	r3, [pc, #116]	@ (800820c <UART_Init+0xa0>)
 8008196:	681b      	ldr	r3, [r3, #0]
 8008198:	4a1c      	ldr	r2, [pc, #112]	@ (800820c <UART_Init+0xa0>)
 800819a:	f043 0380 	orr.w	r3, r3, #128	@ 0x80
 800819e:	6013      	str	r3, [r2, #0]
 80081a0:	4b1a      	ldr	r3, [pc, #104]	@ (800820c <UART_Init+0xa0>)
 80081a2:	6a1b      	ldr	r3, [r3, #32]
 80081a4:	4a19      	ldr	r2, [pc, #100]	@ (800820c <UART_Init+0xa0>)
 80081a6:	f443 63e0 	orr.w	r3, r3, #1792	@ 0x700
 80081aa:	6213      	str	r3, [r2, #32]
 80081ac:	4b17      	ldr	r3, [pc, #92]	@ (800820c <UART_Init+0xa0>)
 80081ae:	6a1b      	ldr	r3, [r3, #32]
 80081b0:	4a16      	ldr	r2, [pc, #88]	@ (800820c <UART_Init+0xa0>)
 80081b2:	f443 43e0 	orr.w	r3, r3, #28672	@ 0x7000
 80081b6:	6213      	str	r3, [r2, #32]
 80081b8:	4b15      	ldr	r3, [pc, #84]	@ (8008210 <UART_Init+0xa4>)
 80081ba:	68db      	ldr	r3, [r3, #12]
 80081bc:	4a14      	ldr	r2, [pc, #80]	@ (8008210 <UART_Init+0xa4>)
 80081be:	f443 5300 	orr.w	r3, r3, #8192	@ 0x2000
 80081c2:	60d3      	str	r3, [r2, #12]
 80081c4:	4b12      	ldr	r3, [pc, #72]	@ (8008210 <UART_Init+0xa4>)
 80081c6:	68db      	ldr	r3, [r3, #12]
 80081c8:	4a11      	ldr	r2, [pc, #68]	@ (8008210 <UART_Init+0xa4>)
 80081ca:	f043 0380 	orr.w	r3, r3, #128	@ 0x80
 80081ce:	60d3      	str	r3, [r2, #12]
 80081d0:	4b0f      	ldr	r3, [pc, #60]	@ (8008210 <UART_Init+0xa4>)
 80081d2:	68db      	ldr	r3, [r3, #12]
 80081d4:	4a0e      	ldr	r2, [pc, #56]	@ (8008210 <UART_Init+0xa4>)
 80081d6:	f043 0320 	orr.w	r3, r3, #32
 80081da:	60d3      	str	r3, [r2, #12]
 80081dc:	2026      	movs	r0, #38	@ 0x26
 80081de:	f7ff fe5b 	bl	8007e98 <__NVIC_EnableIRQ>
 80081e2:	4b0b      	ldr	r3, [pc, #44]	@ (8008210 <UART_Init+0xa4>)
 80081e4:	f640 12c4 	movw	r2, #2500	@ 0x9c4
 80081e8:	609a      	str	r2, [r3, #8]
 80081ea:	4b09      	ldr	r3, [pc, #36]	@ (8008210 <UART_Init+0xa4>)
 80081ec:	68db      	ldr	r3, [r3, #12]
 80081ee:	4a08      	ldr	r2, [pc, #32]	@ (8008210 <UART_Init+0xa4>)
 80081f0:	f043 0308 	orr.w	r3, r3, #8
 80081f4:	60d3      	str	r3, [r2, #12]
 80081f6:	4b06      	ldr	r3, [pc, #24]	@ (8008210 <UART_Init+0xa4>)
 80081f8:	68db      	ldr	r3, [r3, #12]
 80081fa:	4a05      	ldr	r2, [pc, #20]	@ (8008210 <UART_Init+0xa4>)
 80081fc:	f043 0304 	orr.w	r3, r3, #4
 8008200:	60d3      	str	r3, [r2, #12]
 8008202:	bf00      	nop
 8008204:	bd80      	pop	{r7, pc}
 8008206:	bf00      	nop
 8008208:	40023800 	.word	0x40023800
 800820c:	40020000 	.word	0x40020000
 8008210:	40004400 	.word	0x40004400

08008214 <Reset_Handler>:

    .section  .text.Reset_Handler
  .weak  Reset_Handler
  .type  Reset_Handler, %function
Reset_Handler:  
  ldr   sp, =_estack    		 /* set stack pointer */
 8008214:	f8df d034 	ldr.w	sp, [pc, #52]	@ 800824c <LoopFillZerobss+0xe>

/* Call the clock system initialization function.*/
  bl  SystemInit   
 8008218:	f7ff fe2c 	bl	8007e74 <SystemInit>

/* Copy the data segment initializers from flash to SRAM */  
  ldr r0, =_sdata
 800821c:	480c      	ldr	r0, [pc, #48]	@ (8008250 <LoopFillZerobss+0x12>)
  ldr r1, =_edata
 800821e:	490d      	ldr	r1, [pc, #52]	@ (8008254 <LoopFillZerobss+0x16>)
  ldr r2, =_sidata
 8008220:	4a0d      	ldr	r2, [pc, #52]	@ (8008258 <LoopFillZerobss+0x1a>)
  movs r3, #0
 8008222:	2300      	movs	r3, #0
  b LoopCopyDataInit
 8008224:	e002      	b.n	800822c <LoopCopyDataInit>

08008226 <CopyDataInit>:

CopyDataInit:
  ldr r4, [r2, r3]
 8008226:	58d4      	ldr	r4, [r2, r3]
  str r4, [r0, r3]
 8008228:	50c4      	str	r4, [r0, r3]
  adds r3, r3, #4
 800822a:	3304      	adds	r3, #4

0800822c <LoopCopyDataInit>:

LoopCopyDataInit:
  adds r4, r0, r3
 800822c:	18c4      	adds	r4, r0, r3
  cmp r4, r1
 800822e:	428c      	cmp	r4, r1
  bcc CopyDataInit
 8008230:	d3f9      	bcc.n	8008226 <CopyDataInit>
  
/* Zero fill the bss segment. */
  ldr r2, =_sbss
 8008232:	4a0a      	ldr	r2, [pc, #40]	@ (800825c <LoopFillZerobss+0x1e>)
  ldr r4, =_ebss
 8008234:	4c0a      	ldr	r4, [pc, #40]	@ (8008260 <LoopFillZerobss+0x22>)
  movs r3, #0
 8008236:	2300      	movs	r3, #0
  b LoopFillZerobss
 8008238:	e001      	b.n	800823e <LoopFillZerobss>

0800823a <FillZerobss>:

FillZerobss:
  str  r3, [r2]
 800823a:	6013      	str	r3, [r2, #0]
  adds r2, r2, #4
 800823c:	3204      	adds	r2, #4

0800823e <LoopFillZerobss>:

LoopFillZerobss:
  cmp r2, r4
 800823e:	42a2      	cmp	r2, r4
  bcc FillZerobss
 8008240:	d3fb      	bcc.n	800823a <FillZerobss>

/* Call static constructors */
    bl __libc_init_array
 8008242:	f001 f8ef 	bl	8009424 <__libc_init_array>
/* Call the application's entry point.*/
  bl  main
 8008246:	f7ff fbd3 	bl	80079f0 <main>
  bx  lr    
 800824a:	4770      	bx	lr
  ldr   sp, =_estack    		 /* set stack pointer */
 800824c:	20020000 	.word	0x20020000
  ldr r0, =_sdata
 8008250:	20000000 	.word	0x20000000
  ldr r1, =_edata
 8008254:	200005f4 	.word	0x200005f4
  ldr r2, =_sidata
 8008258:	08043730 	.word	0x08043730
  ldr r2, =_sbss
 800825c:	200005f4 	.word	0x200005f4
  ldr r4, =_ebss
 8008260:	200029f4 	.word	0x200029f4

08008264 <ADC_IRQHandler>:
 * @retval None       
*/
    .section  .text.Default_Handler,"ax",%progbits
Default_Handler:
Infinite_Loop:
  b  Infinite_Loop
 8008264:	e7fe      	b.n	8008264 <ADC_IRQHandler>
	...

08008268 <HAL_InitTick>:
 8008268:	b580      	push	{r7, lr}
 800826a:	b082      	sub	sp, #8
 800826c:	af00      	add	r7, sp, #0
 800826e:	6078      	str	r0, [r7, #4]
 8008270:	4b12      	ldr	r3, [pc, #72]	@ (80082bc <HAL_InitTick+0x54>)
 8008272:	681a      	ldr	r2, [r3, #0]
 8008274:	4b12      	ldr	r3, [pc, #72]	@ (80082c0 <HAL_InitTick+0x58>)
 8008276:	781b      	ldrb	r3, [r3, #0]
 8008278:	4619      	mov	r1, r3
 800827a:	f44f 737a 	mov.w	r3, #1000	@ 0x3e8
 800827e:	fbb3 f3f1 	udiv	r3, r3, r1
 8008282:	fbb2 f3f3 	udiv	r3, r2, r3
 8008286:	4618      	mov	r0, r3
 8008288:	f000 f8e8 	bl	800845c <HAL_SYSTICK_Config>
 800828c:	4603      	mov	r3, r0
 800828e:	2b00      	cmp	r3, #0
 8008290:	d001      	beq.n	8008296 <HAL_InitTick+0x2e>
 8008292:	2301      	movs	r3, #1
 8008294:	e00e      	b.n	80082b4 <HAL_InitTick+0x4c>
 8008296:	687b      	ldr	r3, [r7, #4]
 8008298:	2b0f      	cmp	r3, #15
 800829a:	d80a      	bhi.n	80082b2 <HAL_InitTick+0x4a>
 800829c:	2200      	movs	r2, #0
 800829e:	6879      	ldr	r1, [r7, #4]
 80082a0:	f04f 30ff 	mov.w	r0, #4294967295
 80082a4:	f000 f8be 	bl	8008424 <HAL_NVIC_SetPriority>
 80082a8:	4a06      	ldr	r2, [pc, #24]	@ (80082c4 <HAL_InitTick+0x5c>)
 80082aa:	687b      	ldr	r3, [r7, #4]
 80082ac:	6013      	str	r3, [r2, #0]
 80082ae:	2300      	movs	r3, #0
 80082b0:	e000      	b.n	80082b4 <HAL_InitTick+0x4c>
 80082b2:	2301      	movs	r3, #1
 80082b4:	4618      	mov	r0, r3
 80082b6:	3708      	adds	r7, #8
 80082b8:	46bd      	mov	sp, r7
 80082ba:	bd80      	pop	{r7, pc}
 80082bc:	20000584 	.word	0x20000584
 80082c0:	20000594 	.word	0x20000594
 80082c4:	20000590 	.word	0x20000590

080082c8 <HAL_IncTick>:
 80082c8:	b480      	push	{r7}
 80082ca:	af00      	add	r7, sp, #0
 80082cc:	4b06      	ldr	r3, [pc, #24]	@ (80082e8 <HAL_IncTick+0x20>)
 80082ce:	781b      	ldrb	r3, [r3, #0]
 80082d0:	461a      	mov	r2, r3
 80082d2:	4b06      	ldr	r3, [pc, #24]	@ (80082ec <HAL_IncTick+0x24>)
 80082d4:	681b      	ldr	r3, [r3, #0]
 80082d6:	4413      	add	r3, r2
 80082d8:	4a04      	ldr	r2, [pc, #16]	@ (80082ec <HAL_IncTick+0x24>)
 80082da:	6013      	str	r3, [r2, #0]
 80082dc:	bf00      	nop
 80082de:	46bd      	mov	sp, r7
 80082e0:	f85d 7b04 	ldr.w	r7, [sp], #4
 80082e4:	4770      	bx	lr
 80082e6:	bf00      	nop
 80082e8:	20000594 	.word	0x20000594
 80082ec:	200028a4 	.word	0x200028a4

080082f0 <HAL_GetTick>:
 80082f0:	b480      	push	{r7}
 80082f2:	af00      	add	r7, sp, #0
 80082f4:	4b03      	ldr	r3, [pc, #12]	@ (8008304 <HAL_GetTick+0x14>)
 80082f6:	681b      	ldr	r3, [r3, #0]
 80082f8:	4618      	mov	r0, r3
 80082fa:	46bd      	mov	sp, r7
 80082fc:	f85d 7b04 	ldr.w	r7, [sp], #4
 8008300:	4770      	bx	lr
 8008302:	bf00      	nop
 8008304:	200028a4 	.word	0x200028a4

08008308 <__NVIC_GetPriorityGrouping>:
 8008308:	b480      	push	{r7}
 800830a:	af00      	add	r7, sp, #0
 800830c:	4b04      	ldr	r3, [pc, #16]	@ (8008320 <__NVIC_GetPriorityGrouping+0x18>)
 800830e:	68db      	ldr	r3, [r3, #12]
 8008310:	0a1b      	lsrs	r3, r3, #8
 8008312:	f003 0307 	and.w	r3, r3, #7
 8008316:	4618      	mov	r0, r3
 8008318:	46bd      	mov	sp, r7
 800831a:	f85d 7b04 	ldr.w	r7, [sp], #4
 800831e:	4770      	bx	lr
 8008320:	e000ed00 	.word	0xe000ed00

08008324 <__NVIC_SetPriority>:
 8008324:	b480      	push	{r7}
 8008326:	b083      	sub	sp, #12
 8008328:	af00      	add	r7, sp, #0
 800832a:	4603      	mov	r3, r0
 800832c:	6039      	str	r1, [r7, #0]
 800832e:	71fb      	strb	r3, [r7, #7]
 8008330:	f997 3007 	ldrsb.w	r3, [r7, #7]
 8008334:	2b00      	cmp	r3, #0
 8008336:	db0a      	blt.n	800834e <__NVIC_SetPriority+0x2a>
 8008338:	683b      	ldr	r3, [r7, #0]
 800833a:	b2da      	uxtb	r2, r3
 800833c:	490c      	ldr	r1, [pc, #48]	@ (8008370 <__NVIC_SetPriority+0x4c>)
 800833e:	f997 3007 	ldrsb.w	r3, [r7, #7]
 8008342:	0112      	lsls	r2, r2, #4
 8008344:	b2d2      	uxtb	r2, r2
 8008346:	440b      	add	r3, r1
 8008348:	f883 2300 	strb.w	r2, [r3, #768]	@ 0x300
 800834c:	e00a      	b.n	8008364 <__NVIC_SetPriority+0x40>
 800834e:	683b      	ldr	r3, [r7, #0]
 8008350:	b2da      	uxtb	r2, r3
 8008352:	4908      	ldr	r1, [pc, #32]	@ (8008374 <__NVIC_SetPriority+0x50>)
 8008354:	79fb      	ldrb	r3, [r7, #7]
 8008356:	f003 030f 	and.w	r3, r3, #15
 800835a:	3b04      	subs	r3, #4
 800835c:	0112      	lsls	r2, r2, #4
 800835e:	b2d2      	uxtb	r2, r2
 8008360:	440b      	add	r3, r1
 8008362:	761a      	strb	r2, [r3, #24]
 8008364:	bf00      	nop
 8008366:	370c      	adds	r7, #12
 8008368:	46bd      	mov	sp, r7
 800836a:	f85d 7b04 	ldr.w	r7, [sp], #4
 800836e:	4770      	bx	lr
 8008370:	e000e100 	.word	0xe000e100
 8008374:	e000ed00 	.word	0xe000ed00

08008378 <NVIC_EncodePriority>:
 8008378:	b480      	push	{r7}
 800837a:	b089      	sub	sp, #36	@ 0x24
 800837c:	af00      	add	r7, sp, #0
 800837e:	60f8      	str	r0, [r7, #12]
 8008380:	60b9      	str	r1, [r7, #8]
 8008382:	607a      	str	r2, [r7, #4]
 8008384:	68fb      	ldr	r3, [r7, #12]
 8008386:	f003 0307 	and.w	r3, r3, #7
 800838a:	61fb      	str	r3, [r7, #28]
 800838c:	69fb      	ldr	r3, [r7, #28]
 800838e:	f1c3 0307 	rsb	r3, r3, #7
 8008392:	2b04      	cmp	r3, #4
 8008394:	bf28      	it	cs
 8008396:	2304      	movcs	r3, #4
 8008398:	61bb      	str	r3, [r7, #24]
 800839a:	69fb      	ldr	r3, [r7, #28]
 800839c:	3304      	adds	r3, #4
 800839e:	2b06      	cmp	r3, #6
 80083a0:	d902      	bls.n	80083a8 <NVIC_EncodePriority+0x30>
 80083a2:	69fb      	ldr	r3, [r7, #28]
 80083a4:	3b03      	subs	r3, #3
 80083a6:	e000      	b.n	80083aa <NVIC_EncodePriority+0x32>
 80083a8:	2300      	movs	r3, #0
 80083aa:	617b      	str	r3, [r7, #20]
 80083ac:	f04f 32ff 	mov.w	r2, #4294967295
 80083b0:	69bb      	ldr	r3, [r7, #24]
 80083b2:	fa02 f303 	lsl.w	r3, r2, r3
 80083b6:	43da      	mvns	r2, r3
 80083b8:	68bb      	ldr	r3, [r7, #8]
 80083ba:	401a      	ands	r2, r3
 80083bc:	697b      	ldr	r3, [r7, #20]
 80083be:	409a      	lsls	r2, r3
 80083c0:	f04f 31ff 	mov.w	r1, #4294967295
 80083c4:	697b      	ldr	r3, [r7, #20]
 80083c6:	fa01 f303 	lsl.w	r3, r1, r3
 80083ca:	43d9      	mvns	r1, r3
 80083cc:	687b      	ldr	r3, [r7, #4]
 80083ce:	400b      	ands	r3, r1
 80083d0:	4313      	orrs	r3, r2
 80083d2:	4618      	mov	r0, r3
 80083d4:	3724      	adds	r7, #36	@ 0x24
 80083d6:	46bd      	mov	sp, r7
 80083d8:	f85d 7b04 	ldr.w	r7, [sp], #4
 80083dc:	4770      	bx	lr
	...

080083e0 <SysTick_Config>:
 80083e0:	b580      	push	{r7, lr}
 80083e2:	b082      	sub	sp, #8
 80083e4:	af00      	add	r7, sp, #0
 80083e6:	6078      	str	r0, [r7, #4]
 80083e8:	687b      	ldr	r3, [r7, #4]
 80083ea:	3b01      	subs	r3, #1
 80083ec:	f1b3 7f80 	cmp.w	r3, #16777216	@ 0x1000000
 80083f0:	d301      	bcc.n	80083f6 <SysTick_Config+0x16>
 80083f2:	2301      	movs	r3, #1
 80083f4:	e00f      	b.n	8008416 <SysTick_Config+0x36>
 80083f6:	4a0a      	ldr	r2, [pc, #40]	@ (8008420 <SysTick_Config+0x40>)
 80083f8:	687b      	ldr	r3, [r7, #4]
 80083fa:	3b01      	subs	r3, #1
 80083fc:	6053      	str	r3, [r2, #4]
 80083fe:	210f      	movs	r1, #15
 8008400:	f04f 30ff 	mov.w	r0, #4294967295
 8008404:	f7ff ff8e 	bl	8008324 <__NVIC_SetPriority>
 8008408:	4b05      	ldr	r3, [pc, #20]	@ (8008420 <SysTick_Config+0x40>)
 800840a:	2200      	movs	r2, #0
 800840c:	609a      	str	r2, [r3, #8]
 800840e:	4b04      	ldr	r3, [pc, #16]	@ (8008420 <SysTick_Config+0x40>)
 8008410:	2207      	movs	r2, #7
 8008412:	601a      	str	r2, [r3, #0]
 8008414:	2300      	movs	r3, #0
 8008416:	4618      	mov	r0, r3
 8008418:	3708      	adds	r7, #8
 800841a:	46bd      	mov	sp, r7
 800841c:	bd80      	pop	{r7, pc}
 800841e:	bf00      	nop
 8008420:	e000e010 	.word	0xe000e010

08008424 <HAL_NVIC_SetPriority>:
 8008424:	b580      	push	{r7, lr}
 8008426:	b086      	sub	sp, #24
 8008428:	af00      	add	r7, sp, #0
 800842a:	4603      	mov	r3, r0
 800842c:	60b9      	str	r1, [r7, #8]
 800842e:	607a      	str	r2, [r7, #4]
 8008430:	73fb      	strb	r3, [r7, #15]
 8008432:	2300      	movs	r3, #0
 8008434:	617b      	str	r3, [r7, #20]
 8008436:	f7ff ff67 	bl	8008308 <__NVIC_GetPriorityGrouping>
 800843a:	6178      	str	r0, [r7, #20]
 800843c:	687a      	ldr	r2, [r7, #4]
 800843e:	68b9      	ldr	r1, [r7, #8]
 8008440:	6978      	ldr	r0, [r7, #20]
 8008442:	f7ff ff99 	bl	8008378 <NVIC_EncodePriority>
 8008446:	4602      	mov	r2, r0
 8008448:	f997 300f 	ldrsb.w	r3, [r7, #15]
 800844c:	4611      	mov	r1, r2
 800844e:	4618      	mov	r0, r3
 8008450:	f7ff ff68 	bl	8008324 <__NVIC_SetPriority>
 8008454:	bf00      	nop
 8008456:	3718      	adds	r7, #24
 8008458:	46bd      	mov	sp, r7
 800845a:	bd80      	pop	{r7, pc}

0800845c <HAL_SYSTICK_Config>:
 800845c:	b580      	push	{r7, lr}
 800845e:	b082      	sub	sp, #8
 8008460:	af00      	add	r7, sp, #0
 8008462:	6078      	str	r0, [r7, #4]
 8008464:	6878      	ldr	r0, [r7, #4]
 8008466:	f7ff ffbb 	bl	80083e0 <SysTick_Config>
 800846a:	4603      	mov	r3, r0
 800846c:	4618      	mov	r0, r3
 800846e:	3708      	adds	r7, #8
 8008470:	46bd      	mov	sp, r7
 8008472:	bd80      	pop	{r7, pc}

08008474 <HAL_RCC_OscConfig>:
 8008474:	b580      	push	{r7, lr}
 8008476:	b086      	sub	sp, #24
 8008478:	af00      	add	r7, sp, #0
 800847a:	6078      	str	r0, [r7, #4]
 800847c:	687b      	ldr	r3, [r7, #4]
 800847e:	2b00      	cmp	r3, #0
 8008480:	d101      	bne.n	8008486 <HAL_RCC_OscConfig+0x12>
 8008482:	2301      	movs	r3, #1
 8008484:	e267      	b.n	8008956 <HAL_RCC_OscConfig+0x4e2>
 8008486:	687b      	ldr	r3, [r7, #4]
 8008488:	681b      	ldr	r3, [r3, #0]
 800848a:	f003 0301 	and.w	r3, r3, #1
 800848e:	2b00      	cmp	r3, #0
 8008490:	d075      	beq.n	800857e <HAL_RCC_OscConfig+0x10a>
 8008492:	4b88      	ldr	r3, [pc, #544]	@ (80086b4 <HAL_RCC_OscConfig+0x240>)
 8008494:	689b      	ldr	r3, [r3, #8]
 8008496:	f003 030c 	and.w	r3, r3, #12
 800849a:	2b04      	cmp	r3, #4
 800849c:	d00c      	beq.n	80084b8 <HAL_RCC_OscConfig+0x44>
 800849e:	4b85      	ldr	r3, [pc, #532]	@ (80086b4 <HAL_RCC_OscConfig+0x240>)
 80084a0:	689b      	ldr	r3, [r3, #8]
 80084a2:	f003 030c 	and.w	r3, r3, #12
 80084a6:	2b08      	cmp	r3, #8
 80084a8:	d112      	bne.n	80084d0 <HAL_RCC_OscConfig+0x5c>
 80084aa:	4b82      	ldr	r3, [pc, #520]	@ (80086b4 <HAL_RCC_OscConfig+0x240>)
 80084ac:	685b      	ldr	r3, [r3, #4]
 80084ae:	f403 0380 	and.w	r3, r3, #4194304	@ 0x400000
 80084b2:	f5b3 0f80 	cmp.w	r3, #4194304	@ 0x400000
 80084b6:	d10b      	bne.n	80084d0 <HAL_RCC_OscConfig+0x5c>
 80084b8:	4b7e      	ldr	r3, [pc, #504]	@ (80086b4 <HAL_RCC_OscConfig+0x240>)
 80084ba:	681b      	ldr	r3, [r3, #0]
 80084bc:	f403 3300 	and.w	r3, r3, #131072	@ 0x20000
 80084c0:	2b00      	cmp	r3, #0
 80084c2:	d05b      	beq.n	800857c <HAL_RCC_OscConfig+0x108>
 80084c4:	687b      	ldr	r3, [r7, #4]
 80084c6:	685b      	ldr	r3, [r3, #4]
 80084c8:	2b00      	cmp	r3, #0
 80084ca:	d157      	bne.n	800857c <HAL_RCC_OscConfig+0x108>
 80084cc:	2301      	movs	r3, #1
 80084ce:	e242      	b.n	8008956 <HAL_RCC_OscConfig+0x4e2>
 80084d0:	687b      	ldr	r3, [r7, #4]
 80084d2:	685b      	ldr	r3, [r3, #4]
 80084d4:	f5b3 3f80 	cmp.w	r3, #65536	@ 0x10000
 80084d8:	d106      	bne.n	80084e8 <HAL_RCC_OscConfig+0x74>
 80084da:	4b76      	ldr	r3, [pc, #472]	@ (80086b4 <HAL_RCC_OscConfig+0x240>)
 80084dc:	681b      	ldr	r3, [r3, #0]
 80084de:	4a75      	ldr	r2, [pc, #468]	@ (80086b4 <HAL_RCC_OscConfig+0x240>)
 80084e0:	f443 3380 	orr.w	r3, r3, #65536	@ 0x10000
 80084e4:	6013      	str	r3, [r2, #0]
 80084e6:	e01d      	b.n	8008524 <HAL_RCC_OscConfig+0xb0>
 80084e8:	687b      	ldr	r3, [r7, #4]
 80084ea:	685b      	ldr	r3, [r3, #4]
 80084ec:	f5b3 2fa0 	cmp.w	r3, #327680	@ 0x50000
 80084f0:	d10c      	bne.n	800850c <HAL_RCC_OscConfig+0x98>
 80084f2:	4b70      	ldr	r3, [pc, #448]	@ (80086b4 <HAL_RCC_OscConfig+0x240>)
 80084f4:	681b      	ldr	r3, [r3, #0]
 80084f6:	4a6f      	ldr	r2, [pc, #444]	@ (80086b4 <HAL_RCC_OscConfig+0x240>)
 80084f8:	f443 2380 	orr.w	r3, r3, #262144	@ 0x40000
 80084fc:	6013      	str	r3, [r2, #0]
 80084fe:	4b6d      	ldr	r3, [pc, #436]	@ (80086b4 <HAL_RCC_OscConfig+0x240>)
 8008500:	681b      	ldr	r3, [r3, #0]
 8008502:	4a6c      	ldr	r2, [pc, #432]	@ (80086b4 <HAL_RCC_OscConfig+0x240>)
 8008504:	f443 3380 	orr.w	r3, r3, #65536	@ 0x10000
 8008508:	6013      	str	r3, [r2, #0]
 800850a:	e00b      	b.n	8008524 <HAL_RCC_OscConfig+0xb0>
 800850c:	4b69      	ldr	r3, [pc, #420]	@ (80086b4 <HAL_RCC_OscConfig+0x240>)
 800850e:	681b      	ldr	r3, [r3, #0]
 8008510:	4a68      	ldr	r2, [pc, #416]	@ (80086b4 <HAL_RCC_OscConfig+0x240>)
 8008512:	f423 3380 	bic.w	r3, r3, #65536	@ 0x10000
 8008516:	6013      	str	r3, [r2, #0]
 8008518:	4b66      	ldr	r3, [pc, #408]	@ (80086b4 <HAL_RCC_OscConfig+0x240>)
 800851a:	681b      	ldr	r3, [r3, #0]
 800851c:	4a65      	ldr	r2, [pc, #404]	@ (80086b4 <HAL_RCC_OscConfig+0x240>)
 800851e:	f423 2380 	bic.w	r3, r3, #262144	@ 0x40000
 8008522:	6013      	str	r3, [r2, #0]
 8008524:	687b      	ldr	r3, [r7, #4]
 8008526:	685b      	ldr	r3, [r3, #4]
 8008528:	2b00      	cmp	r3, #0
 800852a:	d013      	beq.n	8008554 <HAL_RCC_OscConfig+0xe0>
 800852c:	f7ff fee0 	bl	80082f0 <HAL_GetTick>
 8008530:	6138      	str	r0, [r7, #16]
 8008532:	e008      	b.n	8008546 <HAL_RCC_OscConfig+0xd2>
 8008534:	f7ff fedc 	bl	80082f0 <HAL_GetTick>
 8008538:	4602      	mov	r2, r0
 800853a:	693b      	ldr	r3, [r7, #16]
 800853c:	1ad3      	subs	r3, r2, r3
 800853e:	2b64      	cmp	r3, #100	@ 0x64
 8008540:	d901      	bls.n	8008546 <HAL_RCC_OscConfig+0xd2>
 8008542:	2303      	movs	r3, #3
 8008544:	e207      	b.n	8008956 <HAL_RCC_OscConfig+0x4e2>
 8008546:	4b5b      	ldr	r3, [pc, #364]	@ (80086b4 <HAL_RCC_OscConfig+0x240>)
 8008548:	681b      	ldr	r3, [r3, #0]
 800854a:	f403 3300 	and.w	r3, r3, #131072	@ 0x20000
 800854e:	2b00      	cmp	r3, #0
 8008550:	d0f0      	beq.n	8008534 <HAL_RCC_OscConfig+0xc0>
 8008552:	e014      	b.n	800857e <HAL_RCC_OscConfig+0x10a>
 8008554:	f7ff fecc 	bl	80082f0 <HAL_GetTick>
 8008558:	6138      	str	r0, [r7, #16]
 800855a:	e008      	b.n	800856e <HAL_RCC_OscConfig+0xfa>
 800855c:	f7ff fec8 	bl	80082f0 <HAL_GetTick>
 8008560:	4602      	mov	r2, r0
 8008562:	693b      	ldr	r3, [r7, #16]
 8008564:	1ad3      	subs	r3, r2, r3
 8008566:	2b64      	cmp	r3, #100	@ 0x64
 8008568:	d901      	bls.n	800856e <HAL_RCC_OscConfig+0xfa>
 800856a:	2303      	movs	r3, #3
 800856c:	e1f3      	b.n	8008956 <HAL_RCC_OscConfig+0x4e2>
 800856e:	4b51      	ldr	r3, [pc, #324]	@ (80086b4 <HAL_RCC_OscConfig+0x240>)
 8008570:	681b      	ldr	r3, [r3, #0]
 8008572:	f403 3300 	and.w	r3, r3, #131072	@ 0x20000
 8008576:	2b00      	cmp	r3, #0
 8008578:	d1f0      	bne.n	800855c <HAL_RCC_OscConfig+0xe8>
 800857a:	e000      	b.n	800857e <HAL_RCC_OscConfig+0x10a>
 800857c:	bf00      	nop
 800857e:	687b      	ldr	r3, [r7, #4]
 8008580:	681b      	ldr	r3, [r3, #0]
 8008582:	f003 0302 	and.w	r3, r3, #2
 8008586:	2b00      	cmp	r3, #0
 8008588:	d063      	beq.n	8008652 <HAL_RCC_OscConfig+0x1de>
 800858a:	4b4a      	ldr	r3, [pc, #296]	@ (80086b4 <HAL_RCC_OscConfig+0x240>)
 800858c:	689b      	ldr	r3, [r3, #8]
 800858e:	f003 030c 	and.w	r3, r3, #12
 8008592:	2b00      	cmp	r3, #0
 8008594:	d00b      	beq.n	80085ae <HAL_RCC_OscConfig+0x13a>
 8008596:	4b47      	ldr	r3, [pc, #284]	@ (80086b4 <HAL_RCC_OscConfig+0x240>)
 8008598:	689b      	ldr	r3, [r3, #8]
 800859a:	f003 030c 	and.w	r3, r3, #12
 800859e:	2b08      	cmp	r3, #8
 80085a0:	d11c      	bne.n	80085dc <HAL_RCC_OscConfig+0x168>
 80085a2:	4b44      	ldr	r3, [pc, #272]	@ (80086b4 <HAL_RCC_OscConfig+0x240>)
 80085a4:	685b      	ldr	r3, [r3, #4]
 80085a6:	f403 0380 	and.w	r3, r3, #4194304	@ 0x400000
 80085aa:	2b00      	cmp	r3, #0
 80085ac:	d116      	bne.n	80085dc <HAL_RCC_OscConfig+0x168>
 80085ae:	4b41      	ldr	r3, [pc, #260]	@ (80086b4 <HAL_RCC_OscConfig+0x240>)
 80085b0:	681b      	ldr	r3, [r3, #0]
 80085b2:	f003 0302 	and.w	r3, r3, #2
 80085b6:	2b00      	cmp	r3, #0
 80085b8:	d005      	beq.n	80085c6 <HAL_RCC_OscConfig+0x152>
 80085ba:	687b      	ldr	r3, [r7, #4]
 80085bc:	68db      	ldr	r3, [r3, #12]
 80085be:	2b01      	cmp	r3, #1
 80085c0:	d001      	beq.n	80085c6 <HAL_RCC_OscConfig+0x152>
 80085c2:	2301      	movs	r3, #1
 80085c4:	e1c7      	b.n	8008956 <HAL_RCC_OscConfig+0x4e2>
 80085c6:	4b3b      	ldr	r3, [pc, #236]	@ (80086b4 <HAL_RCC_OscConfig+0x240>)
 80085c8:	681b      	ldr	r3, [r3, #0]
 80085ca:	f023 02f8 	bic.w	r2, r3, #248	@ 0xf8
 80085ce:	687b      	ldr	r3, [r7, #4]
 80085d0:	691b      	ldr	r3, [r3, #16]
 80085d2:	00db      	lsls	r3, r3, #3
 80085d4:	4937      	ldr	r1, [pc, #220]	@ (80086b4 <HAL_RCC_OscConfig+0x240>)
 80085d6:	4313      	orrs	r3, r2
 80085d8:	600b      	str	r3, [r1, #0]
 80085da:	e03a      	b.n	8008652 <HAL_RCC_OscConfig+0x1de>
 80085dc:	687b      	ldr	r3, [r7, #4]
 80085de:	68db      	ldr	r3, [r3, #12]
 80085e0:	2b00      	cmp	r3, #0
 80085e2:	d020      	beq.n	8008626 <HAL_RCC_OscConfig+0x1b2>
 80085e4:	4b34      	ldr	r3, [pc, #208]	@ (80086b8 <HAL_RCC_OscConfig+0x244>)
 80085e6:	2201      	movs	r2, #1
 80085e8:	601a      	str	r2, [r3, #0]
 80085ea:	f7ff fe81 	bl	80082f0 <HAL_GetTick>
 80085ee:	6138      	str	r0, [r7, #16]
 80085f0:	e008      	b.n	8008604 <HAL_RCC_OscConfig+0x190>
 80085f2:	f7ff fe7d 	bl	80082f0 <HAL_GetTick>
 80085f6:	4602      	mov	r2, r0
 80085f8:	693b      	ldr	r3, [r7, #16]
 80085fa:	1ad3      	subs	r3, r2, r3
 80085fc:	2b02      	cmp	r3, #2
 80085fe:	d901      	bls.n	8008604 <HAL_RCC_OscConfig+0x190>
 8008600:	2303      	movs	r3, #3
 8008602:	e1a8      	b.n	8008956 <HAL_RCC_OscConfig+0x4e2>
 8008604:	4b2b      	ldr	r3, [pc, #172]	@ (80086b4 <HAL_RCC_OscConfig+0x240>)
 8008606:	681b      	ldr	r3, [r3, #0]
 8008608:	f003 0302 	and.w	r3, r3, #2
 800860c:	2b00      	cmp	r3, #0
 800860e:	d0f0      	beq.n	80085f2 <HAL_RCC_OscConfig+0x17e>
 8008610:	4b28      	ldr	r3, [pc, #160]	@ (80086b4 <HAL_RCC_OscConfig+0x240>)
 8008612:	681b      	ldr	r3, [r3, #0]
 8008614:	f023 02f8 	bic.w	r2, r3, #248	@ 0xf8
 8008618:	687b      	ldr	r3, [r7, #4]
 800861a:	691b      	ldr	r3, [r3, #16]
 800861c:	00db      	lsls	r3, r3, #3
 800861e:	4925      	ldr	r1, [pc, #148]	@ (80086b4 <HAL_RCC_OscConfig+0x240>)
 8008620:	4313      	orrs	r3, r2
 8008622:	600b      	str	r3, [r1, #0]
 8008624:	e015      	b.n	8008652 <HAL_RCC_OscConfig+0x1de>
 8008626:	4b24      	ldr	r3, [pc, #144]	@ (80086b8 <HAL_RCC_OscConfig+0x244>)
 8008628:	2200      	movs	r2, #0
 800862a:	601a      	str	r2, [r3, #0]
 800862c:	f7ff fe60 	bl	80082f0 <HAL_GetTick>
 8008630:	6138      	str	r0, [r7, #16]
 8008632:	e008      	b.n	8008646 <HAL_RCC_OscConfig+0x1d2>
 8008634:	f7ff fe5c 	bl	80082f0 <HAL_GetTick>
 8008638:	4602      	mov	r2, r0
 800863a:	693b      	ldr	r3, [r7, #16]
 800863c:	1ad3      	subs	r3, r2, r3
 800863e:	2b02      	cmp	r3, #2
 8008640:	d901      	bls.n	8008646 <HAL_RCC_OscConfig+0x1d2>
 8008642:	2303      	movs	r3, #3
 8008644:	e187      	b.n	8008956 <HAL_RCC_OscConfig+0x4e2>
 8008646:	4b1b      	ldr	r3, [pc, #108]	@ (80086b4 <HAL_RCC_OscConfig+0x240>)
 8008648:	681b      	ldr	r3, [r3, #0]
 800864a:	f003 0302 	and.w	r3, r3, #2
 800864e:	2b00      	cmp	r3, #0
 8008650:	d1f0      	bne.n	8008634 <HAL_RCC_OscConfig+0x1c0>
 8008652:	687b      	ldr	r3, [r7, #4]
 8008654:	681b      	ldr	r3, [r3, #0]
 8008656:	f003 0308 	and.w	r3, r3, #8
 800865a:	2b00      	cmp	r3, #0
 800865c:	d036      	beq.n	80086cc <HAL_RCC_OscConfig+0x258>
 800865e:	687b      	ldr	r3, [r7, #4]
 8008660:	695b      	ldr	r3, [r3, #20]
 8008662:	2b00      	cmp	r3, #0
 8008664:	d016      	beq.n	8008694 <HAL_RCC_OscConfig+0x220>
 8008666:	4b15      	ldr	r3, [pc, #84]	@ (80086bc <HAL_RCC_OscConfig+0x248>)
 8008668:	2201      	movs	r2, #1
 800866a:	601a      	str	r2, [r3, #0]
 800866c:	f7ff fe40 	bl	80082f0 <HAL_GetTick>
 8008670:	6138      	str	r0, [r7, #16]
 8008672:	e008      	b.n	8008686 <HAL_RCC_OscConfig+0x212>
 8008674:	f7ff fe3c 	bl	80082f0 <HAL_GetTick>
 8008678:	4602      	mov	r2, r0
 800867a:	693b      	ldr	r3, [r7, #16]
 800867c:	1ad3      	subs	r3, r2, r3
 800867e:	2b02      	cmp	r3, #2
 8008680:	d901      	bls.n	8008686 <HAL_RCC_OscConfig+0x212>
 8008682:	2303      	movs	r3, #3
 8008684:	e167      	b.n	8008956 <HAL_RCC_OscConfig+0x4e2>
 8008686:	4b0b      	ldr	r3, [pc, #44]	@ (80086b4 <HAL_RCC_OscConfig+0x240>)
 8008688:	6f5b      	ldr	r3, [r3, #116]	@ 0x74
 800868a:	f003 0302 	and.w	r3, r3, #2
 800868e:	2b00      	cmp	r3, #0
 8008690:	d0f0      	beq.n	8008674 <HAL_RCC_OscConfig+0x200>
 8008692:	e01b      	b.n	80086cc <HAL_RCC_OscConfig+0x258>
 8008694:	4b09      	ldr	r3, [pc, #36]	@ (80086bc <HAL_RCC_OscConfig+0x248>)
 8008696:	2200      	movs	r2, #0
 8008698:	601a      	str	r2, [r3, #0]
 800869a:	f7ff fe29 	bl	80082f0 <HAL_GetTick>
 800869e:	6138      	str	r0, [r7, #16]
 80086a0:	e00e      	b.n	80086c0 <HAL_RCC_OscConfig+0x24c>
 80086a2:	f7ff fe25 	bl	80082f0 <HAL_GetTick>
 80086a6:	4602      	mov	r2, r0
 80086a8:	693b      	ldr	r3, [r7, #16]
 80086aa:	1ad3      	subs	r3, r2, r3
 80086ac:	2b02      	cmp	r3, #2
 80086ae:	d907      	bls.n	80086c0 <HAL_RCC_OscConfig+0x24c>
 80086b0:	2303      	movs	r3, #3
 80086b2:	e150      	b.n	8008956 <HAL_RCC_OscConfig+0x4e2>
 80086b4:	40023800 	.word	0x40023800
 80086b8:	42470000 	.word	0x42470000
 80086bc:	42470e80 	.word	0x42470e80
 80086c0:	4b88      	ldr	r3, [pc, #544]	@ (80088e4 <HAL_RCC_OscConfig+0x470>)
 80086c2:	6f5b      	ldr	r3, [r3, #116]	@ 0x74
 80086c4:	f003 0302 	and.w	r3, r3, #2
 80086c8:	2b00      	cmp	r3, #0
 80086ca:	d1ea      	bne.n	80086a2 <HAL_RCC_OscConfig+0x22e>
 80086cc:	687b      	ldr	r3, [r7, #4]
 80086ce:	681b      	ldr	r3, [r3, #0]
 80086d0:	f003 0304 	and.w	r3, r3, #4
 80086d4:	2b00      	cmp	r3, #0
 80086d6:	f000 8097 	beq.w	8008808 <HAL_RCC_OscConfig+0x394>
 80086da:	2300      	movs	r3, #0
 80086dc:	75fb      	strb	r3, [r7, #23]
 80086de:	4b81      	ldr	r3, [pc, #516]	@ (80088e4 <HAL_RCC_OscConfig+0x470>)
 80086e0:	6c1b      	ldr	r3, [r3, #64]	@ 0x40
 80086e2:	f003 5380 	and.w	r3, r3, #268435456	@ 0x10000000
 80086e6:	2b00      	cmp	r3, #0
 80086e8:	d10f      	bne.n	800870a <HAL_RCC_OscConfig+0x296>
 80086ea:	2300      	movs	r3, #0
 80086ec:	60bb      	str	r3, [r7, #8]
 80086ee:	4b7d      	ldr	r3, [pc, #500]	@ (80088e4 <HAL_RCC_OscConfig+0x470>)
 80086f0:	6c1b      	ldr	r3, [r3, #64]	@ 0x40
 80086f2:	4a7c      	ldr	r2, [pc, #496]	@ (80088e4 <HAL_RCC_OscConfig+0x470>)
 80086f4:	f043 5380 	orr.w	r3, r3, #268435456	@ 0x10000000
 80086f8:	6413      	str	r3, [r2, #64]	@ 0x40
 80086fa:	4b7a      	ldr	r3, [pc, #488]	@ (80088e4 <HAL_RCC_OscConfig+0x470>)
 80086fc:	6c1b      	ldr	r3, [r3, #64]	@ 0x40
 80086fe:	f003 5380 	and.w	r3, r3, #268435456	@ 0x10000000
 8008702:	60bb      	str	r3, [r7, #8]
 8008704:	68bb      	ldr	r3, [r7, #8]
 8008706:	2301      	movs	r3, #1
 8008708:	75fb      	strb	r3, [r7, #23]
 800870a:	4b77      	ldr	r3, [pc, #476]	@ (80088e8 <HAL_RCC_OscConfig+0x474>)
 800870c:	681b      	ldr	r3, [r3, #0]
 800870e:	f403 7380 	and.w	r3, r3, #256	@ 0x100
 8008712:	2b00      	cmp	r3, #0
 8008714:	d118      	bne.n	8008748 <HAL_RCC_OscConfig+0x2d4>
 8008716:	4b74      	ldr	r3, [pc, #464]	@ (80088e8 <HAL_RCC_OscConfig+0x474>)
 8008718:	681b      	ldr	r3, [r3, #0]
 800871a:	4a73      	ldr	r2, [pc, #460]	@ (80088e8 <HAL_RCC_OscConfig+0x474>)
 800871c:	f443 7380 	orr.w	r3, r3, #256	@ 0x100
 8008720:	6013      	str	r3, [r2, #0]
 8008722:	f7ff fde5 	bl	80082f0 <HAL_GetTick>
 8008726:	6138      	str	r0, [r7, #16]
 8008728:	e008      	b.n	800873c <HAL_RCC_OscConfig+0x2c8>
 800872a:	f7ff fde1 	bl	80082f0 <HAL_GetTick>
 800872e:	4602      	mov	r2, r0
 8008730:	693b      	ldr	r3, [r7, #16]
 8008732:	1ad3      	subs	r3, r2, r3
 8008734:	2b02      	cmp	r3, #2
 8008736:	d901      	bls.n	800873c <HAL_RCC_OscConfig+0x2c8>
 8008738:	2303      	movs	r3, #3
 800873a:	e10c      	b.n	8008956 <HAL_RCC_OscConfig+0x4e2>
 800873c:	4b6a      	ldr	r3, [pc, #424]	@ (80088e8 <HAL_RCC_OscConfig+0x474>)
 800873e:	681b      	ldr	r3, [r3, #0]
 8008740:	f403 7380 	and.w	r3, r3, #256	@ 0x100
 8008744:	2b00      	cmp	r3, #0
 8008746:	d0f0      	beq.n	800872a <HAL_RCC_OscConfig+0x2b6>
 8008748:	687b      	ldr	r3, [r7, #4]
 800874a:	689b      	ldr	r3, [r3, #8]
 800874c:	2b01      	cmp	r3, #1
 800874e:	d106      	bne.n	800875e <HAL_RCC_OscConfig+0x2ea>
 8008750:	4b64      	ldr	r3, [pc, #400]	@ (80088e4 <HAL_RCC_OscConfig+0x470>)
 8008752:	6f1b      	ldr	r3, [r3, #112]	@ 0x70
 8008754:	4a63      	ldr	r2, [pc, #396]	@ (80088e4 <HAL_RCC_OscConfig+0x470>)
 8008756:	f043 0301 	orr.w	r3, r3, #1
 800875a:	6713      	str	r3, [r2, #112]	@ 0x70
 800875c:	e01c      	b.n	8008798 <HAL_RCC_OscConfig+0x324>
 800875e:	687b      	ldr	r3, [r7, #4]
 8008760:	689b      	ldr	r3, [r3, #8]
 8008762:	2b05      	cmp	r3, #5
 8008764:	d10c      	bne.n	8008780 <HAL_RCC_OscConfig+0x30c>
 8008766:	4b5f      	ldr	r3, [pc, #380]	@ (80088e4 <HAL_RCC_OscConfig+0x470>)
 8008768:	6f1b      	ldr	r3, [r3, #112]	@ 0x70
 800876a:	4a5e      	ldr	r2, [pc, #376]	@ (80088e4 <HAL_RCC_OscConfig+0x470>)
 800876c:	f043 0304 	orr.w	r3, r3, #4
 8008770:	6713      	str	r3, [r2, #112]	@ 0x70
 8008772:	4b5c      	ldr	r3, [pc, #368]	@ (80088e4 <HAL_RCC_OscConfig+0x470>)
 8008774:	6f1b      	ldr	r3, [r3, #112]	@ 0x70
 8008776:	4a5b      	ldr	r2, [pc, #364]	@ (80088e4 <HAL_RCC_OscConfig+0x470>)
 8008778:	f043 0301 	orr.w	r3, r3, #1
 800877c:	6713      	str	r3, [r2, #112]	@ 0x70
 800877e:	e00b      	b.n	8008798 <HAL_RCC_OscConfig+0x324>
 8008780:	4b58      	ldr	r3, [pc, #352]	@ (80088e4 <HAL_RCC_OscConfig+0x470>)
 8008782:	6f1b      	ldr	r3, [r3, #112]	@ 0x70
 8008784:	4a57      	ldr	r2, [pc, #348]	@ (80088e4 <HAL_RCC_OscConfig+0x470>)
 8008786:	f023 0301 	bic.w	r3, r3, #1
 800878a:	6713      	str	r3, [r2, #112]	@ 0x70
 800878c:	4b55      	ldr	r3, [pc, #340]	@ (80088e4 <HAL_RCC_OscConfig+0x470>)
 800878e:	6f1b      	ldr	r3, [r3, #112]	@ 0x70
 8008790:	4a54      	ldr	r2, [pc, #336]	@ (80088e4 <HAL_RCC_OscConfig+0x470>)
 8008792:	f023 0304 	bic.w	r3, r3, #4
 8008796:	6713      	str	r3, [r2, #112]	@ 0x70
 8008798:	687b      	ldr	r3, [r7, #4]
 800879a:	689b      	ldr	r3, [r3, #8]
 800879c:	2b00      	cmp	r3, #0
 800879e:	d015      	beq.n	80087cc <HAL_RCC_OscConfig+0x358>
 80087a0:	f7ff fda6 	bl	80082f0 <HAL_GetTick>
 80087a4:	6138      	str	r0, [r7, #16]
 80087a6:	e00a      	b.n	80087be <HAL_RCC_OscConfig+0x34a>
 80087a8:	f7ff fda2 	bl	80082f0 <HAL_GetTick>
 80087ac:	4602      	mov	r2, r0
 80087ae:	693b      	ldr	r3, [r7, #16]
 80087b0:	1ad3      	subs	r3, r2, r3
 80087b2:	f241 3288 	movw	r2, #5000	@ 0x1388
 80087b6:	4293      	cmp	r3, r2
 80087b8:	d901      	bls.n	80087be <HAL_RCC_OscConfig+0x34a>
 80087ba:	2303      	movs	r3, #3
 80087bc:	e0cb      	b.n	8008956 <HAL_RCC_OscConfig+0x4e2>
 80087be:	4b49      	ldr	r3, [pc, #292]	@ (80088e4 <HAL_RCC_OscConfig+0x470>)
 80087c0:	6f1b      	ldr	r3, [r3, #112]	@ 0x70
 80087c2:	f003 0302 	and.w	r3, r3, #2
 80087c6:	2b00      	cmp	r3, #0
 80087c8:	d0ee      	beq.n	80087a8 <HAL_RCC_OscConfig+0x334>
 80087ca:	e014      	b.n	80087f6 <HAL_RCC_OscConfig+0x382>
 80087cc:	f7ff fd90 	bl	80082f0 <HAL_GetTick>
 80087d0:	6138      	str	r0, [r7, #16]
 80087d2:	e00a      	b.n	80087ea <HAL_RCC_OscConfig+0x376>
 80087d4:	f7ff fd8c 	bl	80082f0 <HAL_GetTick>
 80087d8:	4602      	mov	r2, r0
 80087da:	693b      	ldr	r3, [r7, #16]
 80087dc:	1ad3      	subs	r3, r2, r3
 80087de:	f241 3288 	movw	r2, #5000	@ 0x1388
 80087e2:	4293      	cmp	r3, r2
 80087e4:	d901      	bls.n	80087ea <HAL_RCC_OscConfig+0x376>
 80087e6:	2303      	movs	r3, #3
 80087e8:	e0b5      	b.n	8008956 <HAL_RCC_OscConfig+0x4e2>
 80087ea:	4b3e      	ldr	r3, [pc, #248]	@ (80088e4 <HAL_RCC_OscConfig+0x470>)
 80087ec:	6f1b      	ldr	r3, [r3, #112]	@ 0x70
 80087ee:	f003 0302 	and.w	r3, r3, #2
 80087f2:	2b00      	cmp	r3, #0
 80087f4:	d1ee      	bne.n	80087d4 <HAL_RCC_OscConfig+0x360>
 80087f6:	7dfb      	ldrb	r3, [r7, #23]
 80087f8:	2b01      	cmp	r3, #1
 80087fa:	d105      	bne.n	8008808 <HAL_RCC_OscConfig+0x394>
 80087fc:	4b39      	ldr	r3, [pc, #228]	@ (80088e4 <HAL_RCC_OscConfig+0x470>)
 80087fe:	6c1b      	ldr	r3, [r3, #64]	@ 0x40
 8008800:	4a38      	ldr	r2, [pc, #224]	@ (80088e4 <HAL_RCC_OscConfig+0x470>)
 8008802:	f023 5380 	bic.w	r3, r3, #268435456	@ 0x10000000
 8008806:	6413      	str	r3, [r2, #64]	@ 0x40
 8008808:	687b      	ldr	r3, [r7, #4]
 800880a:	699b      	ldr	r3, [r3, #24]
 800880c:	2b00      	cmp	r3, #0
 800880e:	f000 80a1 	beq.w	8008954 <HAL_RCC_OscConfig+0x4e0>
 8008812:	4b34      	ldr	r3, [pc, #208]	@ (80088e4 <HAL_RCC_OscConfig+0x470>)
 8008814:	689b      	ldr	r3, [r3, #8]
 8008816:	f003 030c 	and.w	r3, r3, #12
 800881a:	2b08      	cmp	r3, #8
 800881c:	d05c      	beq.n	80088d8 <HAL_RCC_OscConfig+0x464>
 800881e:	687b      	ldr	r3, [r7, #4]
 8008820:	699b      	ldr	r3, [r3, #24]
 8008822:	2b02      	cmp	r3, #2
 8008824:	d141      	bne.n	80088aa <HAL_RCC_OscConfig+0x436>
 8008826:	4b31      	ldr	r3, [pc, #196]	@ (80088ec <HAL_RCC_OscConfig+0x478>)
 8008828:	2200      	movs	r2, #0
 800882a:	601a      	str	r2, [r3, #0]
 800882c:	f7ff fd60 	bl	80082f0 <HAL_GetTick>
 8008830:	6138      	str	r0, [r7, #16]
 8008832:	e008      	b.n	8008846 <HAL_RCC_OscConfig+0x3d2>
 8008834:	f7ff fd5c 	bl	80082f0 <HAL_GetTick>
 8008838:	4602      	mov	r2, r0
 800883a:	693b      	ldr	r3, [r7, #16]
 800883c:	1ad3      	subs	r3, r2, r3
 800883e:	2b02      	cmp	r3, #2
 8008840:	d901      	bls.n	8008846 <HAL_RCC_OscConfig+0x3d2>
 8008842:	2303      	movs	r3, #3
 8008844:	e087      	b.n	8008956 <HAL_RCC_OscConfig+0x4e2>
 8008846:	4b27      	ldr	r3, [pc, #156]	@ (80088e4 <HAL_RCC_OscConfig+0x470>)
 8008848:	681b      	ldr	r3, [r3, #0]
 800884a:	f003 7300 	and.w	r3, r3, #33554432	@ 0x2000000
 800884e:	2b00      	cmp	r3, #0
 8008850:	d1f0      	bne.n	8008834 <HAL_RCC_OscConfig+0x3c0>
 8008852:	687b      	ldr	r3, [r7, #4]
 8008854:	69da      	ldr	r2, [r3, #28]
 8008856:	687b      	ldr	r3, [r7, #4]
 8008858:	6a1b      	ldr	r3, [r3, #32]
 800885a:	431a      	orrs	r2, r3
 800885c:	687b      	ldr	r3, [r7, #4]
 800885e:	6a5b      	ldr	r3, [r3, #36]	@ 0x24
 8008860:	019b      	lsls	r3, r3, #6
 8008862:	431a      	orrs	r2, r3
 8008864:	687b      	ldr	r3, [r7, #4]
 8008866:	6a9b      	ldr	r3, [r3, #40]	@ 0x28
 8008868:	085b      	lsrs	r3, r3, #1
 800886a:	3b01      	subs	r3, #1
 800886c:	041b      	lsls	r3, r3, #16
 800886e:	431a      	orrs	r2, r3
 8008870:	687b      	ldr	r3, [r7, #4]
 8008872:	6adb      	ldr	r3, [r3, #44]	@ 0x2c
 8008874:	061b      	lsls	r3, r3, #24
 8008876:	491b      	ldr	r1, [pc, #108]	@ (80088e4 <HAL_RCC_OscConfig+0x470>)
 8008878:	4313      	orrs	r3, r2
 800887a:	604b      	str	r3, [r1, #4]
 800887c:	4b1b      	ldr	r3, [pc, #108]	@ (80088ec <HAL_RCC_OscConfig+0x478>)
 800887e:	2201      	movs	r2, #1
 8008880:	601a      	str	r2, [r3, #0]
 8008882:	f7ff fd35 	bl	80082f0 <HAL_GetTick>
 8008886:	6138      	str	r0, [r7, #16]
 8008888:	e008      	b.n	800889c <HAL_RCC_OscConfig+0x428>
 800888a:	f7ff fd31 	bl	80082f0 <HAL_GetTick>
 800888e:	4602      	mov	r2, r0
 8008890:	693b      	ldr	r3, [r7, #16]
 8008892:	1ad3      	subs	r3, r2, r3
 8008894:	2b02      	cmp	r3, #2
 8008896:	d901      	bls.n	800889c <HAL_RCC_OscConfig+0x428>
 8008898:	2303      	movs	r3, #3
 800889a:	e05c      	b.n	8008956 <HAL_RCC_OscConfig+0x4e2>
 800889c:	4b11      	ldr	r3, [pc, #68]	@ (80088e4 <HAL_RCC_OscConfig+0x470>)
 800889e:	681b      	ldr	r3, [r3, #0]
 80088a0:	f003 7300 	and.w	r3, r3, #33554432	@ 0x2000000
 80088a4:	2b00      	cmp	r3, #0
 80088a6:	d0f0      	beq.n	800888a <HAL_RCC_OscConfig+0x416>
 80088a8:	e054      	b.n	8008954 <HAL_RCC_OscConfig+0x4e0>
 80088aa:	4b10      	ldr	r3, [pc, #64]	@ (80088ec <HAL_RCC_OscConfig+0x478>)
 80088ac:	2200      	movs	r2, #0
 80088ae:	601a      	str	r2, [r3, #0]
 80088b0:	f7ff fd1e 	bl	80082f0 <HAL_GetTick>
 80088b4:	6138      	str	r0, [r7, #16]
 80088b6:	e008      	b.n	80088ca <HAL_RCC_OscConfig+0x456>
 80088b8:	f7ff fd1a 	bl	80082f0 <HAL_GetTick>
 80088bc:	4602      	mov	r2, r0
 80088be:	693b      	ldr	r3, [r7, #16]
 80088c0:	1ad3      	subs	r3, r2, r3
 80088c2:	2b02      	cmp	r3, #2
 80088c4:	d901      	bls.n	80088ca <HAL_RCC_OscConfig+0x456>
 80088c6:	2303      	movs	r3, #3
 80088c8:	e045      	b.n	8008956 <HAL_RCC_OscConfig+0x4e2>
 80088ca:	4b06      	ldr	r3, [pc, #24]	@ (80088e4 <HAL_RCC_OscConfig+0x470>)
 80088cc:	681b      	ldr	r3, [r3, #0]
 80088ce:	f003 7300 	and.w	r3, r3, #33554432	@ 0x2000000
 80088d2:	2b00      	cmp	r3, #0
 80088d4:	d1f0      	bne.n	80088b8 <HAL_RCC_OscConfig+0x444>
 80088d6:	e03d      	b.n	8008954 <HAL_RCC_OscConfig+0x4e0>
 80088d8:	687b      	ldr	r3, [r7, #4]
 80088da:	699b      	ldr	r3, [r3, #24]
 80088dc:	2b01      	cmp	r3, #1
 80088de:	d107      	bne.n	80088f0 <HAL_RCC_OscConfig+0x47c>
 80088e0:	2301      	movs	r3, #1
 80088e2:	e038      	b.n	8008956 <HAL_RCC_OscConfig+0x4e2>
 80088e4:	40023800 	.word	0x40023800
 80088e8:	40007000 	.word	0x40007000
 80088ec:	42470060 	.word	0x42470060
 80088f0:	4b1b      	ldr	r3, [pc, #108]	@ (8008960 <HAL_RCC_OscConfig+0x4ec>)
 80088f2:	685b      	ldr	r3, [r3, #4]
 80088f4:	60fb      	str	r3, [r7, #12]
 80088f6:	687b      	ldr	r3, [r7, #4]
 80088f8:	699b      	ldr	r3, [r3, #24]
 80088fa:	2b01      	cmp	r3, #1
 80088fc:	d028      	beq.n	8008950 <HAL_RCC_OscConfig+0x4dc>
 80088fe:	68fb      	ldr	r3, [r7, #12]
 8008900:	f403 0280 	and.w	r2, r3, #4194304	@ 0x400000
 8008904:	687b      	ldr	r3, [r7, #4]
 8008906:	69db      	ldr	r3, [r3, #28]
 8008908:	429a      	cmp	r2, r3
 800890a:	d121      	bne.n	8008950 <HAL_RCC_OscConfig+0x4dc>
 800890c:	68fb      	ldr	r3, [r7, #12]
 800890e:	f003 023f 	and.w	r2, r3, #63	@ 0x3f
 8008912:	687b      	ldr	r3, [r7, #4]
 8008914:	6a1b      	ldr	r3, [r3, #32]
 8008916:	429a      	cmp	r2, r3
 8008918:	d11a      	bne.n	8008950 <HAL_RCC_OscConfig+0x4dc>
 800891a:	68fa      	ldr	r2, [r7, #12]
 800891c:	f647 73c0 	movw	r3, #32704	@ 0x7fc0
 8008920:	4013      	ands	r3, r2
 8008922:	687a      	ldr	r2, [r7, #4]
 8008924:	6a52      	ldr	r2, [r2, #36]	@ 0x24
 8008926:	0192      	lsls	r2, r2, #6
 8008928:	4293      	cmp	r3, r2
 800892a:	d111      	bne.n	8008950 <HAL_RCC_OscConfig+0x4dc>
 800892c:	68fb      	ldr	r3, [r7, #12]
 800892e:	f403 3240 	and.w	r2, r3, #196608	@ 0x30000
 8008932:	687b      	ldr	r3, [r7, #4]
 8008934:	6a9b      	ldr	r3, [r3, #40]	@ 0x28
 8008936:	085b      	lsrs	r3, r3, #1
 8008938:	3b01      	subs	r3, #1
 800893a:	041b      	lsls	r3, r3, #16
 800893c:	429a      	cmp	r2, r3
 800893e:	d107      	bne.n	8008950 <HAL_RCC_OscConfig+0x4dc>
 8008940:	68fb      	ldr	r3, [r7, #12]
 8008942:	f003 6270 	and.w	r2, r3, #251658240	@ 0xf000000
 8008946:	687b      	ldr	r3, [r7, #4]
 8008948:	6adb      	ldr	r3, [r3, #44]	@ 0x2c
 800894a:	061b      	lsls	r3, r3, #24
 800894c:	429a      	cmp	r2, r3
 800894e:	d001      	beq.n	8008954 <HAL_RCC_OscConfig+0x4e0>
 8008950:	2301      	movs	r3, #1
 8008952:	e000      	b.n	8008956 <HAL_RCC_OscConfig+0x4e2>
 8008954:	2300      	movs	r3, #0
 8008956:	4618      	mov	r0, r3
 8008958:	3718      	adds	r7, #24
 800895a:	46bd      	mov	sp, r7
 800895c:	bd80      	pop	{r7, pc}
 800895e:	bf00      	nop
 8008960:	40023800 	.word	0x40023800

08008964 <HAL_RCC_ClockConfig>:
 8008964:	b580      	push	{r7, lr}
 8008966:	b084      	sub	sp, #16
 8008968:	af00      	add	r7, sp, #0
 800896a:	6078      	str	r0, [r7, #4]
 800896c:	6039      	str	r1, [r7, #0]
 800896e:	687b      	ldr	r3, [r7, #4]
 8008970:	2b00      	cmp	r3, #0
 8008972:	d101      	bne.n	8008978 <HAL_RCC_ClockConfig+0x14>
 8008974:	2301      	movs	r3, #1
 8008976:	e0cc      	b.n	8008b12 <HAL_RCC_ClockConfig+0x1ae>
 8008978:	4b68      	ldr	r3, [pc, #416]	@ (8008b1c <HAL_RCC_ClockConfig+0x1b8>)
 800897a:	681b      	ldr	r3, [r3, #0]
 800897c:	f003 0307 	and.w	r3, r3, #7
 8008980:	683a      	ldr	r2, [r7, #0]
 8008982:	429a      	cmp	r2, r3
 8008984:	d90c      	bls.n	80089a0 <HAL_RCC_ClockConfig+0x3c>
 8008986:	4b65      	ldr	r3, [pc, #404]	@ (8008b1c <HAL_RCC_ClockConfig+0x1b8>)
 8008988:	683a      	ldr	r2, [r7, #0]
 800898a:	b2d2      	uxtb	r2, r2
 800898c:	701a      	strb	r2, [r3, #0]
 800898e:	4b63      	ldr	r3, [pc, #396]	@ (8008b1c <HAL_RCC_ClockConfig+0x1b8>)
 8008990:	681b      	ldr	r3, [r3, #0]
 8008992:	f003 0307 	and.w	r3, r3, #7
 8008996:	683a      	ldr	r2, [r7, #0]
 8008998:	429a      	cmp	r2, r3
 800899a:	d001      	beq.n	80089a0 <HAL_RCC_ClockConfig+0x3c>
 800899c:	2301      	movs	r3, #1
 800899e:	e0b8      	b.n	8008b12 <HAL_RCC_ClockConfig+0x1ae>
 80089a0:	687b      	ldr	r3, [r7, #4]
 80089a2:	681b      	ldr	r3, [r3, #0]
 80089a4:	f003 0302 	and.w	r3, r3, #2
 80089a8:	2b00      	cmp	r3, #0
 80089aa:	d020      	beq.n	80089ee <HAL_RCC_ClockConfig+0x8a>
 80089ac:	687b      	ldr	r3, [r7, #4]
 80089ae:	681b      	ldr	r3, [r3, #0]
 80089b0:	f003 0304 	and.w	r3, r3, #4
 80089b4:	2b00      	cmp	r3, #0
 80089b6:	d005      	beq.n	80089c4 <HAL_RCC_ClockConfig+0x60>
 80089b8:	4b59      	ldr	r3, [pc, #356]	@ (8008b20 <HAL_RCC_ClockConfig+0x1bc>)
 80089ba:	689b      	ldr	r3, [r3, #8]
 80089bc:	4a58      	ldr	r2, [pc, #352]	@ (8008b20 <HAL_RCC_ClockConfig+0x1bc>)
 80089be:	f443 53e0 	orr.w	r3, r3, #7168	@ 0x1c00
 80089c2:	6093      	str	r3, [r2, #8]
 80089c4:	687b      	ldr	r3, [r7, #4]
 80089c6:	681b      	ldr	r3, [r3, #0]
 80089c8:	f003 0308 	and.w	r3, r3, #8
 80089cc:	2b00      	cmp	r3, #0
 80089ce:	d005      	beq.n	80089dc <HAL_RCC_ClockConfig+0x78>
 80089d0:	4b53      	ldr	r3, [pc, #332]	@ (8008b20 <HAL_RCC_ClockConfig+0x1bc>)
 80089d2:	689b      	ldr	r3, [r3, #8]
 80089d4:	4a52      	ldr	r2, [pc, #328]	@ (8008b20 <HAL_RCC_ClockConfig+0x1bc>)
 80089d6:	f443 4360 	orr.w	r3, r3, #57344	@ 0xe000
 80089da:	6093      	str	r3, [r2, #8]
 80089dc:	4b50      	ldr	r3, [pc, #320]	@ (8008b20 <HAL_RCC_ClockConfig+0x1bc>)
 80089de:	689b      	ldr	r3, [r3, #8]
 80089e0:	f023 02f0 	bic.w	r2, r3, #240	@ 0xf0
 80089e4:	687b      	ldr	r3, [r7, #4]
 80089e6:	689b      	ldr	r3, [r3, #8]
 80089e8:	494d      	ldr	r1, [pc, #308]	@ (8008b20 <HAL_RCC_ClockConfig+0x1bc>)
 80089ea:	4313      	orrs	r3, r2
 80089ec:	608b      	str	r3, [r1, #8]
 80089ee:	687b      	ldr	r3, [r7, #4]
 80089f0:	681b      	ldr	r3, [r3, #0]
 80089f2:	f003 0301 	and.w	r3, r3, #1
 80089f6:	2b00      	cmp	r3, #0
 80089f8:	d044      	beq.n	8008a84 <HAL_RCC_ClockConfig+0x120>
 80089fa:	687b      	ldr	r3, [r7, #4]
 80089fc:	685b      	ldr	r3, [r3, #4]
 80089fe:	2b01      	cmp	r3, #1
 8008a00:	d107      	bne.n	8008a12 <HAL_RCC_ClockConfig+0xae>
 8008a02:	4b47      	ldr	r3, [pc, #284]	@ (8008b20 <HAL_RCC_ClockConfig+0x1bc>)
 8008a04:	681b      	ldr	r3, [r3, #0]
 8008a06:	f403 3300 	and.w	r3, r3, #131072	@ 0x20000
 8008a0a:	2b00      	cmp	r3, #0
 8008a0c:	d119      	bne.n	8008a42 <HAL_RCC_ClockConfig+0xde>
 8008a0e:	2301      	movs	r3, #1
 8008a10:	e07f      	b.n	8008b12 <HAL_RCC_ClockConfig+0x1ae>
 8008a12:	687b      	ldr	r3, [r7, #4]
 8008a14:	685b      	ldr	r3, [r3, #4]
 8008a16:	2b02      	cmp	r3, #2
 8008a18:	d003      	beq.n	8008a22 <HAL_RCC_ClockConfig+0xbe>
 8008a1a:	687b      	ldr	r3, [r7, #4]
 8008a1c:	685b      	ldr	r3, [r3, #4]
 8008a1e:	2b03      	cmp	r3, #3
 8008a20:	d107      	bne.n	8008a32 <HAL_RCC_ClockConfig+0xce>
 8008a22:	4b3f      	ldr	r3, [pc, #252]	@ (8008b20 <HAL_RCC_ClockConfig+0x1bc>)
 8008a24:	681b      	ldr	r3, [r3, #0]
 8008a26:	f003 7300 	and.w	r3, r3, #33554432	@ 0x2000000
 8008a2a:	2b00      	cmp	r3, #0
 8008a2c:	d109      	bne.n	8008a42 <HAL_RCC_ClockConfig+0xde>
 8008a2e:	2301      	movs	r3, #1
 8008a30:	e06f      	b.n	8008b12 <HAL_RCC_ClockConfig+0x1ae>
 8008a32:	4b3b      	ldr	r3, [pc, #236]	@ (8008b20 <HAL_RCC_ClockConfig+0x1bc>)
 8008a34:	681b      	ldr	r3, [r3, #0]
 8008a36:	f003 0302 	and.w	r3, r3, #2
 8008a3a:	2b00      	cmp	r3, #0
 8008a3c:	d101      	bne.n	8008a42 <HAL_RCC_ClockConfig+0xde>
 8008a3e:	2301      	movs	r3, #1
 8008a40:	e067      	b.n	8008b12 <HAL_RCC_ClockConfig+0x1ae>
 8008a42:	4b37      	ldr	r3, [pc, #220]	@ (8008b20 <HAL_RCC_ClockConfig+0x1bc>)
 8008a44:	689b      	ldr	r3, [r3, #8]
 8008a46:	f023 0203 	bic.w	r2, r3, #3
 8008a4a:	687b      	ldr	r3, [r7, #4]
 8008a4c:	685b      	ldr	r3, [r3, #4]
 8008a4e:	4934      	ldr	r1, [pc, #208]	@ (8008b20 <HAL_RCC_ClockConfig+0x1bc>)
 8008a50:	4313      	orrs	r3, r2
 8008a52:	608b      	str	r3, [r1, #8]
 8008a54:	f7ff fc4c 	bl	80082f0 <HAL_GetTick>
 8008a58:	60f8      	str	r0, [r7, #12]
 8008a5a:	e00a      	b.n	8008a72 <HAL_RCC_ClockConfig+0x10e>
 8008a5c:	f7ff fc48 	bl	80082f0 <HAL_GetTick>
 8008a60:	4602      	mov	r2, r0
 8008a62:	68fb      	ldr	r3, [r7, #12]
 8008a64:	1ad3      	subs	r3, r2, r3
 8008a66:	f241 3288 	movw	r2, #5000	@ 0x1388
 8008a6a:	4293      	cmp	r3, r2
 8008a6c:	d901      	bls.n	8008a72 <HAL_RCC_ClockConfig+0x10e>
 8008a6e:	2303      	movs	r3, #3
 8008a70:	e04f      	b.n	8008b12 <HAL_RCC_ClockConfig+0x1ae>
 8008a72:	4b2b      	ldr	r3, [pc, #172]	@ (8008b20 <HAL_RCC_ClockConfig+0x1bc>)
 8008a74:	689b      	ldr	r3, [r3, #8]
 8008a76:	f003 020c 	and.w	r2, r3, #12
 8008a7a:	687b      	ldr	r3, [r7, #4]
 8008a7c:	685b      	ldr	r3, [r3, #4]
 8008a7e:	009b      	lsls	r3, r3, #2
 8008a80:	429a      	cmp	r2, r3
 8008a82:	d1eb      	bne.n	8008a5c <HAL_RCC_ClockConfig+0xf8>
 8008a84:	4b25      	ldr	r3, [pc, #148]	@ (8008b1c <HAL_RCC_ClockConfig+0x1b8>)
 8008a86:	681b      	ldr	r3, [r3, #0]
 8008a88:	f003 0307 	and.w	r3, r3, #7
 8008a8c:	683a      	ldr	r2, [r7, #0]
 8008a8e:	429a      	cmp	r2, r3
 8008a90:	d20c      	bcs.n	8008aac <HAL_RCC_ClockConfig+0x148>
 8008a92:	4b22      	ldr	r3, [pc, #136]	@ (8008b1c <HAL_RCC_ClockConfig+0x1b8>)
 8008a94:	683a      	ldr	r2, [r7, #0]
 8008a96:	b2d2      	uxtb	r2, r2
 8008a98:	701a      	strb	r2, [r3, #0]
 8008a9a:	4b20      	ldr	r3, [pc, #128]	@ (8008b1c <HAL_RCC_ClockConfig+0x1b8>)
 8008a9c:	681b      	ldr	r3, [r3, #0]
 8008a9e:	f003 0307 	and.w	r3, r3, #7
 8008aa2:	683a      	ldr	r2, [r7, #0]
 8008aa4:	429a      	cmp	r2, r3
 8008aa6:	d001      	beq.n	8008aac <HAL_RCC_ClockConfig+0x148>
 8008aa8:	2301      	movs	r3, #1
 8008aaa:	e032      	b.n	8008b12 <HAL_RCC_ClockConfig+0x1ae>
 8008aac:	687b      	ldr	r3, [r7, #4]
 8008aae:	681b      	ldr	r3, [r3, #0]
 8008ab0:	f003 0304 	and.w	r3, r3, #4
 8008ab4:	2b00      	cmp	r3, #0
 8008ab6:	d008      	beq.n	8008aca <HAL_RCC_ClockConfig+0x166>
 8008ab8:	4b19      	ldr	r3, [pc, #100]	@ (8008b20 <HAL_RCC_ClockConfig+0x1bc>)
 8008aba:	689b      	ldr	r3, [r3, #8]
 8008abc:	f423 52e0 	bic.w	r2, r3, #7168	@ 0x1c00
 8008ac0:	687b      	ldr	r3, [r7, #4]
 8008ac2:	68db      	ldr	r3, [r3, #12]
 8008ac4:	4916      	ldr	r1, [pc, #88]	@ (8008b20 <HAL_RCC_ClockConfig+0x1bc>)
 8008ac6:	4313      	orrs	r3, r2
 8008ac8:	608b      	str	r3, [r1, #8]
 8008aca:	687b      	ldr	r3, [r7, #4]
 8008acc:	681b      	ldr	r3, [r3, #0]
 8008ace:	f003 0308 	and.w	r3, r3, #8
 8008ad2:	2b00      	cmp	r3, #0
 8008ad4:	d009      	beq.n	8008aea <HAL_RCC_ClockConfig+0x186>
 8008ad6:	4b12      	ldr	r3, [pc, #72]	@ (8008b20 <HAL_RCC_ClockConfig+0x1bc>)
 8008ad8:	689b      	ldr	r3, [r3, #8]
 8008ada:	f423 4260 	bic.w	r2, r3, #57344	@ 0xe000
 8008ade:	687b      	ldr	r3, [r7, #4]
 8008ae0:	691b      	ldr	r3, [r3, #16]
 8008ae2:	00db      	lsls	r3, r3, #3
 8008ae4:	490e      	ldr	r1, [pc, #56]	@ (8008b20 <HAL_RCC_ClockConfig+0x1bc>)
 8008ae6:	4313      	orrs	r3, r2
 8008ae8:	608b      	str	r3, [r1, #8]
 8008aea:	f000 f821 	bl	8008b30 <HAL_RCC_GetSysClockFreq>
 8008aee:	4602      	mov	r2, r0
 8008af0:	4b0b      	ldr	r3, [pc, #44]	@ (8008b20 <HAL_RCC_ClockConfig+0x1bc>)
 8008af2:	689b      	ldr	r3, [r3, #8]
 8008af4:	091b      	lsrs	r3, r3, #4
 8008af6:	f003 030f 	and.w	r3, r3, #15
 8008afa:	490a      	ldr	r1, [pc, #40]	@ (8008b24 <HAL_RCC_ClockConfig+0x1c0>)
 8008afc:	5ccb      	ldrb	r3, [r1, r3]
 8008afe:	fa22 f303 	lsr.w	r3, r2, r3
 8008b02:	4a09      	ldr	r2, [pc, #36]	@ (8008b28 <HAL_RCC_ClockConfig+0x1c4>)
 8008b04:	6013      	str	r3, [r2, #0]
 8008b06:	4b09      	ldr	r3, [pc, #36]	@ (8008b2c <HAL_RCC_ClockConfig+0x1c8>)
 8008b08:	681b      	ldr	r3, [r3, #0]
 8008b0a:	4618      	mov	r0, r3
 8008b0c:	f7ff fbac 	bl	8008268 <HAL_InitTick>
 8008b10:	2300      	movs	r3, #0
 8008b12:	4618      	mov	r0, r3
 8008b14:	3710      	adds	r7, #16
 8008b16:	46bd      	mov	sp, r7
 8008b18:	bd80      	pop	{r7, pc}
 8008b1a:	bf00      	nop
 8008b1c:	40023c00 	.word	0x40023c00
 8008b20:	40023800 	.word	0x40023800
 8008b24:	080435dc 	.word	0x080435dc
 8008b28:	20000584 	.word	0x20000584
 8008b2c:	20000590 	.word	0x20000590

08008b30 <HAL_RCC_GetSysClockFreq>:
 8008b30:	e92d 4fb0 	stmdb	sp!, {r4, r5, r7, r8, r9, sl, fp, lr}
 8008b34:	b094      	sub	sp, #80	@ 0x50
 8008b36:	af00      	add	r7, sp, #0
 8008b38:	2300      	movs	r3, #0
 8008b3a:	647b      	str	r3, [r7, #68]	@ 0x44
 8008b3c:	2300      	movs	r3, #0
 8008b3e:	64fb      	str	r3, [r7, #76]	@ 0x4c
 8008b40:	2300      	movs	r3, #0
 8008b42:	643b      	str	r3, [r7, #64]	@ 0x40
 8008b44:	2300      	movs	r3, #0
 8008b46:	64bb      	str	r3, [r7, #72]	@ 0x48
 8008b48:	4b79      	ldr	r3, [pc, #484]	@ (8008d30 <HAL_RCC_GetSysClockFreq+0x200>)
 8008b4a:	689b      	ldr	r3, [r3, #8]
 8008b4c:	f003 030c 	and.w	r3, r3, #12
 8008b50:	2b08      	cmp	r3, #8
 8008b52:	d00d      	beq.n	8008b70 <HAL_RCC_GetSysClockFreq+0x40>
 8008b54:	2b08      	cmp	r3, #8
 8008b56:	f200 80e1 	bhi.w	8008d1c <HAL_RCC_GetSysClockFreq+0x1ec>
 8008b5a:	2b00      	cmp	r3, #0
 8008b5c:	d002      	beq.n	8008b64 <HAL_RCC_GetSysClockFreq+0x34>
 8008b5e:	2b04      	cmp	r3, #4
 8008b60:	d003      	beq.n	8008b6a <HAL_RCC_GetSysClockFreq+0x3a>
 8008b62:	e0db      	b.n	8008d1c <HAL_RCC_GetSysClockFreq+0x1ec>
 8008b64:	4b73      	ldr	r3, [pc, #460]	@ (8008d34 <HAL_RCC_GetSysClockFreq+0x204>)
 8008b66:	64bb      	str	r3, [r7, #72]	@ 0x48
 8008b68:	e0db      	b.n	8008d22 <HAL_RCC_GetSysClockFreq+0x1f2>
 8008b6a:	4b73      	ldr	r3, [pc, #460]	@ (8008d38 <HAL_RCC_GetSysClockFreq+0x208>)
 8008b6c:	64bb      	str	r3, [r7, #72]	@ 0x48
 8008b6e:	e0d8      	b.n	8008d22 <HAL_RCC_GetSysClockFreq+0x1f2>
 8008b70:	4b6f      	ldr	r3, [pc, #444]	@ (8008d30 <HAL_RCC_GetSysClockFreq+0x200>)
 8008b72:	685b      	ldr	r3, [r3, #4]
 8008b74:	f003 033f 	and.w	r3, r3, #63	@ 0x3f
 8008b78:	647b      	str	r3, [r7, #68]	@ 0x44
 8008b7a:	4b6d      	ldr	r3, [pc, #436]	@ (8008d30 <HAL_RCC_GetSysClockFreq+0x200>)
 8008b7c:	685b      	ldr	r3, [r3, #4]
 8008b7e:	f403 0380 	and.w	r3, r3, #4194304	@ 0x400000
 8008b82:	2b00      	cmp	r3, #0
 8008b84:	d063      	beq.n	8008c4e <HAL_RCC_GetSysClockFreq+0x11e>
 8008b86:	4b6a      	ldr	r3, [pc, #424]	@ (8008d30 <HAL_RCC_GetSysClockFreq+0x200>)
 8008b88:	685b      	ldr	r3, [r3, #4]
 8008b8a:	099b      	lsrs	r3, r3, #6
 8008b8c:	2200      	movs	r2, #0
 8008b8e:	63bb      	str	r3, [r7, #56]	@ 0x38
 8008b90:	63fa      	str	r2, [r7, #60]	@ 0x3c
 8008b92:	6bbb      	ldr	r3, [r7, #56]	@ 0x38
 8008b94:	f3c3 0308 	ubfx	r3, r3, #0, #9
 8008b98:	633b      	str	r3, [r7, #48]	@ 0x30
 8008b9a:	2300      	movs	r3, #0
 8008b9c:	637b      	str	r3, [r7, #52]	@ 0x34
 8008b9e:	e9d7 450c 	ldrd	r4, r5, [r7, #48]	@ 0x30
 8008ba2:	4622      	mov	r2, r4
 8008ba4:	462b      	mov	r3, r5
 8008ba6:	f04f 0000 	mov.w	r0, #0
 8008baa:	f04f 0100 	mov.w	r1, #0
 8008bae:	0159      	lsls	r1, r3, #5
 8008bb0:	ea41 61d2 	orr.w	r1, r1, r2, lsr #27
 8008bb4:	0150      	lsls	r0, r2, #5
 8008bb6:	4602      	mov	r2, r0
 8008bb8:	460b      	mov	r3, r1
 8008bba:	4621      	mov	r1, r4
 8008bbc:	1a51      	subs	r1, r2, r1
 8008bbe:	6139      	str	r1, [r7, #16]
 8008bc0:	4629      	mov	r1, r5
 8008bc2:	eb63 0301 	sbc.w	r3, r3, r1
 8008bc6:	617b      	str	r3, [r7, #20]
 8008bc8:	f04f 0200 	mov.w	r2, #0
 8008bcc:	f04f 0300 	mov.w	r3, #0
 8008bd0:	e9d7 ab04 	ldrd	sl, fp, [r7, #16]
 8008bd4:	4659      	mov	r1, fp
 8008bd6:	018b      	lsls	r3, r1, #6
 8008bd8:	4651      	mov	r1, sl
 8008bda:	ea43 6391 	orr.w	r3, r3, r1, lsr #26
 8008bde:	4651      	mov	r1, sl
 8008be0:	018a      	lsls	r2, r1, #6
 8008be2:	4651      	mov	r1, sl
 8008be4:	ebb2 0801 	subs.w	r8, r2, r1
 8008be8:	4659      	mov	r1, fp
 8008bea:	eb63 0901 	sbc.w	r9, r3, r1
 8008bee:	f04f 0200 	mov.w	r2, #0
 8008bf2:	f04f 0300 	mov.w	r3, #0
 8008bf6:	ea4f 03c9 	mov.w	r3, r9, lsl #3
 8008bfa:	ea43 7358 	orr.w	r3, r3, r8, lsr #29
 8008bfe:	ea4f 02c8 	mov.w	r2, r8, lsl #3
 8008c02:	4690      	mov	r8, r2
 8008c04:	4699      	mov	r9, r3
 8008c06:	4623      	mov	r3, r4
 8008c08:	eb18 0303 	adds.w	r3, r8, r3
 8008c0c:	60bb      	str	r3, [r7, #8]
 8008c0e:	462b      	mov	r3, r5
 8008c10:	eb49 0303 	adc.w	r3, r9, r3
 8008c14:	60fb      	str	r3, [r7, #12]
 8008c16:	f04f 0200 	mov.w	r2, #0
 8008c1a:	f04f 0300 	mov.w	r3, #0
 8008c1e:	e9d7 4502 	ldrd	r4, r5, [r7, #8]
 8008c22:	4629      	mov	r1, r5
 8008c24:	024b      	lsls	r3, r1, #9
 8008c26:	4621      	mov	r1, r4
 8008c28:	ea43 53d1 	orr.w	r3, r3, r1, lsr #23
 8008c2c:	4621      	mov	r1, r4
 8008c2e:	024a      	lsls	r2, r1, #9
 8008c30:	4610      	mov	r0, r2
 8008c32:	4619      	mov	r1, r3
 8008c34:	6c7b      	ldr	r3, [r7, #68]	@ 0x44
 8008c36:	2200      	movs	r2, #0
 8008c38:	62bb      	str	r3, [r7, #40]	@ 0x28
 8008c3a:	62fa      	str	r2, [r7, #44]	@ 0x2c
 8008c3c:	e9d7 230a 	ldrd	r2, r3, [r7, #40]	@ 0x28
 8008c40:	f7f7 fb26 	bl	8000290 <__aeabi_uldivmod>
 8008c44:	4602      	mov	r2, r0
 8008c46:	460b      	mov	r3, r1
 8008c48:	4613      	mov	r3, r2
 8008c4a:	64fb      	str	r3, [r7, #76]	@ 0x4c
 8008c4c:	e058      	b.n	8008d00 <HAL_RCC_GetSysClockFreq+0x1d0>
 8008c4e:	4b38      	ldr	r3, [pc, #224]	@ (8008d30 <HAL_RCC_GetSysClockFreq+0x200>)
 8008c50:	685b      	ldr	r3, [r3, #4]
 8008c52:	099b      	lsrs	r3, r3, #6
 8008c54:	2200      	movs	r2, #0
 8008c56:	4618      	mov	r0, r3
 8008c58:	4611      	mov	r1, r2
 8008c5a:	f3c0 0308 	ubfx	r3, r0, #0, #9
 8008c5e:	623b      	str	r3, [r7, #32]
 8008c60:	2300      	movs	r3, #0
 8008c62:	627b      	str	r3, [r7, #36]	@ 0x24
 8008c64:	e9d7 8908 	ldrd	r8, r9, [r7, #32]
 8008c68:	4642      	mov	r2, r8
 8008c6a:	464b      	mov	r3, r9
 8008c6c:	f04f 0000 	mov.w	r0, #0
 8008c70:	f04f 0100 	mov.w	r1, #0
 8008c74:	0159      	lsls	r1, r3, #5
 8008c76:	ea41 61d2 	orr.w	r1, r1, r2, lsr #27
 8008c7a:	0150      	lsls	r0, r2, #5
 8008c7c:	4602      	mov	r2, r0
 8008c7e:	460b      	mov	r3, r1
 8008c80:	4641      	mov	r1, r8
 8008c82:	ebb2 0a01 	subs.w	sl, r2, r1
 8008c86:	4649      	mov	r1, r9
 8008c88:	eb63 0b01 	sbc.w	fp, r3, r1
 8008c8c:	f04f 0200 	mov.w	r2, #0
 8008c90:	f04f 0300 	mov.w	r3, #0
 8008c94:	ea4f 138b 	mov.w	r3, fp, lsl #6
 8008c98:	ea43 639a 	orr.w	r3, r3, sl, lsr #26
 8008c9c:	ea4f 128a 	mov.w	r2, sl, lsl #6
 8008ca0:	ebb2 040a 	subs.w	r4, r2, sl
 8008ca4:	eb63 050b 	sbc.w	r5, r3, fp
 8008ca8:	f04f 0200 	mov.w	r2, #0
 8008cac:	f04f 0300 	mov.w	r3, #0
 8008cb0:	00eb      	lsls	r3, r5, #3
 8008cb2:	ea43 7354 	orr.w	r3, r3, r4, lsr #29
 8008cb6:	00e2      	lsls	r2, r4, #3
 8008cb8:	4614      	mov	r4, r2
 8008cba:	461d      	mov	r5, r3
 8008cbc:	4643      	mov	r3, r8
 8008cbe:	18e3      	adds	r3, r4, r3
 8008cc0:	603b      	str	r3, [r7, #0]
 8008cc2:	464b      	mov	r3, r9
 8008cc4:	eb45 0303 	adc.w	r3, r5, r3
 8008cc8:	607b      	str	r3, [r7, #4]
 8008cca:	f04f 0200 	mov.w	r2, #0
 8008cce:	f04f 0300 	mov.w	r3, #0
 8008cd2:	e9d7 4500 	ldrd	r4, r5, [r7]
 8008cd6:	4629      	mov	r1, r5
 8008cd8:	028b      	lsls	r3, r1, #10
 8008cda:	4621      	mov	r1, r4
 8008cdc:	ea43 5391 	orr.w	r3, r3, r1, lsr #22
 8008ce0:	4621      	mov	r1, r4
 8008ce2:	028a      	lsls	r2, r1, #10
 8008ce4:	4610      	mov	r0, r2
 8008ce6:	4619      	mov	r1, r3
 8008ce8:	6c7b      	ldr	r3, [r7, #68]	@ 0x44
 8008cea:	2200      	movs	r2, #0
 8008cec:	61bb      	str	r3, [r7, #24]
 8008cee:	61fa      	str	r2, [r7, #28]
 8008cf0:	e9d7 2306 	ldrd	r2, r3, [r7, #24]
 8008cf4:	f7f7 facc 	bl	8000290 <__aeabi_uldivmod>
 8008cf8:	4602      	mov	r2, r0
 8008cfa:	460b      	mov	r3, r1
 8008cfc:	4613      	mov	r3, r2
 8008cfe:	64fb      	str	r3, [r7, #76]	@ 0x4c
 8008d00:	4b0b      	ldr	r3, [pc, #44]	@ (8008d30 <HAL_RCC_GetSysClockFreq+0x200>)
 8008d02:	685b      	ldr	r3, [r3, #4]
 8008d04:	0c1b      	lsrs	r3, r3, #16
 8008d06:	f003 0303 	and.w	r3, r3, #3
 8008d0a:	3301      	adds	r3, #1
 8008d0c:	005b      	lsls	r3, r3, #1
 8008d0e:	643b      	str	r3, [r7, #64]	@ 0x40
 8008d10:	6cfa      	ldr	r2, [r7, #76]	@ 0x4c
 8008d12:	6c3b      	ldr	r3, [r7, #64]	@ 0x40
 8008d14:	fbb2 f3f3 	udiv	r3, r2, r3
 8008d18:	64bb      	str	r3, [r7, #72]	@ 0x48
 8008d1a:	e002      	b.n	8008d22 <HAL_RCC_GetSysClockFreq+0x1f2>
 8008d1c:	4b05      	ldr	r3, [pc, #20]	@ (8008d34 <HAL_RCC_GetSysClockFreq+0x204>)
 8008d1e:	64bb      	str	r3, [r7, #72]	@ 0x48
 8008d20:	bf00      	nop
 8008d22:	6cbb      	ldr	r3, [r7, #72]	@ 0x48
 8008d24:	4618      	mov	r0, r3
 8008d26:	3750      	adds	r7, #80	@ 0x50
 8008d28:	46bd      	mov	sp, r7
 8008d2a:	e8bd 8fb0 	ldmia.w	sp!, {r4, r5, r7, r8, r9, sl, fp, pc}
 8008d2e:	bf00      	nop
 8008d30:	40023800 	.word	0x40023800
 8008d34:	00f42400 	.word	0x00f42400
 8008d38:	007a1200 	.word	0x007a1200

08008d3c <atoi>:
 8008d3c:	220a      	movs	r2, #10
 8008d3e:	2100      	movs	r1, #0
 8008d40:	f000 b87a 	b.w	8008e38 <strtol>

08008d44 <_strtol_l.isra.0>:
 8008d44:	2b24      	cmp	r3, #36	@ 0x24
 8008d46:	e92d 47f0 	stmdb	sp!, {r4, r5, r6, r7, r8, r9, sl, lr}
 8008d4a:	4686      	mov	lr, r0
 8008d4c:	4690      	mov	r8, r2
 8008d4e:	d801      	bhi.n	8008d54 <_strtol_l.isra.0+0x10>
 8008d50:	2b01      	cmp	r3, #1
 8008d52:	d106      	bne.n	8008d62 <_strtol_l.isra.0+0x1e>
 8008d54:	f000 fb60 	bl	8009418 <__errno>
 8008d58:	2316      	movs	r3, #22
 8008d5a:	6003      	str	r3, [r0, #0]
 8008d5c:	2000      	movs	r0, #0
 8008d5e:	e8bd 87f0 	ldmia.w	sp!, {r4, r5, r6, r7, r8, r9, sl, pc}
 8008d62:	4834      	ldr	r0, [pc, #208]	@ (8008e34 <_strtol_l.isra.0+0xf0>)
 8008d64:	460d      	mov	r5, r1
 8008d66:	462a      	mov	r2, r5
 8008d68:	f815 4b01 	ldrb.w	r4, [r5], #1
 8008d6c:	5d06      	ldrb	r6, [r0, r4]
 8008d6e:	f016 0608 	ands.w	r6, r6, #8
 8008d72:	d1f8      	bne.n	8008d66 <_strtol_l.isra.0+0x22>
 8008d74:	2c2d      	cmp	r4, #45	@ 0x2d
 8008d76:	d110      	bne.n	8008d9a <_strtol_l.isra.0+0x56>
 8008d78:	782c      	ldrb	r4, [r5, #0]
 8008d7a:	2601      	movs	r6, #1
 8008d7c:	1c95      	adds	r5, r2, #2
 8008d7e:	f033 0210 	bics.w	r2, r3, #16
 8008d82:	d115      	bne.n	8008db0 <_strtol_l.isra.0+0x6c>
 8008d84:	2c30      	cmp	r4, #48	@ 0x30
 8008d86:	d10d      	bne.n	8008da4 <_strtol_l.isra.0+0x60>
 8008d88:	782a      	ldrb	r2, [r5, #0]
 8008d8a:	f002 02df 	and.w	r2, r2, #223	@ 0xdf
 8008d8e:	2a58      	cmp	r2, #88	@ 0x58
 8008d90:	d108      	bne.n	8008da4 <_strtol_l.isra.0+0x60>
 8008d92:	786c      	ldrb	r4, [r5, #1]
 8008d94:	3502      	adds	r5, #2
 8008d96:	2310      	movs	r3, #16
 8008d98:	e00a      	b.n	8008db0 <_strtol_l.isra.0+0x6c>
 8008d9a:	2c2b      	cmp	r4, #43	@ 0x2b
 8008d9c:	bf04      	itt	eq
 8008d9e:	782c      	ldrbeq	r4, [r5, #0]
 8008da0:	1c95      	addeq	r5, r2, #2
 8008da2:	e7ec      	b.n	8008d7e <_strtol_l.isra.0+0x3a>
 8008da4:	2b00      	cmp	r3, #0
 8008da6:	d1f6      	bne.n	8008d96 <_strtol_l.isra.0+0x52>
 8008da8:	2c30      	cmp	r4, #48	@ 0x30
 8008daa:	bf14      	ite	ne
 8008dac:	230a      	movne	r3, #10
 8008dae:	2308      	moveq	r3, #8
 8008db0:	f106 4c00 	add.w	ip, r6, #2147483648	@ 0x80000000
 8008db4:	f10c 3cff 	add.w	ip, ip, #4294967295
 8008db8:	2200      	movs	r2, #0
 8008dba:	fbbc f9f3 	udiv	r9, ip, r3
 8008dbe:	4610      	mov	r0, r2
 8008dc0:	fb03 ca19 	mls	sl, r3, r9, ip
 8008dc4:	f1a4 0730 	sub.w	r7, r4, #48	@ 0x30
 8008dc8:	2f09      	cmp	r7, #9
 8008dca:	d80f      	bhi.n	8008dec <_strtol_l.isra.0+0xa8>
 8008dcc:	463c      	mov	r4, r7
 8008dce:	42a3      	cmp	r3, r4
 8008dd0:	dd1b      	ble.n	8008e0a <_strtol_l.isra.0+0xc6>
 8008dd2:	1c57      	adds	r7, r2, #1
 8008dd4:	d007      	beq.n	8008de6 <_strtol_l.isra.0+0xa2>
 8008dd6:	4581      	cmp	r9, r0
 8008dd8:	d314      	bcc.n	8008e04 <_strtol_l.isra.0+0xc0>
 8008dda:	d101      	bne.n	8008de0 <_strtol_l.isra.0+0x9c>
 8008ddc:	45a2      	cmp	sl, r4
 8008dde:	db11      	blt.n	8008e04 <_strtol_l.isra.0+0xc0>
 8008de0:	fb00 4003 	mla	r0, r0, r3, r4
 8008de4:	2201      	movs	r2, #1
 8008de6:	f815 4b01 	ldrb.w	r4, [r5], #1
 8008dea:	e7eb      	b.n	8008dc4 <_strtol_l.isra.0+0x80>
 8008dec:	f1a4 0741 	sub.w	r7, r4, #65	@ 0x41
 8008df0:	2f19      	cmp	r7, #25
 8008df2:	d801      	bhi.n	8008df8 <_strtol_l.isra.0+0xb4>
 8008df4:	3c37      	subs	r4, #55	@ 0x37
 8008df6:	e7ea      	b.n	8008dce <_strtol_l.isra.0+0x8a>
 8008df8:	f1a4 0761 	sub.w	r7, r4, #97	@ 0x61
 8008dfc:	2f19      	cmp	r7, #25
 8008dfe:	d804      	bhi.n	8008e0a <_strtol_l.isra.0+0xc6>
 8008e00:	3c57      	subs	r4, #87	@ 0x57
 8008e02:	e7e4      	b.n	8008dce <_strtol_l.isra.0+0x8a>
 8008e04:	f04f 32ff 	mov.w	r2, #4294967295
 8008e08:	e7ed      	b.n	8008de6 <_strtol_l.isra.0+0xa2>
 8008e0a:	1c53      	adds	r3, r2, #1
 8008e0c:	d108      	bne.n	8008e20 <_strtol_l.isra.0+0xdc>
 8008e0e:	2322      	movs	r3, #34	@ 0x22
 8008e10:	f8ce 3000 	str.w	r3, [lr]
 8008e14:	4660      	mov	r0, ip
 8008e16:	f1b8 0f00 	cmp.w	r8, #0
 8008e1a:	d0a0      	beq.n	8008d5e <_strtol_l.isra.0+0x1a>
 8008e1c:	1e69      	subs	r1, r5, #1
 8008e1e:	e006      	b.n	8008e2e <_strtol_l.isra.0+0xea>
 8008e20:	b106      	cbz	r6, 8008e24 <_strtol_l.isra.0+0xe0>
 8008e22:	4240      	negs	r0, r0
 8008e24:	f1b8 0f00 	cmp.w	r8, #0
 8008e28:	d099      	beq.n	8008d5e <_strtol_l.isra.0+0x1a>
 8008e2a:	2a00      	cmp	r2, #0
 8008e2c:	d1f6      	bne.n	8008e1c <_strtol_l.isra.0+0xd8>
 8008e2e:	f8c8 1000 	str.w	r1, [r8]
 8008e32:	e794      	b.n	8008d5e <_strtol_l.isra.0+0x1a>
 8008e34:	080435ed 	.word	0x080435ed

08008e38 <strtol>:
 8008e38:	4613      	mov	r3, r2
 8008e3a:	460a      	mov	r2, r1
 8008e3c:	4601      	mov	r1, r0
 8008e3e:	4802      	ldr	r0, [pc, #8]	@ (8008e48 <strtol+0x10>)
 8008e40:	6800      	ldr	r0, [r0, #0]
 8008e42:	f7ff bf7f 	b.w	8008d44 <_strtol_l.isra.0>
 8008e46:	bf00      	nop
 8008e48:	200005a4 	.word	0x200005a4

08008e4c <std>:
 8008e4c:	2300      	movs	r3, #0
 8008e4e:	b510      	push	{r4, lr}
 8008e50:	4604      	mov	r4, r0
 8008e52:	e9c0 3300 	strd	r3, r3, [r0]
 8008e56:	e9c0 3304 	strd	r3, r3, [r0, #16]
 8008e5a:	6083      	str	r3, [r0, #8]
 8008e5c:	8181      	strh	r1, [r0, #12]
 8008e5e:	6643      	str	r3, [r0, #100]	@ 0x64
 8008e60:	81c2      	strh	r2, [r0, #14]
 8008e62:	6183      	str	r3, [r0, #24]
 8008e64:	4619      	mov	r1, r3
 8008e66:	2208      	movs	r2, #8
 8008e68:	305c      	adds	r0, #92	@ 0x5c
 8008e6a:	f000 fa6b 	bl	8009344 <memset>
 8008e6e:	4b0d      	ldr	r3, [pc, #52]	@ (8008ea4 <std+0x58>)
 8008e70:	6263      	str	r3, [r4, #36]	@ 0x24
 8008e72:	4b0d      	ldr	r3, [pc, #52]	@ (8008ea8 <std+0x5c>)
 8008e74:	62a3      	str	r3, [r4, #40]	@ 0x28
 8008e76:	4b0d      	ldr	r3, [pc, #52]	@ (8008eac <std+0x60>)
 8008e78:	62e3      	str	r3, [r4, #44]	@ 0x2c
 8008e7a:	4b0d      	ldr	r3, [pc, #52]	@ (8008eb0 <std+0x64>)
 8008e7c:	6323      	str	r3, [r4, #48]	@ 0x30
 8008e7e:	4b0d      	ldr	r3, [pc, #52]	@ (8008eb4 <std+0x68>)
 8008e80:	6224      	str	r4, [r4, #32]
 8008e82:	429c      	cmp	r4, r3
 8008e84:	d006      	beq.n	8008e94 <std+0x48>
 8008e86:	f103 0268 	add.w	r2, r3, #104	@ 0x68
 8008e8a:	4294      	cmp	r4, r2
 8008e8c:	d002      	beq.n	8008e94 <std+0x48>
 8008e8e:	33d0      	adds	r3, #208	@ 0xd0
 8008e90:	429c      	cmp	r4, r3
 8008e92:	d105      	bne.n	8008ea0 <std+0x54>
 8008e94:	f104 0058 	add.w	r0, r4, #88	@ 0x58
 8008e98:	e8bd 4010 	ldmia.w	sp!, {r4, lr}
 8008e9c:	f000 bae6 	b.w	800946c <__retarget_lock_init_recursive>
 8008ea0:	bd10      	pop	{r4, pc}
 8008ea2:	bf00      	nop
 8008ea4:	08009195 	.word	0x08009195
 8008ea8:	080091b7 	.word	0x080091b7
 8008eac:	080091ef 	.word	0x080091ef
 8008eb0:	08009213 	.word	0x08009213
 8008eb4:	200028a8 	.word	0x200028a8

08008eb8 <stdio_exit_handler>:
 8008eb8:	4a02      	ldr	r2, [pc, #8]	@ (8008ec4 <stdio_exit_handler+0xc>)
 8008eba:	4903      	ldr	r1, [pc, #12]	@ (8008ec8 <stdio_exit_handler+0x10>)
 8008ebc:	4803      	ldr	r0, [pc, #12]	@ (8008ecc <stdio_exit_handler+0x14>)
 8008ebe:	f000 b869 	b.w	8008f94 <_fwalk_sglue>
 8008ec2:	bf00      	nop
 8008ec4:	20000598 	.word	0x20000598
 8008ec8:	08009fd5 	.word	0x08009fd5
 8008ecc:	200005a8 	.word	0x200005a8

08008ed0 <cleanup_stdio>:
 8008ed0:	6841      	ldr	r1, [r0, #4]
 8008ed2:	4b0c      	ldr	r3, [pc, #48]	@ (8008f04 <cleanup_stdio+0x34>)
 8008ed4:	4299      	cmp	r1, r3
 8008ed6:	b510      	push	{r4, lr}
 8008ed8:	4604      	mov	r4, r0
 8008eda:	d001      	beq.n	8008ee0 <cleanup_stdio+0x10>
 8008edc:	f001 f87a 	bl	8009fd4 <_fflush_r>
 8008ee0:	68a1      	ldr	r1, [r4, #8]
 8008ee2:	4b09      	ldr	r3, [pc, #36]	@ (8008f08 <cleanup_stdio+0x38>)
 8008ee4:	4299      	cmp	r1, r3
 8008ee6:	d002      	beq.n	8008eee <cleanup_stdio+0x1e>
 8008ee8:	4620      	mov	r0, r4
 8008eea:	f001 f873 	bl	8009fd4 <_fflush_r>
 8008eee:	68e1      	ldr	r1, [r4, #12]
 8008ef0:	4b06      	ldr	r3, [pc, #24]	@ (8008f0c <cleanup_stdio+0x3c>)
 8008ef2:	4299      	cmp	r1, r3
 8008ef4:	d004      	beq.n	8008f00 <cleanup_stdio+0x30>
 8008ef6:	4620      	mov	r0, r4
 8008ef8:	e8bd 4010 	ldmia.w	sp!, {r4, lr}
 8008efc:	f001 b86a 	b.w	8009fd4 <_fflush_r>
 8008f00:	bd10      	pop	{r4, pc}
 8008f02:	bf00      	nop
 8008f04:	200028a8 	.word	0x200028a8
 8008f08:	20002910 	.word	0x20002910
 8008f0c:	20002978 	.word	0x20002978

08008f10 <global_stdio_init.part.0>:
 8008f10:	b510      	push	{r4, lr}
 8008f12:	4b0b      	ldr	r3, [pc, #44]	@ (8008f40 <global_stdio_init.part.0+0x30>)
 8008f14:	4c0b      	ldr	r4, [pc, #44]	@ (8008f44 <global_stdio_init.part.0+0x34>)
 8008f16:	4a0c      	ldr	r2, [pc, #48]	@ (8008f48 <global_stdio_init.part.0+0x38>)
 8008f18:	601a      	str	r2, [r3, #0]
 8008f1a:	4620      	mov	r0, r4
 8008f1c:	2200      	movs	r2, #0
 8008f1e:	2104      	movs	r1, #4
 8008f20:	f7ff ff94 	bl	8008e4c <std>
 8008f24:	f104 0068 	add.w	r0, r4, #104	@ 0x68
 8008f28:	2201      	movs	r2, #1
 8008f2a:	2109      	movs	r1, #9
 8008f2c:	f7ff ff8e 	bl	8008e4c <std>
 8008f30:	f104 00d0 	add.w	r0, r4, #208	@ 0xd0
 8008f34:	2202      	movs	r2, #2
 8008f36:	e8bd 4010 	ldmia.w	sp!, {r4, lr}
 8008f3a:	2112      	movs	r1, #18
 8008f3c:	f7ff bf86 	b.w	8008e4c <std>
 8008f40:	200029e0 	.word	0x200029e0
 8008f44:	200028a8 	.word	0x200028a8
 8008f48:	08008eb9 	.word	0x08008eb9

08008f4c <__sfp_lock_acquire>:
 8008f4c:	4801      	ldr	r0, [pc, #4]	@ (8008f54 <__sfp_lock_acquire+0x8>)
 8008f4e:	f000 ba8e 	b.w	800946e <__retarget_lock_acquire_recursive>
 8008f52:	bf00      	nop
 8008f54:	200029e9 	.word	0x200029e9

08008f58 <__sfp_lock_release>:
 8008f58:	4801      	ldr	r0, [pc, #4]	@ (8008f60 <__sfp_lock_release+0x8>)
 8008f5a:	f000 ba89 	b.w	8009470 <__retarget_lock_release_recursive>
 8008f5e:	bf00      	nop
 8008f60:	200029e9 	.word	0x200029e9

08008f64 <__sinit>:
 8008f64:	b510      	push	{r4, lr}
 8008f66:	4604      	mov	r4, r0
 8008f68:	f7ff fff0 	bl	8008f4c <__sfp_lock_acquire>
 8008f6c:	6a23      	ldr	r3, [r4, #32]
 8008f6e:	b11b      	cbz	r3, 8008f78 <__sinit+0x14>
 8008f70:	e8bd 4010 	ldmia.w	sp!, {r4, lr}
 8008f74:	f7ff bff0 	b.w	8008f58 <__sfp_lock_release>
 8008f78:	4b04      	ldr	r3, [pc, #16]	@ (8008f8c <__sinit+0x28>)
 8008f7a:	6223      	str	r3, [r4, #32]
 8008f7c:	4b04      	ldr	r3, [pc, #16]	@ (8008f90 <__sinit+0x2c>)
 8008f7e:	681b      	ldr	r3, [r3, #0]
 8008f80:	2b00      	cmp	r3, #0
 8008f82:	d1f5      	bne.n	8008f70 <__sinit+0xc>
 8008f84:	f7ff ffc4 	bl	8008f10 <global_stdio_init.part.0>
 8008f88:	e7f2      	b.n	8008f70 <__sinit+0xc>
 8008f8a:	bf00      	nop
 8008f8c:	08008ed1 	.word	0x08008ed1
 8008f90:	200029e0 	.word	0x200029e0

08008f94 <_fwalk_sglue>:
 8008f94:	e92d 43f8 	stmdb	sp!, {r3, r4, r5, r6, r7, r8, r9, lr}
 8008f98:	4607      	mov	r7, r0
 8008f9a:	4688      	mov	r8, r1
 8008f9c:	4614      	mov	r4, r2
 8008f9e:	2600      	movs	r6, #0
 8008fa0:	e9d4 9501 	ldrd	r9, r5, [r4, #4]
 8008fa4:	f1b9 0901 	subs.w	r9, r9, #1
 8008fa8:	d505      	bpl.n	8008fb6 <_fwalk_sglue+0x22>
 8008faa:	6824      	ldr	r4, [r4, #0]
 8008fac:	2c00      	cmp	r4, #0
 8008fae:	d1f7      	bne.n	8008fa0 <_fwalk_sglue+0xc>
 8008fb0:	4630      	mov	r0, r6
 8008fb2:	e8bd 83f8 	ldmia.w	sp!, {r3, r4, r5, r6, r7, r8, r9, pc}
 8008fb6:	89ab      	ldrh	r3, [r5, #12]
 8008fb8:	2b01      	cmp	r3, #1
 8008fba:	d907      	bls.n	8008fcc <_fwalk_sglue+0x38>
 8008fbc:	f9b5 300e 	ldrsh.w	r3, [r5, #14]
 8008fc0:	3301      	adds	r3, #1
 8008fc2:	d003      	beq.n	8008fcc <_fwalk_sglue+0x38>
 8008fc4:	4629      	mov	r1, r5
 8008fc6:	4638      	mov	r0, r7
 8008fc8:	47c0      	blx	r8
 8008fca:	4306      	orrs	r6, r0
 8008fcc:	3568      	adds	r5, #104	@ 0x68
 8008fce:	e7e9      	b.n	8008fa4 <_fwalk_sglue+0x10>

08008fd0 <getc>:
 8008fd0:	b538      	push	{r3, r4, r5, lr}
 8008fd2:	4b16      	ldr	r3, [pc, #88]	@ (800902c <getc+0x5c>)
 8008fd4:	681d      	ldr	r5, [r3, #0]
 8008fd6:	4604      	mov	r4, r0
 8008fd8:	b125      	cbz	r5, 8008fe4 <getc+0x14>
 8008fda:	6a2b      	ldr	r3, [r5, #32]
 8008fdc:	b913      	cbnz	r3, 8008fe4 <getc+0x14>
 8008fde:	4628      	mov	r0, r5
 8008fe0:	f7ff ffc0 	bl	8008f64 <__sinit>
 8008fe4:	6e63      	ldr	r3, [r4, #100]	@ 0x64
 8008fe6:	07d8      	lsls	r0, r3, #31
 8008fe8:	d405      	bmi.n	8008ff6 <getc+0x26>
 8008fea:	89a3      	ldrh	r3, [r4, #12]
 8008fec:	0599      	lsls	r1, r3, #22
 8008fee:	d402      	bmi.n	8008ff6 <getc+0x26>
 8008ff0:	6da0      	ldr	r0, [r4, #88]	@ 0x58
 8008ff2:	f000 fa3c 	bl	800946e <__retarget_lock_acquire_recursive>
 8008ff6:	6863      	ldr	r3, [r4, #4]
 8008ff8:	3b01      	subs	r3, #1
 8008ffa:	2b00      	cmp	r3, #0
 8008ffc:	6063      	str	r3, [r4, #4]
 8008ffe:	da0f      	bge.n	8009020 <getc+0x50>
 8009000:	4628      	mov	r0, r5
 8009002:	4621      	mov	r1, r4
 8009004:	f000 f88c 	bl	8009120 <__srget_r>
 8009008:	4605      	mov	r5, r0
 800900a:	6e63      	ldr	r3, [r4, #100]	@ 0x64
 800900c:	07da      	lsls	r2, r3, #31
 800900e:	d405      	bmi.n	800901c <getc+0x4c>
 8009010:	89a3      	ldrh	r3, [r4, #12]
 8009012:	059b      	lsls	r3, r3, #22
 8009014:	d402      	bmi.n	800901c <getc+0x4c>
 8009016:	6da0      	ldr	r0, [r4, #88]	@ 0x58
 8009018:	f000 fa2a 	bl	8009470 <__retarget_lock_release_recursive>
 800901c:	4628      	mov	r0, r5
 800901e:	bd38      	pop	{r3, r4, r5, pc}
 8009020:	6823      	ldr	r3, [r4, #0]
 8009022:	1c5a      	adds	r2, r3, #1
 8009024:	6022      	str	r2, [r4, #0]
 8009026:	781d      	ldrb	r5, [r3, #0]
 8009028:	e7ef      	b.n	800900a <getc+0x3a>
 800902a:	bf00      	nop
 800902c:	200005a4 	.word	0x200005a4

08009030 <iprintf>:
 8009030:	b40f      	push	{r0, r1, r2, r3}
 8009032:	b507      	push	{r0, r1, r2, lr}
 8009034:	4906      	ldr	r1, [pc, #24]	@ (8009050 <iprintf+0x20>)
 8009036:	ab04      	add	r3, sp, #16
 8009038:	6808      	ldr	r0, [r1, #0]
 800903a:	f853 2b04 	ldr.w	r2, [r3], #4
 800903e:	6881      	ldr	r1, [r0, #8]
 8009040:	9301      	str	r3, [sp, #4]
 8009042:	f000 fc9f 	bl	8009984 <_vfiprintf_r>
 8009046:	b003      	add	sp, #12
 8009048:	f85d eb04 	ldr.w	lr, [sp], #4
 800904c:	b004      	add	sp, #16
 800904e:	4770      	bx	lr
 8009050:	200005a4 	.word	0x200005a4

08009054 <putchar>:
 8009054:	4b02      	ldr	r3, [pc, #8]	@ (8009060 <putchar+0xc>)
 8009056:	4601      	mov	r1, r0
 8009058:	6818      	ldr	r0, [r3, #0]
 800905a:	6882      	ldr	r2, [r0, #8]
 800905c:	f001 b844 	b.w	800a0e8 <_putc_r>
 8009060:	200005a4 	.word	0x200005a4

08009064 <_puts_r>:
 8009064:	6a03      	ldr	r3, [r0, #32]
 8009066:	b570      	push	{r4, r5, r6, lr}
 8009068:	6884      	ldr	r4, [r0, #8]
 800906a:	4605      	mov	r5, r0
 800906c:	460e      	mov	r6, r1
 800906e:	b90b      	cbnz	r3, 8009074 <_puts_r+0x10>
 8009070:	f7ff ff78 	bl	8008f64 <__sinit>
 8009074:	6e63      	ldr	r3, [r4, #100]	@ 0x64
 8009076:	07db      	lsls	r3, r3, #31
 8009078:	d405      	bmi.n	8009086 <_puts_r+0x22>
 800907a:	89a3      	ldrh	r3, [r4, #12]
 800907c:	0598      	lsls	r0, r3, #22
 800907e:	d402      	bmi.n	8009086 <_puts_r+0x22>
 8009080:	6da0      	ldr	r0, [r4, #88]	@ 0x58
 8009082:	f000 f9f4 	bl	800946e <__retarget_lock_acquire_recursive>
 8009086:	89a3      	ldrh	r3, [r4, #12]
 8009088:	0719      	lsls	r1, r3, #28
 800908a:	d502      	bpl.n	8009092 <_puts_r+0x2e>
 800908c:	6923      	ldr	r3, [r4, #16]
 800908e:	2b00      	cmp	r3, #0
 8009090:	d135      	bne.n	80090fe <_puts_r+0x9a>
 8009092:	4621      	mov	r1, r4
 8009094:	4628      	mov	r0, r5
 8009096:	f000 f8ff 	bl	8009298 <__swsetup_r>
 800909a:	b380      	cbz	r0, 80090fe <_puts_r+0x9a>
 800909c:	f04f 35ff 	mov.w	r5, #4294967295
 80090a0:	6e63      	ldr	r3, [r4, #100]	@ 0x64
 80090a2:	07da      	lsls	r2, r3, #31
 80090a4:	d405      	bmi.n	80090b2 <_puts_r+0x4e>
 80090a6:	89a3      	ldrh	r3, [r4, #12]
 80090a8:	059b      	lsls	r3, r3, #22
 80090aa:	d402      	bmi.n	80090b2 <_puts_r+0x4e>
 80090ac:	6da0      	ldr	r0, [r4, #88]	@ 0x58
 80090ae:	f000 f9df 	bl	8009470 <__retarget_lock_release_recursive>
 80090b2:	4628      	mov	r0, r5
 80090b4:	bd70      	pop	{r4, r5, r6, pc}
 80090b6:	2b00      	cmp	r3, #0
 80090b8:	da04      	bge.n	80090c4 <_puts_r+0x60>
 80090ba:	69a2      	ldr	r2, [r4, #24]
 80090bc:	429a      	cmp	r2, r3
 80090be:	dc17      	bgt.n	80090f0 <_puts_r+0x8c>
 80090c0:	290a      	cmp	r1, #10
 80090c2:	d015      	beq.n	80090f0 <_puts_r+0x8c>
 80090c4:	6823      	ldr	r3, [r4, #0]
 80090c6:	1c5a      	adds	r2, r3, #1
 80090c8:	6022      	str	r2, [r4, #0]
 80090ca:	7019      	strb	r1, [r3, #0]
 80090cc:	68a3      	ldr	r3, [r4, #8]
 80090ce:	f816 1f01 	ldrb.w	r1, [r6, #1]!
 80090d2:	3b01      	subs	r3, #1
 80090d4:	60a3      	str	r3, [r4, #8]
 80090d6:	2900      	cmp	r1, #0
 80090d8:	d1ed      	bne.n	80090b6 <_puts_r+0x52>
 80090da:	2b00      	cmp	r3, #0
 80090dc:	da11      	bge.n	8009102 <_puts_r+0x9e>
 80090de:	4622      	mov	r2, r4
 80090e0:	210a      	movs	r1, #10
 80090e2:	4628      	mov	r0, r5
 80090e4:	f000 f899 	bl	800921a <__swbuf_r>
 80090e8:	3001      	adds	r0, #1
 80090ea:	d0d7      	beq.n	800909c <_puts_r+0x38>
 80090ec:	250a      	movs	r5, #10
 80090ee:	e7d7      	b.n	80090a0 <_puts_r+0x3c>
 80090f0:	4622      	mov	r2, r4
 80090f2:	4628      	mov	r0, r5
 80090f4:	f000 f891 	bl	800921a <__swbuf_r>
 80090f8:	3001      	adds	r0, #1
 80090fa:	d1e7      	bne.n	80090cc <_puts_r+0x68>
 80090fc:	e7ce      	b.n	800909c <_puts_r+0x38>
 80090fe:	3e01      	subs	r6, #1
 8009100:	e7e4      	b.n	80090cc <_puts_r+0x68>
 8009102:	6823      	ldr	r3, [r4, #0]
 8009104:	1c5a      	adds	r2, r3, #1
 8009106:	6022      	str	r2, [r4, #0]
 8009108:	220a      	movs	r2, #10
 800910a:	701a      	strb	r2, [r3, #0]
 800910c:	e7ee      	b.n	80090ec <_puts_r+0x88>
	...

08009110 <puts>:
 8009110:	4b02      	ldr	r3, [pc, #8]	@ (800911c <puts+0xc>)
 8009112:	4601      	mov	r1, r0
 8009114:	6818      	ldr	r0, [r3, #0]
 8009116:	f7ff bfa5 	b.w	8009064 <_puts_r>
 800911a:	bf00      	nop
 800911c:	200005a4 	.word	0x200005a4

08009120 <__srget_r>:
 8009120:	b538      	push	{r3, r4, r5, lr}
 8009122:	460c      	mov	r4, r1
 8009124:	4605      	mov	r5, r0
 8009126:	b118      	cbz	r0, 8009130 <__srget_r+0x10>
 8009128:	6a03      	ldr	r3, [r0, #32]
 800912a:	b90b      	cbnz	r3, 8009130 <__srget_r+0x10>
 800912c:	f7ff ff1a 	bl	8008f64 <__sinit>
 8009130:	4621      	mov	r1, r4
 8009132:	4628      	mov	r0, r5
 8009134:	f001 f81a 	bl	800a16c <__srefill_r>
 8009138:	b938      	cbnz	r0, 800914a <__srget_r+0x2a>
 800913a:	6863      	ldr	r3, [r4, #4]
 800913c:	3b01      	subs	r3, #1
 800913e:	6063      	str	r3, [r4, #4]
 8009140:	6823      	ldr	r3, [r4, #0]
 8009142:	1c5a      	adds	r2, r3, #1
 8009144:	6022      	str	r2, [r4, #0]
 8009146:	7818      	ldrb	r0, [r3, #0]
 8009148:	bd38      	pop	{r3, r4, r5, pc}
 800914a:	f04f 30ff 	mov.w	r0, #4294967295
 800914e:	e7fb      	b.n	8009148 <__srget_r+0x28>

08009150 <siprintf>:
 8009150:	b40e      	push	{r1, r2, r3}
 8009152:	b510      	push	{r4, lr}
 8009154:	b09d      	sub	sp, #116	@ 0x74
 8009156:	ab1f      	add	r3, sp, #124	@ 0x7c
 8009158:	9002      	str	r0, [sp, #8]
 800915a:	9006      	str	r0, [sp, #24]
 800915c:	f06f 4100 	mvn.w	r1, #2147483648	@ 0x80000000
 8009160:	480a      	ldr	r0, [pc, #40]	@ (800918c <siprintf+0x3c>)
 8009162:	9107      	str	r1, [sp, #28]
 8009164:	9104      	str	r1, [sp, #16]
 8009166:	490a      	ldr	r1, [pc, #40]	@ (8009190 <siprintf+0x40>)
 8009168:	f853 2b04 	ldr.w	r2, [r3], #4
 800916c:	9105      	str	r1, [sp, #20]
 800916e:	2400      	movs	r4, #0
 8009170:	a902      	add	r1, sp, #8
 8009172:	6800      	ldr	r0, [r0, #0]
 8009174:	9301      	str	r3, [sp, #4]
 8009176:	941b      	str	r4, [sp, #108]	@ 0x6c
 8009178:	f000 fade 	bl	8009738 <_svfiprintf_r>
 800917c:	9b02      	ldr	r3, [sp, #8]
 800917e:	701c      	strb	r4, [r3, #0]
 8009180:	b01d      	add	sp, #116	@ 0x74
 8009182:	e8bd 4010 	ldmia.w	sp!, {r4, lr}
 8009186:	b003      	add	sp, #12
 8009188:	4770      	bx	lr
 800918a:	bf00      	nop
 800918c:	200005a4 	.word	0x200005a4
 8009190:	ffff0208 	.word	0xffff0208

08009194 <__sread>:
 8009194:	b510      	push	{r4, lr}
 8009196:	460c      	mov	r4, r1
 8009198:	f9b1 100e 	ldrsh.w	r1, [r1, #14]
 800919c:	f000 f918 	bl	80093d0 <_read_r>
 80091a0:	2800      	cmp	r0, #0
 80091a2:	bfab      	itete	ge
 80091a4:	6d63      	ldrge	r3, [r4, #84]	@ 0x54
 80091a6:	89a3      	ldrhlt	r3, [r4, #12]
 80091a8:	181b      	addge	r3, r3, r0
 80091aa:	f423 5380 	biclt.w	r3, r3, #4096	@ 0x1000
 80091ae:	bfac      	ite	ge
 80091b0:	6563      	strge	r3, [r4, #84]	@ 0x54
 80091b2:	81a3      	strhlt	r3, [r4, #12]
 80091b4:	bd10      	pop	{r4, pc}

080091b6 <__swrite>:
 80091b6:	e92d 41f0 	stmdb	sp!, {r4, r5, r6, r7, r8, lr}
 80091ba:	461f      	mov	r7, r3
 80091bc:	898b      	ldrh	r3, [r1, #12]
 80091be:	05db      	lsls	r3, r3, #23
 80091c0:	4605      	mov	r5, r0
 80091c2:	460c      	mov	r4, r1
 80091c4:	4616      	mov	r6, r2
 80091c6:	d505      	bpl.n	80091d4 <__swrite+0x1e>
 80091c8:	f9b1 100e 	ldrsh.w	r1, [r1, #14]
 80091cc:	2302      	movs	r3, #2
 80091ce:	2200      	movs	r2, #0
 80091d0:	f000 f8ec 	bl	80093ac <_lseek_r>
 80091d4:	89a3      	ldrh	r3, [r4, #12]
 80091d6:	f9b4 100e 	ldrsh.w	r1, [r4, #14]
 80091da:	f423 5380 	bic.w	r3, r3, #4096	@ 0x1000
 80091de:	81a3      	strh	r3, [r4, #12]
 80091e0:	4632      	mov	r2, r6
 80091e2:	463b      	mov	r3, r7
 80091e4:	4628      	mov	r0, r5
 80091e6:	e8bd 41f0 	ldmia.w	sp!, {r4, r5, r6, r7, r8, lr}
 80091ea:	f000 b903 	b.w	80093f4 <_write_r>

080091ee <__sseek>:
 80091ee:	b510      	push	{r4, lr}
 80091f0:	460c      	mov	r4, r1
 80091f2:	f9b1 100e 	ldrsh.w	r1, [r1, #14]
 80091f6:	f000 f8d9 	bl	80093ac <_lseek_r>
 80091fa:	1c43      	adds	r3, r0, #1
 80091fc:	89a3      	ldrh	r3, [r4, #12]
 80091fe:	bf15      	itete	ne
 8009200:	6560      	strne	r0, [r4, #84]	@ 0x54
 8009202:	f423 5380 	biceq.w	r3, r3, #4096	@ 0x1000
 8009206:	f443 5380 	orrne.w	r3, r3, #4096	@ 0x1000
 800920a:	81a3      	strheq	r3, [r4, #12]
 800920c:	bf18      	it	ne
 800920e:	81a3      	strhne	r3, [r4, #12]
 8009210:	bd10      	pop	{r4, pc}

08009212 <__sclose>:
 8009212:	f9b1 100e 	ldrsh.w	r1, [r1, #14]
 8009216:	f000 b8b9 	b.w	800938c <_close_r>

0800921a <__swbuf_r>:
 800921a:	b5f8      	push	{r3, r4, r5, r6, r7, lr}
 800921c:	460e      	mov	r6, r1
 800921e:	4614      	mov	r4, r2
 8009220:	4605      	mov	r5, r0
 8009222:	b118      	cbz	r0, 800922c <__swbuf_r+0x12>
 8009224:	6a03      	ldr	r3, [r0, #32]
 8009226:	b90b      	cbnz	r3, 800922c <__swbuf_r+0x12>
 8009228:	f7ff fe9c 	bl	8008f64 <__sinit>
 800922c:	69a3      	ldr	r3, [r4, #24]
 800922e:	60a3      	str	r3, [r4, #8]
 8009230:	89a3      	ldrh	r3, [r4, #12]
 8009232:	071a      	lsls	r2, r3, #28
 8009234:	d501      	bpl.n	800923a <__swbuf_r+0x20>
 8009236:	6923      	ldr	r3, [r4, #16]
 8009238:	b943      	cbnz	r3, 800924c <__swbuf_r+0x32>
 800923a:	4621      	mov	r1, r4
 800923c:	4628      	mov	r0, r5
 800923e:	f000 f82b 	bl	8009298 <__swsetup_r>
 8009242:	b118      	cbz	r0, 800924c <__swbuf_r+0x32>
 8009244:	f04f 37ff 	mov.w	r7, #4294967295
 8009248:	4638      	mov	r0, r7
 800924a:	bdf8      	pop	{r3, r4, r5, r6, r7, pc}
 800924c:	6823      	ldr	r3, [r4, #0]
 800924e:	6922      	ldr	r2, [r4, #16]
 8009250:	1a98      	subs	r0, r3, r2
 8009252:	6963      	ldr	r3, [r4, #20]
 8009254:	b2f6      	uxtb	r6, r6
 8009256:	4283      	cmp	r3, r0
 8009258:	4637      	mov	r7, r6
 800925a:	dc05      	bgt.n	8009268 <__swbuf_r+0x4e>
 800925c:	4621      	mov	r1, r4
 800925e:	4628      	mov	r0, r5
 8009260:	f000 feb8 	bl	8009fd4 <_fflush_r>
 8009264:	2800      	cmp	r0, #0
 8009266:	d1ed      	bne.n	8009244 <__swbuf_r+0x2a>
 8009268:	68a3      	ldr	r3, [r4, #8]
 800926a:	3b01      	subs	r3, #1
 800926c:	60a3      	str	r3, [r4, #8]
 800926e:	6823      	ldr	r3, [r4, #0]
 8009270:	1c5a      	adds	r2, r3, #1
 8009272:	6022      	str	r2, [r4, #0]
 8009274:	701e      	strb	r6, [r3, #0]
 8009276:	6962      	ldr	r2, [r4, #20]
 8009278:	1c43      	adds	r3, r0, #1
 800927a:	429a      	cmp	r2, r3
 800927c:	d004      	beq.n	8009288 <__swbuf_r+0x6e>
 800927e:	89a3      	ldrh	r3, [r4, #12]
 8009280:	07db      	lsls	r3, r3, #31
 8009282:	d5e1      	bpl.n	8009248 <__swbuf_r+0x2e>
 8009284:	2e0a      	cmp	r6, #10
 8009286:	d1df      	bne.n	8009248 <__swbuf_r+0x2e>
 8009288:	4621      	mov	r1, r4
 800928a:	4628      	mov	r0, r5
 800928c:	f000 fea2 	bl	8009fd4 <_fflush_r>
 8009290:	2800      	cmp	r0, #0
 8009292:	d0d9      	beq.n	8009248 <__swbuf_r+0x2e>
 8009294:	e7d6      	b.n	8009244 <__swbuf_r+0x2a>
	...

08009298 <__swsetup_r>:
 8009298:	b538      	push	{r3, r4, r5, lr}
 800929a:	4b29      	ldr	r3, [pc, #164]	@ (8009340 <__swsetup_r+0xa8>)
 800929c:	4605      	mov	r5, r0
 800929e:	6818      	ldr	r0, [r3, #0]
 80092a0:	460c      	mov	r4, r1
 80092a2:	b118      	cbz	r0, 80092ac <__swsetup_r+0x14>
 80092a4:	6a03      	ldr	r3, [r0, #32]
 80092a6:	b90b      	cbnz	r3, 80092ac <__swsetup_r+0x14>
 80092a8:	f7ff fe5c 	bl	8008f64 <__sinit>
 80092ac:	f9b4 300c 	ldrsh.w	r3, [r4, #12]
 80092b0:	0719      	lsls	r1, r3, #28
 80092b2:	d422      	bmi.n	80092fa <__swsetup_r+0x62>
 80092b4:	06da      	lsls	r2, r3, #27
 80092b6:	d407      	bmi.n	80092c8 <__swsetup_r+0x30>
 80092b8:	2209      	movs	r2, #9
 80092ba:	602a      	str	r2, [r5, #0]
 80092bc:	f043 0340 	orr.w	r3, r3, #64	@ 0x40
 80092c0:	81a3      	strh	r3, [r4, #12]
 80092c2:	f04f 30ff 	mov.w	r0, #4294967295
 80092c6:	e033      	b.n	8009330 <__swsetup_r+0x98>
 80092c8:	0758      	lsls	r0, r3, #29
 80092ca:	d512      	bpl.n	80092f2 <__swsetup_r+0x5a>
 80092cc:	6b61      	ldr	r1, [r4, #52]	@ 0x34
 80092ce:	b141      	cbz	r1, 80092e2 <__swsetup_r+0x4a>
 80092d0:	f104 0344 	add.w	r3, r4, #68	@ 0x44
 80092d4:	4299      	cmp	r1, r3
 80092d6:	d002      	beq.n	80092de <__swsetup_r+0x46>
 80092d8:	4628      	mov	r0, r5
 80092da:	f000 f8d9 	bl	8009490 <_free_r>
 80092de:	2300      	movs	r3, #0
 80092e0:	6363      	str	r3, [r4, #52]	@ 0x34
 80092e2:	89a3      	ldrh	r3, [r4, #12]
 80092e4:	f023 0324 	bic.w	r3, r3, #36	@ 0x24
 80092e8:	81a3      	strh	r3, [r4, #12]
 80092ea:	2300      	movs	r3, #0
 80092ec:	6063      	str	r3, [r4, #4]
 80092ee:	6923      	ldr	r3, [r4, #16]
 80092f0:	6023      	str	r3, [r4, #0]
 80092f2:	89a3      	ldrh	r3, [r4, #12]
 80092f4:	f043 0308 	orr.w	r3, r3, #8
 80092f8:	81a3      	strh	r3, [r4, #12]
 80092fa:	6923      	ldr	r3, [r4, #16]
 80092fc:	b94b      	cbnz	r3, 8009312 <__swsetup_r+0x7a>
 80092fe:	89a3      	ldrh	r3, [r4, #12]
 8009300:	f403 7320 	and.w	r3, r3, #640	@ 0x280
 8009304:	f5b3 7f00 	cmp.w	r3, #512	@ 0x200
 8009308:	d003      	beq.n	8009312 <__swsetup_r+0x7a>
 800930a:	4621      	mov	r1, r4
 800930c:	4628      	mov	r0, r5
 800930e:	f000 feaf 	bl	800a070 <__smakebuf_r>
 8009312:	f9b4 300c 	ldrsh.w	r3, [r4, #12]
 8009316:	f013 0201 	ands.w	r2, r3, #1
 800931a:	d00a      	beq.n	8009332 <__swsetup_r+0x9a>
 800931c:	2200      	movs	r2, #0
 800931e:	60a2      	str	r2, [r4, #8]
 8009320:	6962      	ldr	r2, [r4, #20]
 8009322:	4252      	negs	r2, r2
 8009324:	61a2      	str	r2, [r4, #24]
 8009326:	6922      	ldr	r2, [r4, #16]
 8009328:	b942      	cbnz	r2, 800933c <__swsetup_r+0xa4>
 800932a:	f013 0080 	ands.w	r0, r3, #128	@ 0x80
 800932e:	d1c5      	bne.n	80092bc <__swsetup_r+0x24>
 8009330:	bd38      	pop	{r3, r4, r5, pc}
 8009332:	0799      	lsls	r1, r3, #30
 8009334:	bf58      	it	pl
 8009336:	6962      	ldrpl	r2, [r4, #20]
 8009338:	60a2      	str	r2, [r4, #8]
 800933a:	e7f4      	b.n	8009326 <__swsetup_r+0x8e>
 800933c:	2000      	movs	r0, #0
 800933e:	e7f7      	b.n	8009330 <__swsetup_r+0x98>
 8009340:	200005a4 	.word	0x200005a4

08009344 <memset>:
 8009344:	4402      	add	r2, r0
 8009346:	4603      	mov	r3, r0
 8009348:	4293      	cmp	r3, r2
 800934a:	d100      	bne.n	800934e <memset+0xa>
 800934c:	4770      	bx	lr
 800934e:	f803 1b01 	strb.w	r1, [r3], #1
 8009352:	e7f9      	b.n	8009348 <memset+0x4>

08009354 <strcasecmp>:
 8009354:	b530      	push	{r4, r5, lr}
 8009356:	4d0c      	ldr	r5, [pc, #48]	@ (8009388 <strcasecmp+0x34>)
 8009358:	4602      	mov	r2, r0
 800935a:	f812 3b01 	ldrb.w	r3, [r2], #1
 800935e:	5ce8      	ldrb	r0, [r5, r3]
 8009360:	f000 0003 	and.w	r0, r0, #3
 8009364:	2801      	cmp	r0, #1
 8009366:	f811 0b01 	ldrb.w	r0, [r1], #1
 800936a:	5c2c      	ldrb	r4, [r5, r0]
 800936c:	f004 0403 	and.w	r4, r4, #3
 8009370:	bf08      	it	eq
 8009372:	3320      	addeq	r3, #32
 8009374:	2c01      	cmp	r4, #1
 8009376:	bf08      	it	eq
 8009378:	3020      	addeq	r0, #32
 800937a:	1a1b      	subs	r3, r3, r0
 800937c:	d102      	bne.n	8009384 <strcasecmp+0x30>
 800937e:	2800      	cmp	r0, #0
 8009380:	d1eb      	bne.n	800935a <strcasecmp+0x6>
 8009382:	bd30      	pop	{r4, r5, pc}
 8009384:	4618      	mov	r0, r3
 8009386:	e7fc      	b.n	8009382 <strcasecmp+0x2e>
 8009388:	080435ed 	.word	0x080435ed

0800938c <_close_r>:
 800938c:	b538      	push	{r3, r4, r5, lr}
 800938e:	4d06      	ldr	r5, [pc, #24]	@ (80093a8 <_close_r+0x1c>)
 8009390:	2300      	movs	r3, #0
 8009392:	4604      	mov	r4, r0
 8009394:	4608      	mov	r0, r1
 8009396:	602b      	str	r3, [r5, #0]
 8009398:	f7fe fd01 	bl	8007d9e <_close>
 800939c:	1c43      	adds	r3, r0, #1
 800939e:	d102      	bne.n	80093a6 <_close_r+0x1a>
 80093a0:	682b      	ldr	r3, [r5, #0]
 80093a2:	b103      	cbz	r3, 80093a6 <_close_r+0x1a>
 80093a4:	6023      	str	r3, [r4, #0]
 80093a6:	bd38      	pop	{r3, r4, r5, pc}
 80093a8:	200029e4 	.word	0x200029e4

080093ac <_lseek_r>:
 80093ac:	b538      	push	{r3, r4, r5, lr}
 80093ae:	4d07      	ldr	r5, [pc, #28]	@ (80093cc <_lseek_r+0x20>)
 80093b0:	4604      	mov	r4, r0
 80093b2:	4608      	mov	r0, r1
 80093b4:	4611      	mov	r1, r2
 80093b6:	2200      	movs	r2, #0
 80093b8:	602a      	str	r2, [r5, #0]
 80093ba:	461a      	mov	r2, r3
 80093bc:	f7fe fd16 	bl	8007dec <_lseek>
 80093c0:	1c43      	adds	r3, r0, #1
 80093c2:	d102      	bne.n	80093ca <_lseek_r+0x1e>
 80093c4:	682b      	ldr	r3, [r5, #0]
 80093c6:	b103      	cbz	r3, 80093ca <_lseek_r+0x1e>
 80093c8:	6023      	str	r3, [r4, #0]
 80093ca:	bd38      	pop	{r3, r4, r5, pc}
 80093cc:	200029e4 	.word	0x200029e4

080093d0 <_read_r>:
 80093d0:	b538      	push	{r3, r4, r5, lr}
 80093d2:	4d07      	ldr	r5, [pc, #28]	@ (80093f0 <_read_r+0x20>)
 80093d4:	4604      	mov	r4, r0
 80093d6:	4608      	mov	r0, r1
 80093d8:	4611      	mov	r1, r2
 80093da:	2200      	movs	r2, #0
 80093dc:	602a      	str	r2, [r5, #0]
 80093de:	461a      	mov	r2, r3
 80093e0:	f7fe fca4 	bl	8007d2c <_read>
 80093e4:	1c43      	adds	r3, r0, #1
 80093e6:	d102      	bne.n	80093ee <_read_r+0x1e>
 80093e8:	682b      	ldr	r3, [r5, #0]
 80093ea:	b103      	cbz	r3, 80093ee <_read_r+0x1e>
 80093ec:	6023      	str	r3, [r4, #0]
 80093ee:	bd38      	pop	{r3, r4, r5, pc}
 80093f0:	200029e4 	.word	0x200029e4

080093f4 <_write_r>:
 80093f4:	b538      	push	{r3, r4, r5, lr}
 80093f6:	4d07      	ldr	r5, [pc, #28]	@ (8009414 <_write_r+0x20>)
 80093f8:	4604      	mov	r4, r0
 80093fa:	4608      	mov	r0, r1
 80093fc:	4611      	mov	r1, r2
 80093fe:	2200      	movs	r2, #0
 8009400:	602a      	str	r2, [r5, #0]
 8009402:	461a      	mov	r2, r3
 8009404:	f7fe fcaf 	bl	8007d66 <_write>
 8009408:	1c43      	adds	r3, r0, #1
 800940a:	d102      	bne.n	8009412 <_write_r+0x1e>
 800940c:	682b      	ldr	r3, [r5, #0]
 800940e:	b103      	cbz	r3, 8009412 <_write_r+0x1e>
 8009410:	6023      	str	r3, [r4, #0]
 8009412:	bd38      	pop	{r3, r4, r5, pc}
 8009414:	200029e4 	.word	0x200029e4

08009418 <__errno>:
 8009418:	4b01      	ldr	r3, [pc, #4]	@ (8009420 <__errno+0x8>)
 800941a:	6818      	ldr	r0, [r3, #0]
 800941c:	4770      	bx	lr
 800941e:	bf00      	nop
 8009420:	200005a4 	.word	0x200005a4

08009424 <__libc_init_array>:
 8009424:	b570      	push	{r4, r5, r6, lr}
 8009426:	4d0d      	ldr	r5, [pc, #52]	@ (800945c <__libc_init_array+0x38>)
 8009428:	4c0d      	ldr	r4, [pc, #52]	@ (8009460 <__libc_init_array+0x3c>)
 800942a:	1b64      	subs	r4, r4, r5
 800942c:	10a4      	asrs	r4, r4, #2
 800942e:	2600      	movs	r6, #0
 8009430:	42a6      	cmp	r6, r4
 8009432:	d109      	bne.n	8009448 <__libc_init_array+0x24>
 8009434:	4d0b      	ldr	r5, [pc, #44]	@ (8009464 <__libc_init_array+0x40>)
 8009436:	4c0c      	ldr	r4, [pc, #48]	@ (8009468 <__libc_init_array+0x44>)
 8009438:	f000 ff8e 	bl	800a358 <_init>
 800943c:	1b64      	subs	r4, r4, r5
 800943e:	10a4      	asrs	r4, r4, #2
 8009440:	2600      	movs	r6, #0
 8009442:	42a6      	cmp	r6, r4
 8009444:	d105      	bne.n	8009452 <__libc_init_array+0x2e>
 8009446:	bd70      	pop	{r4, r5, r6, pc}
 8009448:	f855 3b04 	ldr.w	r3, [r5], #4
 800944c:	4798      	blx	r3
 800944e:	3601      	adds	r6, #1
 8009450:	e7ee      	b.n	8009430 <__libc_init_array+0xc>
 8009452:	f855 3b04 	ldr.w	r3, [r5], #4
 8009456:	4798      	blx	r3
 8009458:	3601      	adds	r6, #1
 800945a:	e7f2      	b.n	8009442 <__libc_init_array+0x1e>
 800945c:	08043728 	.word	0x08043728
 8009460:	08043728 	.word	0x08043728
 8009464:	08043728 	.word	0x08043728
 8009468:	0804372c 	.word	0x0804372c

0800946c <__retarget_lock_init_recursive>:
 800946c:	4770      	bx	lr

0800946e <__retarget_lock_acquire_recursive>:
 800946e:	4770      	bx	lr

08009470 <__retarget_lock_release_recursive>:
 8009470:	4770      	bx	lr

08009472 <memcpy>:
 8009472:	440a      	add	r2, r1
 8009474:	4291      	cmp	r1, r2
 8009476:	f100 33ff 	add.w	r3, r0, #4294967295
 800947a:	d100      	bne.n	800947e <memcpy+0xc>
 800947c:	4770      	bx	lr
 800947e:	b510      	push	{r4, lr}
 8009480:	f811 4b01 	ldrb.w	r4, [r1], #1
 8009484:	f803 4f01 	strb.w	r4, [r3, #1]!
 8009488:	4291      	cmp	r1, r2
 800948a:	d1f9      	bne.n	8009480 <memcpy+0xe>
 800948c:	bd10      	pop	{r4, pc}
	...

08009490 <_free_r>:
 8009490:	b538      	push	{r3, r4, r5, lr}
 8009492:	4605      	mov	r5, r0
 8009494:	2900      	cmp	r1, #0
 8009496:	d041      	beq.n	800951c <_free_r+0x8c>
 8009498:	f851 3c04 	ldr.w	r3, [r1, #-4]
 800949c:	1f0c      	subs	r4, r1, #4
 800949e:	2b00      	cmp	r3, #0
 80094a0:	bfb8      	it	lt
 80094a2:	18e4      	addlt	r4, r4, r3
 80094a4:	f000 f8e0 	bl	8009668 <__malloc_lock>
 80094a8:	4a1d      	ldr	r2, [pc, #116]	@ (8009520 <_free_r+0x90>)
 80094aa:	6813      	ldr	r3, [r2, #0]
 80094ac:	b933      	cbnz	r3, 80094bc <_free_r+0x2c>
 80094ae:	6063      	str	r3, [r4, #4]
 80094b0:	6014      	str	r4, [r2, #0]
 80094b2:	4628      	mov	r0, r5
 80094b4:	e8bd 4038 	ldmia.w	sp!, {r3, r4, r5, lr}
 80094b8:	f000 b8dc 	b.w	8009674 <__malloc_unlock>
 80094bc:	42a3      	cmp	r3, r4
 80094be:	d908      	bls.n	80094d2 <_free_r+0x42>
 80094c0:	6820      	ldr	r0, [r4, #0]
 80094c2:	1821      	adds	r1, r4, r0
 80094c4:	428b      	cmp	r3, r1
 80094c6:	bf01      	itttt	eq
 80094c8:	6819      	ldreq	r1, [r3, #0]
 80094ca:	685b      	ldreq	r3, [r3, #4]
 80094cc:	1809      	addeq	r1, r1, r0
 80094ce:	6021      	streq	r1, [r4, #0]
 80094d0:	e7ed      	b.n	80094ae <_free_r+0x1e>
 80094d2:	461a      	mov	r2, r3
 80094d4:	685b      	ldr	r3, [r3, #4]
 80094d6:	b10b      	cbz	r3, 80094dc <_free_r+0x4c>
 80094d8:	42a3      	cmp	r3, r4
 80094da:	d9fa      	bls.n	80094d2 <_free_r+0x42>
 80094dc:	6811      	ldr	r1, [r2, #0]
 80094de:	1850      	adds	r0, r2, r1
 80094e0:	42a0      	cmp	r0, r4
 80094e2:	d10b      	bne.n	80094fc <_free_r+0x6c>
 80094e4:	6820      	ldr	r0, [r4, #0]
 80094e6:	4401      	add	r1, r0
 80094e8:	1850      	adds	r0, r2, r1
 80094ea:	4283      	cmp	r3, r0
 80094ec:	6011      	str	r1, [r2, #0]
 80094ee:	d1e0      	bne.n	80094b2 <_free_r+0x22>
 80094f0:	6818      	ldr	r0, [r3, #0]
 80094f2:	685b      	ldr	r3, [r3, #4]
 80094f4:	6053      	str	r3, [r2, #4]
 80094f6:	4408      	add	r0, r1
 80094f8:	6010      	str	r0, [r2, #0]
 80094fa:	e7da      	b.n	80094b2 <_free_r+0x22>
 80094fc:	d902      	bls.n	8009504 <_free_r+0x74>
 80094fe:	230c      	movs	r3, #12
 8009500:	602b      	str	r3, [r5, #0]
 8009502:	e7d6      	b.n	80094b2 <_free_r+0x22>
 8009504:	6820      	ldr	r0, [r4, #0]
 8009506:	1821      	adds	r1, r4, r0
 8009508:	428b      	cmp	r3, r1
 800950a:	bf04      	itt	eq
 800950c:	6819      	ldreq	r1, [r3, #0]
 800950e:	685b      	ldreq	r3, [r3, #4]
 8009510:	6063      	str	r3, [r4, #4]
 8009512:	bf04      	itt	eq
 8009514:	1809      	addeq	r1, r1, r0
 8009516:	6021      	streq	r1, [r4, #0]
 8009518:	6054      	str	r4, [r2, #4]
 800951a:	e7ca      	b.n	80094b2 <_free_r+0x22>
 800951c:	bd38      	pop	{r3, r4, r5, pc}
 800951e:	bf00      	nop
 8009520:	200029f0 	.word	0x200029f0

08009524 <sbrk_aligned>:
 8009524:	b570      	push	{r4, r5, r6, lr}
 8009526:	4e0f      	ldr	r6, [pc, #60]	@ (8009564 <sbrk_aligned+0x40>)
 8009528:	460c      	mov	r4, r1
 800952a:	6831      	ldr	r1, [r6, #0]
 800952c:	4605      	mov	r5, r0
 800952e:	b911      	cbnz	r1, 8009536 <sbrk_aligned+0x12>
 8009530:	f000 fecc 	bl	800a2cc <_sbrk_r>
 8009534:	6030      	str	r0, [r6, #0]
 8009536:	4621      	mov	r1, r4
 8009538:	4628      	mov	r0, r5
 800953a:	f000 fec7 	bl	800a2cc <_sbrk_r>
 800953e:	1c43      	adds	r3, r0, #1
 8009540:	d103      	bne.n	800954a <sbrk_aligned+0x26>
 8009542:	f04f 34ff 	mov.w	r4, #4294967295
 8009546:	4620      	mov	r0, r4
 8009548:	bd70      	pop	{r4, r5, r6, pc}
 800954a:	1cc4      	adds	r4, r0, #3
 800954c:	f024 0403 	bic.w	r4, r4, #3
 8009550:	42a0      	cmp	r0, r4
 8009552:	d0f8      	beq.n	8009546 <sbrk_aligned+0x22>
 8009554:	1a21      	subs	r1, r4, r0
 8009556:	4628      	mov	r0, r5
 8009558:	f000 feb8 	bl	800a2cc <_sbrk_r>
 800955c:	3001      	adds	r0, #1
 800955e:	d1f2      	bne.n	8009546 <sbrk_aligned+0x22>
 8009560:	e7ef      	b.n	8009542 <sbrk_aligned+0x1e>
 8009562:	bf00      	nop
 8009564:	200029ec 	.word	0x200029ec

08009568 <_malloc_r>:
 8009568:	e92d 43f8 	stmdb	sp!, {r3, r4, r5, r6, r7, r8, r9, lr}
 800956c:	1ccd      	adds	r5, r1, #3
 800956e:	f025 0503 	bic.w	r5, r5, #3
 8009572:	3508      	adds	r5, #8
 8009574:	2d0c      	cmp	r5, #12
 8009576:	bf38      	it	cc
 8009578:	250c      	movcc	r5, #12
 800957a:	2d00      	cmp	r5, #0
 800957c:	4606      	mov	r6, r0
 800957e:	db01      	blt.n	8009584 <_malloc_r+0x1c>
 8009580:	42a9      	cmp	r1, r5
 8009582:	d904      	bls.n	800958e <_malloc_r+0x26>
 8009584:	230c      	movs	r3, #12
 8009586:	6033      	str	r3, [r6, #0]
 8009588:	2000      	movs	r0, #0
 800958a:	e8bd 83f8 	ldmia.w	sp!, {r3, r4, r5, r6, r7, r8, r9, pc}
 800958e:	f8df 80d4 	ldr.w	r8, [pc, #212]	@ 8009664 <_malloc_r+0xfc>
 8009592:	f000 f869 	bl	8009668 <__malloc_lock>
 8009596:	f8d8 3000 	ldr.w	r3, [r8]
 800959a:	461c      	mov	r4, r3
 800959c:	bb44      	cbnz	r4, 80095f0 <_malloc_r+0x88>
 800959e:	4629      	mov	r1, r5
 80095a0:	4630      	mov	r0, r6
 80095a2:	f7ff ffbf 	bl	8009524 <sbrk_aligned>
 80095a6:	1c43      	adds	r3, r0, #1
 80095a8:	4604      	mov	r4, r0
 80095aa:	d158      	bne.n	800965e <_malloc_r+0xf6>
 80095ac:	f8d8 4000 	ldr.w	r4, [r8]
 80095b0:	4627      	mov	r7, r4
 80095b2:	2f00      	cmp	r7, #0
 80095b4:	d143      	bne.n	800963e <_malloc_r+0xd6>
 80095b6:	2c00      	cmp	r4, #0
 80095b8:	d04b      	beq.n	8009652 <_malloc_r+0xea>
 80095ba:	6823      	ldr	r3, [r4, #0]
 80095bc:	4639      	mov	r1, r7
 80095be:	4630      	mov	r0, r6
 80095c0:	eb04 0903 	add.w	r9, r4, r3
 80095c4:	f000 fe82 	bl	800a2cc <_sbrk_r>
 80095c8:	4581      	cmp	r9, r0
 80095ca:	d142      	bne.n	8009652 <_malloc_r+0xea>
 80095cc:	6821      	ldr	r1, [r4, #0]
 80095ce:	1a6d      	subs	r5, r5, r1
 80095d0:	4629      	mov	r1, r5
 80095d2:	4630      	mov	r0, r6
 80095d4:	f7ff ffa6 	bl	8009524 <sbrk_aligned>
 80095d8:	3001      	adds	r0, #1
 80095da:	d03a      	beq.n	8009652 <_malloc_r+0xea>
 80095dc:	6823      	ldr	r3, [r4, #0]
 80095de:	442b      	add	r3, r5
 80095e0:	6023      	str	r3, [r4, #0]
 80095e2:	f8d8 3000 	ldr.w	r3, [r8]
 80095e6:	685a      	ldr	r2, [r3, #4]
 80095e8:	bb62      	cbnz	r2, 8009644 <_malloc_r+0xdc>
 80095ea:	f8c8 7000 	str.w	r7, [r8]
 80095ee:	e00f      	b.n	8009610 <_malloc_r+0xa8>
 80095f0:	6822      	ldr	r2, [r4, #0]
 80095f2:	1b52      	subs	r2, r2, r5
 80095f4:	d420      	bmi.n	8009638 <_malloc_r+0xd0>
 80095f6:	2a0b      	cmp	r2, #11
 80095f8:	d917      	bls.n	800962a <_malloc_r+0xc2>
 80095fa:	1961      	adds	r1, r4, r5
 80095fc:	42a3      	cmp	r3, r4
 80095fe:	6025      	str	r5, [r4, #0]
 8009600:	bf18      	it	ne
 8009602:	6059      	strne	r1, [r3, #4]
 8009604:	6863      	ldr	r3, [r4, #4]
 8009606:	bf08      	it	eq
 8009608:	f8c8 1000 	streq.w	r1, [r8]
 800960c:	5162      	str	r2, [r4, r5]
 800960e:	604b      	str	r3, [r1, #4]
 8009610:	4630      	mov	r0, r6
 8009612:	f000 f82f 	bl	8009674 <__malloc_unlock>
 8009616:	f104 000b 	add.w	r0, r4, #11
 800961a:	1d23      	adds	r3, r4, #4
 800961c:	f020 0007 	bic.w	r0, r0, #7
 8009620:	1ac2      	subs	r2, r0, r3
 8009622:	bf1c      	itt	ne
 8009624:	1a1b      	subne	r3, r3, r0
 8009626:	50a3      	strne	r3, [r4, r2]
 8009628:	e7af      	b.n	800958a <_malloc_r+0x22>
 800962a:	6862      	ldr	r2, [r4, #4]
 800962c:	42a3      	cmp	r3, r4
 800962e:	bf0c      	ite	eq
 8009630:	f8c8 2000 	streq.w	r2, [r8]
 8009634:	605a      	strne	r2, [r3, #4]
 8009636:	e7eb      	b.n	8009610 <_malloc_r+0xa8>
 8009638:	4623      	mov	r3, r4
 800963a:	6864      	ldr	r4, [r4, #4]
 800963c:	e7ae      	b.n	800959c <_malloc_r+0x34>
 800963e:	463c      	mov	r4, r7
 8009640:	687f      	ldr	r7, [r7, #4]
 8009642:	e7b6      	b.n	80095b2 <_malloc_r+0x4a>
 8009644:	461a      	mov	r2, r3
 8009646:	685b      	ldr	r3, [r3, #4]
 8009648:	42a3      	cmp	r3, r4
 800964a:	d1fb      	bne.n	8009644 <_malloc_r+0xdc>
 800964c:	2300      	movs	r3, #0
 800964e:	6053      	str	r3, [r2, #4]
 8009650:	e7de      	b.n	8009610 <_malloc_r+0xa8>
 8009652:	230c      	movs	r3, #12
 8009654:	6033      	str	r3, [r6, #0]
 8009656:	4630      	mov	r0, r6
 8009658:	f000 f80c 	bl	8009674 <__malloc_unlock>
 800965c:	e794      	b.n	8009588 <_malloc_r+0x20>
 800965e:	6005      	str	r5, [r0, #0]
 8009660:	e7d6      	b.n	8009610 <_malloc_r+0xa8>
 8009662:	bf00      	nop
 8009664:	200029f0 	.word	0x200029f0

08009668 <__malloc_lock>:
 8009668:	4801      	ldr	r0, [pc, #4]	@ (8009670 <__malloc_lock+0x8>)
 800966a:	f7ff bf00 	b.w	800946e <__retarget_lock_acquire_recursive>
 800966e:	bf00      	nop
 8009670:	200029e8 	.word	0x200029e8

08009674 <__malloc_unlock>:
 8009674:	4801      	ldr	r0, [pc, #4]	@ (800967c <__malloc_unlock+0x8>)
 8009676:	f7ff befb 	b.w	8009470 <__retarget_lock_release_recursive>
 800967a:	bf00      	nop
 800967c:	200029e8 	.word	0x200029e8

08009680 <__ssputs_r>:
 8009680:	e92d 47f0 	stmdb	sp!, {r4, r5, r6, r7, r8, r9, sl, lr}
 8009684:	688e      	ldr	r6, [r1, #8]
 8009686:	461f      	mov	r7, r3
 8009688:	42be      	cmp	r6, r7
 800968a:	680b      	ldr	r3, [r1, #0]
 800968c:	4682      	mov	sl, r0
 800968e:	460c      	mov	r4, r1
 8009690:	4690      	mov	r8, r2
 8009692:	d82d      	bhi.n	80096f0 <__ssputs_r+0x70>
 8009694:	f9b1 200c 	ldrsh.w	r2, [r1, #12]
 8009698:	f412 6f90 	tst.w	r2, #1152	@ 0x480
 800969c:	d026      	beq.n	80096ec <__ssputs_r+0x6c>
 800969e:	6965      	ldr	r5, [r4, #20]
 80096a0:	6909      	ldr	r1, [r1, #16]
 80096a2:	eb05 0545 	add.w	r5, r5, r5, lsl #1
 80096a6:	eba3 0901 	sub.w	r9, r3, r1
 80096aa:	eb05 75d5 	add.w	r5, r5, r5, lsr #31
 80096ae:	1c7b      	adds	r3, r7, #1
 80096b0:	444b      	add	r3, r9
 80096b2:	106d      	asrs	r5, r5, #1
 80096b4:	429d      	cmp	r5, r3
 80096b6:	bf38      	it	cc
 80096b8:	461d      	movcc	r5, r3
 80096ba:	0553      	lsls	r3, r2, #21
 80096bc:	d527      	bpl.n	800970e <__ssputs_r+0x8e>
 80096be:	4629      	mov	r1, r5
 80096c0:	f7ff ff52 	bl	8009568 <_malloc_r>
 80096c4:	4606      	mov	r6, r0
 80096c6:	b360      	cbz	r0, 8009722 <__ssputs_r+0xa2>
 80096c8:	6921      	ldr	r1, [r4, #16]
 80096ca:	464a      	mov	r2, r9
 80096cc:	f7ff fed1 	bl	8009472 <memcpy>
 80096d0:	89a3      	ldrh	r3, [r4, #12]
 80096d2:	f423 6390 	bic.w	r3, r3, #1152	@ 0x480
 80096d6:	f043 0380 	orr.w	r3, r3, #128	@ 0x80
 80096da:	81a3      	strh	r3, [r4, #12]
 80096dc:	6126      	str	r6, [r4, #16]
 80096de:	6165      	str	r5, [r4, #20]
 80096e0:	444e      	add	r6, r9
 80096e2:	eba5 0509 	sub.w	r5, r5, r9
 80096e6:	6026      	str	r6, [r4, #0]
 80096e8:	60a5      	str	r5, [r4, #8]
 80096ea:	463e      	mov	r6, r7
 80096ec:	42be      	cmp	r6, r7
 80096ee:	d900      	bls.n	80096f2 <__ssputs_r+0x72>
 80096f0:	463e      	mov	r6, r7
 80096f2:	6820      	ldr	r0, [r4, #0]
 80096f4:	4632      	mov	r2, r6
 80096f6:	4641      	mov	r1, r8
 80096f8:	f000 fdac 	bl	800a254 <memmove>
 80096fc:	68a3      	ldr	r3, [r4, #8]
 80096fe:	1b9b      	subs	r3, r3, r6
 8009700:	60a3      	str	r3, [r4, #8]
 8009702:	6823      	ldr	r3, [r4, #0]
 8009704:	4433      	add	r3, r6
 8009706:	6023      	str	r3, [r4, #0]
 8009708:	2000      	movs	r0, #0
 800970a:	e8bd 87f0 	ldmia.w	sp!, {r4, r5, r6, r7, r8, r9, sl, pc}
 800970e:	462a      	mov	r2, r5
 8009710:	f000 fdec 	bl	800a2ec <_realloc_r>
 8009714:	4606      	mov	r6, r0
 8009716:	2800      	cmp	r0, #0
 8009718:	d1e0      	bne.n	80096dc <__ssputs_r+0x5c>
 800971a:	6921      	ldr	r1, [r4, #16]
 800971c:	4650      	mov	r0, sl
 800971e:	f7ff feb7 	bl	8009490 <_free_r>
 8009722:	230c      	movs	r3, #12
 8009724:	f8ca 3000 	str.w	r3, [sl]
 8009728:	89a3      	ldrh	r3, [r4, #12]
 800972a:	f043 0340 	orr.w	r3, r3, #64	@ 0x40
 800972e:	81a3      	strh	r3, [r4, #12]
 8009730:	f04f 30ff 	mov.w	r0, #4294967295
 8009734:	e7e9      	b.n	800970a <__ssputs_r+0x8a>
	...

08009738 <_svfiprintf_r>:
 8009738:	e92d 4ff0 	stmdb	sp!, {r4, r5, r6, r7, r8, r9, sl, fp, lr}
 800973c:	4698      	mov	r8, r3
 800973e:	898b      	ldrh	r3, [r1, #12]
 8009740:	061b      	lsls	r3, r3, #24
 8009742:	b09d      	sub	sp, #116	@ 0x74
 8009744:	4607      	mov	r7, r0
 8009746:	460d      	mov	r5, r1
 8009748:	4614      	mov	r4, r2
 800974a:	d510      	bpl.n	800976e <_svfiprintf_r+0x36>
 800974c:	690b      	ldr	r3, [r1, #16]
 800974e:	b973      	cbnz	r3, 800976e <_svfiprintf_r+0x36>
 8009750:	2140      	movs	r1, #64	@ 0x40
 8009752:	f7ff ff09 	bl	8009568 <_malloc_r>
 8009756:	6028      	str	r0, [r5, #0]
 8009758:	6128      	str	r0, [r5, #16]
 800975a:	b930      	cbnz	r0, 800976a <_svfiprintf_r+0x32>
 800975c:	230c      	movs	r3, #12
 800975e:	603b      	str	r3, [r7, #0]
 8009760:	f04f 30ff 	mov.w	r0, #4294967295
 8009764:	b01d      	add	sp, #116	@ 0x74
 8009766:	e8bd 8ff0 	ldmia.w	sp!, {r4, r5, r6, r7, r8, r9, sl, fp, pc}
 800976a:	2340      	movs	r3, #64	@ 0x40
 800976c:	616b      	str	r3, [r5, #20]
 800976e:	2300      	movs	r3, #0
 8009770:	9309      	str	r3, [sp, #36]	@ 0x24
 8009772:	2320      	movs	r3, #32
 8009774:	f88d 3029 	strb.w	r3, [sp, #41]	@ 0x29
 8009778:	f8cd 800c 	str.w	r8, [sp, #12]
 800977c:	2330      	movs	r3, #48	@ 0x30
 800977e:	f8df 819c 	ldr.w	r8, [pc, #412]	@ 800991c <_svfiprintf_r+0x1e4>
 8009782:	f88d 302a 	strb.w	r3, [sp, #42]	@ 0x2a
 8009786:	f04f 0901 	mov.w	r9, #1
 800978a:	4623      	mov	r3, r4
 800978c:	469a      	mov	sl, r3
 800978e:	f813 2b01 	ldrb.w	r2, [r3], #1
 8009792:	b10a      	cbz	r2, 8009798 <_svfiprintf_r+0x60>
 8009794:	2a25      	cmp	r2, #37	@ 0x25
 8009796:	d1f9      	bne.n	800978c <_svfiprintf_r+0x54>
 8009798:	ebba 0b04 	subs.w	fp, sl, r4
 800979c:	d00b      	beq.n	80097b6 <_svfiprintf_r+0x7e>
 800979e:	465b      	mov	r3, fp
 80097a0:	4622      	mov	r2, r4
 80097a2:	4629      	mov	r1, r5
 80097a4:	4638      	mov	r0, r7
 80097a6:	f7ff ff6b 	bl	8009680 <__ssputs_r>
 80097aa:	3001      	adds	r0, #1
 80097ac:	f000 80a7 	beq.w	80098fe <_svfiprintf_r+0x1c6>
 80097b0:	9a09      	ldr	r2, [sp, #36]	@ 0x24
 80097b2:	445a      	add	r2, fp
 80097b4:	9209      	str	r2, [sp, #36]	@ 0x24
 80097b6:	f89a 3000 	ldrb.w	r3, [sl]
 80097ba:	2b00      	cmp	r3, #0
 80097bc:	f000 809f 	beq.w	80098fe <_svfiprintf_r+0x1c6>
 80097c0:	2300      	movs	r3, #0
 80097c2:	f04f 32ff 	mov.w	r2, #4294967295
 80097c6:	e9cd 2305 	strd	r2, r3, [sp, #20]
 80097ca:	f10a 0a01 	add.w	sl, sl, #1
 80097ce:	9304      	str	r3, [sp, #16]
 80097d0:	9307      	str	r3, [sp, #28]
 80097d2:	f88d 3053 	strb.w	r3, [sp, #83]	@ 0x53
 80097d6:	931a      	str	r3, [sp, #104]	@ 0x68
 80097d8:	4654      	mov	r4, sl
 80097da:	2205      	movs	r2, #5
 80097dc:	f814 1b01 	ldrb.w	r1, [r4], #1
 80097e0:	484e      	ldr	r0, [pc, #312]	@ (800991c <_svfiprintf_r+0x1e4>)
 80097e2:	f7f6 fd05 	bl	80001f0 <memchr>
 80097e6:	9a04      	ldr	r2, [sp, #16]
 80097e8:	b9d8      	cbnz	r0, 8009822 <_svfiprintf_r+0xea>
 80097ea:	06d0      	lsls	r0, r2, #27
 80097ec:	bf44      	itt	mi
 80097ee:	2320      	movmi	r3, #32
 80097f0:	f88d 3053 	strbmi.w	r3, [sp, #83]	@ 0x53
 80097f4:	0711      	lsls	r1, r2, #28
 80097f6:	bf44      	itt	mi
 80097f8:	232b      	movmi	r3, #43	@ 0x2b
 80097fa:	f88d 3053 	strbmi.w	r3, [sp, #83]	@ 0x53
 80097fe:	f89a 3000 	ldrb.w	r3, [sl]
 8009802:	2b2a      	cmp	r3, #42	@ 0x2a
 8009804:	d015      	beq.n	8009832 <_svfiprintf_r+0xfa>
 8009806:	9a07      	ldr	r2, [sp, #28]
 8009808:	4654      	mov	r4, sl
 800980a:	2000      	movs	r0, #0
 800980c:	f04f 0c0a 	mov.w	ip, #10
 8009810:	4621      	mov	r1, r4
 8009812:	f811 3b01 	ldrb.w	r3, [r1], #1
 8009816:	3b30      	subs	r3, #48	@ 0x30
 8009818:	2b09      	cmp	r3, #9
 800981a:	d94b      	bls.n	80098b4 <_svfiprintf_r+0x17c>
 800981c:	b1b0      	cbz	r0, 800984c <_svfiprintf_r+0x114>
 800981e:	9207      	str	r2, [sp, #28]
 8009820:	e014      	b.n	800984c <_svfiprintf_r+0x114>
 8009822:	eba0 0308 	sub.w	r3, r0, r8
 8009826:	fa09 f303 	lsl.w	r3, r9, r3
 800982a:	4313      	orrs	r3, r2
 800982c:	9304      	str	r3, [sp, #16]
 800982e:	46a2      	mov	sl, r4
 8009830:	e7d2      	b.n	80097d8 <_svfiprintf_r+0xa0>
 8009832:	9b03      	ldr	r3, [sp, #12]
 8009834:	1d19      	adds	r1, r3, #4
 8009836:	681b      	ldr	r3, [r3, #0]
 8009838:	9103      	str	r1, [sp, #12]
 800983a:	2b00      	cmp	r3, #0
 800983c:	bfbb      	ittet	lt
 800983e:	425b      	neglt	r3, r3
 8009840:	f042 0202 	orrlt.w	r2, r2, #2
 8009844:	9307      	strge	r3, [sp, #28]
 8009846:	9307      	strlt	r3, [sp, #28]
 8009848:	bfb8      	it	lt
 800984a:	9204      	strlt	r2, [sp, #16]
 800984c:	7823      	ldrb	r3, [r4, #0]
 800984e:	2b2e      	cmp	r3, #46	@ 0x2e
 8009850:	d10a      	bne.n	8009868 <_svfiprintf_r+0x130>
 8009852:	7863      	ldrb	r3, [r4, #1]
 8009854:	2b2a      	cmp	r3, #42	@ 0x2a
 8009856:	d132      	bne.n	80098be <_svfiprintf_r+0x186>
 8009858:	9b03      	ldr	r3, [sp, #12]
 800985a:	1d1a      	adds	r2, r3, #4
 800985c:	681b      	ldr	r3, [r3, #0]
 800985e:	9203      	str	r2, [sp, #12]
 8009860:	ea43 73e3 	orr.w	r3, r3, r3, asr #31
 8009864:	3402      	adds	r4, #2
 8009866:	9305      	str	r3, [sp, #20]
 8009868:	f8df a0c0 	ldr.w	sl, [pc, #192]	@ 800992c <_svfiprintf_r+0x1f4>
 800986c:	7821      	ldrb	r1, [r4, #0]
 800986e:	2203      	movs	r2, #3
 8009870:	4650      	mov	r0, sl
 8009872:	f7f6 fcbd 	bl	80001f0 <memchr>
 8009876:	b138      	cbz	r0, 8009888 <_svfiprintf_r+0x150>
 8009878:	9b04      	ldr	r3, [sp, #16]
 800987a:	eba0 000a 	sub.w	r0, r0, sl
 800987e:	2240      	movs	r2, #64	@ 0x40
 8009880:	4082      	lsls	r2, r0
 8009882:	4313      	orrs	r3, r2
 8009884:	3401      	adds	r4, #1
 8009886:	9304      	str	r3, [sp, #16]
 8009888:	f814 1b01 	ldrb.w	r1, [r4], #1
 800988c:	4824      	ldr	r0, [pc, #144]	@ (8009920 <_svfiprintf_r+0x1e8>)
 800988e:	f88d 1028 	strb.w	r1, [sp, #40]	@ 0x28
 8009892:	2206      	movs	r2, #6
 8009894:	f7f6 fcac 	bl	80001f0 <memchr>
 8009898:	2800      	cmp	r0, #0
 800989a:	d036      	beq.n	800990a <_svfiprintf_r+0x1d2>
 800989c:	4b21      	ldr	r3, [pc, #132]	@ (8009924 <_svfiprintf_r+0x1ec>)
 800989e:	bb1b      	cbnz	r3, 80098e8 <_svfiprintf_r+0x1b0>
 80098a0:	9b03      	ldr	r3, [sp, #12]
 80098a2:	3307      	adds	r3, #7
 80098a4:	f023 0307 	bic.w	r3, r3, #7
 80098a8:	3308      	adds	r3, #8
 80098aa:	9303      	str	r3, [sp, #12]
 80098ac:	9b09      	ldr	r3, [sp, #36]	@ 0x24
 80098ae:	4433      	add	r3, r6
 80098b0:	9309      	str	r3, [sp, #36]	@ 0x24
 80098b2:	e76a      	b.n	800978a <_svfiprintf_r+0x52>
 80098b4:	fb0c 3202 	mla	r2, ip, r2, r3
 80098b8:	460c      	mov	r4, r1
 80098ba:	2001      	movs	r0, #1
 80098bc:	e7a8      	b.n	8009810 <_svfiprintf_r+0xd8>
 80098be:	2300      	movs	r3, #0
 80098c0:	3401      	adds	r4, #1
 80098c2:	9305      	str	r3, [sp, #20]
 80098c4:	4619      	mov	r1, r3
 80098c6:	f04f 0c0a 	mov.w	ip, #10
 80098ca:	4620      	mov	r0, r4
 80098cc:	f810 2b01 	ldrb.w	r2, [r0], #1
 80098d0:	3a30      	subs	r2, #48	@ 0x30
 80098d2:	2a09      	cmp	r2, #9
 80098d4:	d903      	bls.n	80098de <_svfiprintf_r+0x1a6>
 80098d6:	2b00      	cmp	r3, #0
 80098d8:	d0c6      	beq.n	8009868 <_svfiprintf_r+0x130>
 80098da:	9105      	str	r1, [sp, #20]
 80098dc:	e7c4      	b.n	8009868 <_svfiprintf_r+0x130>
 80098de:	fb0c 2101 	mla	r1, ip, r1, r2
 80098e2:	4604      	mov	r4, r0
 80098e4:	2301      	movs	r3, #1
 80098e6:	e7f0      	b.n	80098ca <_svfiprintf_r+0x192>
 80098e8:	ab03      	add	r3, sp, #12
 80098ea:	9300      	str	r3, [sp, #0]
 80098ec:	462a      	mov	r2, r5
 80098ee:	4b0e      	ldr	r3, [pc, #56]	@ (8009928 <_svfiprintf_r+0x1f0>)
 80098f0:	a904      	add	r1, sp, #16
 80098f2:	4638      	mov	r0, r7
 80098f4:	f3af 8000 	nop.w
 80098f8:	1c42      	adds	r2, r0, #1
 80098fa:	4606      	mov	r6, r0
 80098fc:	d1d6      	bne.n	80098ac <_svfiprintf_r+0x174>
 80098fe:	89ab      	ldrh	r3, [r5, #12]
 8009900:	065b      	lsls	r3, r3, #25
 8009902:	f53f af2d 	bmi.w	8009760 <_svfiprintf_r+0x28>
 8009906:	9809      	ldr	r0, [sp, #36]	@ 0x24
 8009908:	e72c      	b.n	8009764 <_svfiprintf_r+0x2c>
 800990a:	ab03      	add	r3, sp, #12
 800990c:	9300      	str	r3, [sp, #0]
 800990e:	462a      	mov	r2, r5
 8009910:	4b05      	ldr	r3, [pc, #20]	@ (8009928 <_svfiprintf_r+0x1f0>)
 8009912:	a904      	add	r1, sp, #16
 8009914:	4638      	mov	r0, r7
 8009916:	f000 f9bb 	bl	8009c90 <_printf_i>
 800991a:	e7ed      	b.n	80098f8 <_svfiprintf_r+0x1c0>
 800991c:	080436ed 	.word	0x080436ed
 8009920:	080436f7 	.word	0x080436f7
 8009924:	00000000 	.word	0x00000000
 8009928:	08009681 	.word	0x08009681
 800992c:	080436f3 	.word	0x080436f3

08009930 <__sfputc_r>:
 8009930:	6893      	ldr	r3, [r2, #8]
 8009932:	3b01      	subs	r3, #1
 8009934:	2b00      	cmp	r3, #0
 8009936:	b410      	push	{r4}
 8009938:	6093      	str	r3, [r2, #8]
 800993a:	da08      	bge.n	800994e <__sfputc_r+0x1e>
 800993c:	6994      	ldr	r4, [r2, #24]
 800993e:	42a3      	cmp	r3, r4
 8009940:	db01      	blt.n	8009946 <__sfputc_r+0x16>
 8009942:	290a      	cmp	r1, #10
 8009944:	d103      	bne.n	800994e <__sfputc_r+0x1e>
 8009946:	f85d 4b04 	ldr.w	r4, [sp], #4
 800994a:	f7ff bc66 	b.w	800921a <__swbuf_r>
 800994e:	6813      	ldr	r3, [r2, #0]
 8009950:	1c58      	adds	r0, r3, #1
 8009952:	6010      	str	r0, [r2, #0]
 8009954:	7019      	strb	r1, [r3, #0]
 8009956:	4608      	mov	r0, r1
 8009958:	f85d 4b04 	ldr.w	r4, [sp], #4
 800995c:	4770      	bx	lr

0800995e <__sfputs_r>:
 800995e:	b5f8      	push	{r3, r4, r5, r6, r7, lr}
 8009960:	4606      	mov	r6, r0
 8009962:	460f      	mov	r7, r1
 8009964:	4614      	mov	r4, r2
 8009966:	18d5      	adds	r5, r2, r3
 8009968:	42ac      	cmp	r4, r5
 800996a:	d101      	bne.n	8009970 <__sfputs_r+0x12>
 800996c:	2000      	movs	r0, #0
 800996e:	e007      	b.n	8009980 <__sfputs_r+0x22>
 8009970:	f814 1b01 	ldrb.w	r1, [r4], #1
 8009974:	463a      	mov	r2, r7
 8009976:	4630      	mov	r0, r6
 8009978:	f7ff ffda 	bl	8009930 <__sfputc_r>
 800997c:	1c43      	adds	r3, r0, #1
 800997e:	d1f3      	bne.n	8009968 <__sfputs_r+0xa>
 8009980:	bdf8      	pop	{r3, r4, r5, r6, r7, pc}
	...

08009984 <_vfiprintf_r>:
 8009984:	e92d 4ff0 	stmdb	sp!, {r4, r5, r6, r7, r8, r9, sl, fp, lr}
 8009988:	460d      	mov	r5, r1
 800998a:	b09d      	sub	sp, #116	@ 0x74
 800998c:	4614      	mov	r4, r2
 800998e:	4698      	mov	r8, r3
 8009990:	4606      	mov	r6, r0
 8009992:	b118      	cbz	r0, 800999c <_vfiprintf_r+0x18>
 8009994:	6a03      	ldr	r3, [r0, #32]
 8009996:	b90b      	cbnz	r3, 800999c <_vfiprintf_r+0x18>
 8009998:	f7ff fae4 	bl	8008f64 <__sinit>
 800999c:	6e6b      	ldr	r3, [r5, #100]	@ 0x64
 800999e:	07d9      	lsls	r1, r3, #31
 80099a0:	d405      	bmi.n	80099ae <_vfiprintf_r+0x2a>
 80099a2:	89ab      	ldrh	r3, [r5, #12]
 80099a4:	059a      	lsls	r2, r3, #22
 80099a6:	d402      	bmi.n	80099ae <_vfiprintf_r+0x2a>
 80099a8:	6da8      	ldr	r0, [r5, #88]	@ 0x58
 80099aa:	f7ff fd60 	bl	800946e <__retarget_lock_acquire_recursive>
 80099ae:	89ab      	ldrh	r3, [r5, #12]
 80099b0:	071b      	lsls	r3, r3, #28
 80099b2:	d501      	bpl.n	80099b8 <_vfiprintf_r+0x34>
 80099b4:	692b      	ldr	r3, [r5, #16]
 80099b6:	b99b      	cbnz	r3, 80099e0 <_vfiprintf_r+0x5c>
 80099b8:	4629      	mov	r1, r5
 80099ba:	4630      	mov	r0, r6
 80099bc:	f7ff fc6c 	bl	8009298 <__swsetup_r>
 80099c0:	b170      	cbz	r0, 80099e0 <_vfiprintf_r+0x5c>
 80099c2:	6e6b      	ldr	r3, [r5, #100]	@ 0x64
 80099c4:	07dc      	lsls	r4, r3, #31
 80099c6:	d504      	bpl.n	80099d2 <_vfiprintf_r+0x4e>
 80099c8:	f04f 30ff 	mov.w	r0, #4294967295
 80099cc:	b01d      	add	sp, #116	@ 0x74
 80099ce:	e8bd 8ff0 	ldmia.w	sp!, {r4, r5, r6, r7, r8, r9, sl, fp, pc}
 80099d2:	89ab      	ldrh	r3, [r5, #12]
 80099d4:	0598      	lsls	r0, r3, #22
 80099d6:	d4f7      	bmi.n	80099c8 <_vfiprintf_r+0x44>
 80099d8:	6da8      	ldr	r0, [r5, #88]	@ 0x58
 80099da:	f7ff fd49 	bl	8009470 <__retarget_lock_release_recursive>
 80099de:	e7f3      	b.n	80099c8 <_vfiprintf_r+0x44>
 80099e0:	2300      	movs	r3, #0
 80099e2:	9309      	str	r3, [sp, #36]	@ 0x24
 80099e4:	2320      	movs	r3, #32
 80099e6:	f88d 3029 	strb.w	r3, [sp, #41]	@ 0x29
 80099ea:	f8cd 800c 	str.w	r8, [sp, #12]
 80099ee:	2330      	movs	r3, #48	@ 0x30
 80099f0:	f8df 81ac 	ldr.w	r8, [pc, #428]	@ 8009ba0 <_vfiprintf_r+0x21c>
 80099f4:	f88d 302a 	strb.w	r3, [sp, #42]	@ 0x2a
 80099f8:	f04f 0901 	mov.w	r9, #1
 80099fc:	4623      	mov	r3, r4
 80099fe:	469a      	mov	sl, r3
 8009a00:	f813 2b01 	ldrb.w	r2, [r3], #1
 8009a04:	b10a      	cbz	r2, 8009a0a <_vfiprintf_r+0x86>
 8009a06:	2a25      	cmp	r2, #37	@ 0x25
 8009a08:	d1f9      	bne.n	80099fe <_vfiprintf_r+0x7a>
 8009a0a:	ebba 0b04 	subs.w	fp, sl, r4
 8009a0e:	d00b      	beq.n	8009a28 <_vfiprintf_r+0xa4>
 8009a10:	465b      	mov	r3, fp
 8009a12:	4622      	mov	r2, r4
 8009a14:	4629      	mov	r1, r5
 8009a16:	4630      	mov	r0, r6
 8009a18:	f7ff ffa1 	bl	800995e <__sfputs_r>
 8009a1c:	3001      	adds	r0, #1
 8009a1e:	f000 80a7 	beq.w	8009b70 <_vfiprintf_r+0x1ec>
 8009a22:	9a09      	ldr	r2, [sp, #36]	@ 0x24
 8009a24:	445a      	add	r2, fp
 8009a26:	9209      	str	r2, [sp, #36]	@ 0x24
 8009a28:	f89a 3000 	ldrb.w	r3, [sl]
 8009a2c:	2b00      	cmp	r3, #0
 8009a2e:	f000 809f 	beq.w	8009b70 <_vfiprintf_r+0x1ec>
 8009a32:	2300      	movs	r3, #0
 8009a34:	f04f 32ff 	mov.w	r2, #4294967295
 8009a38:	e9cd 2305 	strd	r2, r3, [sp, #20]
 8009a3c:	f10a 0a01 	add.w	sl, sl, #1
 8009a40:	9304      	str	r3, [sp, #16]
 8009a42:	9307      	str	r3, [sp, #28]
 8009a44:	f88d 3053 	strb.w	r3, [sp, #83]	@ 0x53
 8009a48:	931a      	str	r3, [sp, #104]	@ 0x68
 8009a4a:	4654      	mov	r4, sl
 8009a4c:	2205      	movs	r2, #5
 8009a4e:	f814 1b01 	ldrb.w	r1, [r4], #1
 8009a52:	4853      	ldr	r0, [pc, #332]	@ (8009ba0 <_vfiprintf_r+0x21c>)
 8009a54:	f7f6 fbcc 	bl	80001f0 <memchr>
 8009a58:	9a04      	ldr	r2, [sp, #16]
 8009a5a:	b9d8      	cbnz	r0, 8009a94 <_vfiprintf_r+0x110>
 8009a5c:	06d1      	lsls	r1, r2, #27
 8009a5e:	bf44      	itt	mi
 8009a60:	2320      	movmi	r3, #32
 8009a62:	f88d 3053 	strbmi.w	r3, [sp, #83]	@ 0x53
 8009a66:	0713      	lsls	r3, r2, #28
 8009a68:	bf44      	itt	mi
 8009a6a:	232b      	movmi	r3, #43	@ 0x2b
 8009a6c:	f88d 3053 	strbmi.w	r3, [sp, #83]	@ 0x53
 8009a70:	f89a 3000 	ldrb.w	r3, [sl]
 8009a74:	2b2a      	cmp	r3, #42	@ 0x2a
 8009a76:	d015      	beq.n	8009aa4 <_vfiprintf_r+0x120>
 8009a78:	9a07      	ldr	r2, [sp, #28]
 8009a7a:	4654      	mov	r4, sl
 8009a7c:	2000      	movs	r0, #0
 8009a7e:	f04f 0c0a 	mov.w	ip, #10
 8009a82:	4621      	mov	r1, r4
 8009a84:	f811 3b01 	ldrb.w	r3, [r1], #1
 8009a88:	3b30      	subs	r3, #48	@ 0x30
 8009a8a:	2b09      	cmp	r3, #9
 8009a8c:	d94b      	bls.n	8009b26 <_vfiprintf_r+0x1a2>
 8009a8e:	b1b0      	cbz	r0, 8009abe <_vfiprintf_r+0x13a>
 8009a90:	9207      	str	r2, [sp, #28]
 8009a92:	e014      	b.n	8009abe <_vfiprintf_r+0x13a>
 8009a94:	eba0 0308 	sub.w	r3, r0, r8
 8009a98:	fa09 f303 	lsl.w	r3, r9, r3
 8009a9c:	4313      	orrs	r3, r2
 8009a9e:	9304      	str	r3, [sp, #16]
 8009aa0:	46a2      	mov	sl, r4
 8009aa2:	e7d2      	b.n	8009a4a <_vfiprintf_r+0xc6>
 8009aa4:	9b03      	ldr	r3, [sp, #12]
 8009aa6:	1d19      	adds	r1, r3, #4
 8009aa8:	681b      	ldr	r3, [r3, #0]
 8009aaa:	9103      	str	r1, [sp, #12]
 8009aac:	2b00      	cmp	r3, #0
 8009aae:	bfbb      	ittet	lt
 8009ab0:	425b      	neglt	r3, r3
 8009ab2:	f042 0202 	orrlt.w	r2, r2, #2
 8009ab6:	9307      	strge	r3, [sp, #28]
 8009ab8:	9307      	strlt	r3, [sp, #28]
 8009aba:	bfb8      	it	lt
 8009abc:	9204      	strlt	r2, [sp, #16]
 8009abe:	7823      	ldrb	r3, [r4, #0]
 8009ac0:	2b2e      	cmp	r3, #46	@ 0x2e
 8009ac2:	d10a      	bne.n	8009ada <_vfiprintf_r+0x156>
 8009ac4:	7863      	ldrb	r3, [r4, #1]
 8009ac6:	2b2a      	cmp	r3, #42	@ 0x2a
 8009ac8:	d132      	bne.n	8009b30 <_vfiprintf_r+0x1ac>
 8009aca:	9b03      	ldr	r3, [sp, #12]
 8009acc:	1d1a      	adds	r2, r3, #4
 8009ace:	681b      	ldr	r3, [r3, #0]
 8009ad0:	9203      	str	r2, [sp, #12]
 8009ad2:	ea43 73e3 	orr.w	r3, r3, r3, asr #31
 8009ad6:	3402      	adds	r4, #2
 8009ad8:	9305      	str	r3, [sp, #20]
 8009ada:	f8df a0d4 	ldr.w	sl, [pc, #212]	@ 8009bb0 <_vfiprintf_r+0x22c>
 8009ade:	7821      	ldrb	r1, [r4, #0]
 8009ae0:	2203      	movs	r2, #3
 8009ae2:	4650      	mov	r0, sl
 8009ae4:	f7f6 fb84 	bl	80001f0 <memchr>
 8009ae8:	b138      	cbz	r0, 8009afa <_vfiprintf_r+0x176>
 8009aea:	9b04      	ldr	r3, [sp, #16]
 8009aec:	eba0 000a 	sub.w	r0, r0, sl
 8009af0:	2240      	movs	r2, #64	@ 0x40
 8009af2:	4082      	lsls	r2, r0
 8009af4:	4313      	orrs	r3, r2
 8009af6:	3401      	adds	r4, #1
 8009af8:	9304      	str	r3, [sp, #16]
 8009afa:	f814 1b01 	ldrb.w	r1, [r4], #1
 8009afe:	4829      	ldr	r0, [pc, #164]	@ (8009ba4 <_vfiprintf_r+0x220>)
 8009b00:	f88d 1028 	strb.w	r1, [sp, #40]	@ 0x28
 8009b04:	2206      	movs	r2, #6
 8009b06:	f7f6 fb73 	bl	80001f0 <memchr>
 8009b0a:	2800      	cmp	r0, #0
 8009b0c:	d03f      	beq.n	8009b8e <_vfiprintf_r+0x20a>
 8009b0e:	4b26      	ldr	r3, [pc, #152]	@ (8009ba8 <_vfiprintf_r+0x224>)
 8009b10:	bb1b      	cbnz	r3, 8009b5a <_vfiprintf_r+0x1d6>
 8009b12:	9b03      	ldr	r3, [sp, #12]
 8009b14:	3307      	adds	r3, #7
 8009b16:	f023 0307 	bic.w	r3, r3, #7
 8009b1a:	3308      	adds	r3, #8
 8009b1c:	9303      	str	r3, [sp, #12]
 8009b1e:	9b09      	ldr	r3, [sp, #36]	@ 0x24
 8009b20:	443b      	add	r3, r7
 8009b22:	9309      	str	r3, [sp, #36]	@ 0x24
 8009b24:	e76a      	b.n	80099fc <_vfiprintf_r+0x78>
 8009b26:	fb0c 3202 	mla	r2, ip, r2, r3
 8009b2a:	460c      	mov	r4, r1
 8009b2c:	2001      	movs	r0, #1
 8009b2e:	e7a8      	b.n	8009a82 <_vfiprintf_r+0xfe>
 8009b30:	2300      	movs	r3, #0
 8009b32:	3401      	adds	r4, #1
 8009b34:	9305      	str	r3, [sp, #20]
 8009b36:	4619      	mov	r1, r3
 8009b38:	f04f 0c0a 	mov.w	ip, #10
 8009b3c:	4620      	mov	r0, r4
 8009b3e:	f810 2b01 	ldrb.w	r2, [r0], #1
 8009b42:	3a30      	subs	r2, #48	@ 0x30
 8009b44:	2a09      	cmp	r2, #9
 8009b46:	d903      	bls.n	8009b50 <_vfiprintf_r+0x1cc>
 8009b48:	2b00      	cmp	r3, #0
 8009b4a:	d0c6      	beq.n	8009ada <_vfiprintf_r+0x156>
 8009b4c:	9105      	str	r1, [sp, #20]
 8009b4e:	e7c4      	b.n	8009ada <_vfiprintf_r+0x156>
 8009b50:	fb0c 2101 	mla	r1, ip, r1, r2
 8009b54:	4604      	mov	r4, r0
 8009b56:	2301      	movs	r3, #1
 8009b58:	e7f0      	b.n	8009b3c <_vfiprintf_r+0x1b8>
 8009b5a:	ab03      	add	r3, sp, #12
 8009b5c:	9300      	str	r3, [sp, #0]
 8009b5e:	462a      	mov	r2, r5
 8009b60:	4b12      	ldr	r3, [pc, #72]	@ (8009bac <_vfiprintf_r+0x228>)
 8009b62:	a904      	add	r1, sp, #16
 8009b64:	4630      	mov	r0, r6
 8009b66:	f3af 8000 	nop.w
 8009b6a:	4607      	mov	r7, r0
 8009b6c:	1c78      	adds	r0, r7, #1
 8009b6e:	d1d6      	bne.n	8009b1e <_vfiprintf_r+0x19a>
 8009b70:	6e6b      	ldr	r3, [r5, #100]	@ 0x64
 8009b72:	07d9      	lsls	r1, r3, #31
 8009b74:	d405      	bmi.n	8009b82 <_vfiprintf_r+0x1fe>
 8009b76:	89ab      	ldrh	r3, [r5, #12]
 8009b78:	059a      	lsls	r2, r3, #22
 8009b7a:	d402      	bmi.n	8009b82 <_vfiprintf_r+0x1fe>
 8009b7c:	6da8      	ldr	r0, [r5, #88]	@ 0x58
 8009b7e:	f7ff fc77 	bl	8009470 <__retarget_lock_release_recursive>
 8009b82:	89ab      	ldrh	r3, [r5, #12]
 8009b84:	065b      	lsls	r3, r3, #25
 8009b86:	f53f af1f 	bmi.w	80099c8 <_vfiprintf_r+0x44>
 8009b8a:	9809      	ldr	r0, [sp, #36]	@ 0x24
 8009b8c:	e71e      	b.n	80099cc <_vfiprintf_r+0x48>
 8009b8e:	ab03      	add	r3, sp, #12
 8009b90:	9300      	str	r3, [sp, #0]
 8009b92:	462a      	mov	r2, r5
 8009b94:	4b05      	ldr	r3, [pc, #20]	@ (8009bac <_vfiprintf_r+0x228>)
 8009b96:	a904      	add	r1, sp, #16
 8009b98:	4630      	mov	r0, r6
 8009b9a:	f000 f879 	bl	8009c90 <_printf_i>
 8009b9e:	e7e4      	b.n	8009b6a <_vfiprintf_r+0x1e6>
 8009ba0:	080436ed 	.word	0x080436ed
 8009ba4:	080436f7 	.word	0x080436f7
 8009ba8:	00000000 	.word	0x00000000
 8009bac:	0800995f 	.word	0x0800995f
 8009bb0:	080436f3 	.word	0x080436f3

08009bb4 <_printf_common>:
 8009bb4:	e92d 47f0 	stmdb	sp!, {r4, r5, r6, r7, r8, r9, sl, lr}
 8009bb8:	4616      	mov	r6, r2
 8009bba:	4698      	mov	r8, r3
 8009bbc:	688a      	ldr	r2, [r1, #8]
 8009bbe:	690b      	ldr	r3, [r1, #16]
 8009bc0:	f8dd 9020 	ldr.w	r9, [sp, #32]
 8009bc4:	4293      	cmp	r3, r2
 8009bc6:	bfb8      	it	lt
 8009bc8:	4613      	movlt	r3, r2
 8009bca:	6033      	str	r3, [r6, #0]
 8009bcc:	f891 2043 	ldrb.w	r2, [r1, #67]	@ 0x43
 8009bd0:	4607      	mov	r7, r0
 8009bd2:	460c      	mov	r4, r1
 8009bd4:	b10a      	cbz	r2, 8009bda <_printf_common+0x26>
 8009bd6:	3301      	adds	r3, #1
 8009bd8:	6033      	str	r3, [r6, #0]
 8009bda:	6823      	ldr	r3, [r4, #0]
 8009bdc:	0699      	lsls	r1, r3, #26
 8009bde:	bf42      	ittt	mi
 8009be0:	6833      	ldrmi	r3, [r6, #0]
 8009be2:	3302      	addmi	r3, #2
 8009be4:	6033      	strmi	r3, [r6, #0]
 8009be6:	6825      	ldr	r5, [r4, #0]
 8009be8:	f015 0506 	ands.w	r5, r5, #6
 8009bec:	d106      	bne.n	8009bfc <_printf_common+0x48>
 8009bee:	f104 0a19 	add.w	sl, r4, #25
 8009bf2:	68e3      	ldr	r3, [r4, #12]
 8009bf4:	6832      	ldr	r2, [r6, #0]
 8009bf6:	1a9b      	subs	r3, r3, r2
 8009bf8:	42ab      	cmp	r3, r5
 8009bfa:	dc26      	bgt.n	8009c4a <_printf_common+0x96>
 8009bfc:	f894 3043 	ldrb.w	r3, [r4, #67]	@ 0x43
 8009c00:	6822      	ldr	r2, [r4, #0]
 8009c02:	3b00      	subs	r3, #0
 8009c04:	bf18      	it	ne
 8009c06:	2301      	movne	r3, #1
 8009c08:	0692      	lsls	r2, r2, #26
 8009c0a:	d42b      	bmi.n	8009c64 <_printf_common+0xb0>
 8009c0c:	f104 0243 	add.w	r2, r4, #67	@ 0x43
 8009c10:	4641      	mov	r1, r8
 8009c12:	4638      	mov	r0, r7
 8009c14:	47c8      	blx	r9
 8009c16:	3001      	adds	r0, #1
 8009c18:	d01e      	beq.n	8009c58 <_printf_common+0xa4>
 8009c1a:	6823      	ldr	r3, [r4, #0]
 8009c1c:	6922      	ldr	r2, [r4, #16]
 8009c1e:	f003 0306 	and.w	r3, r3, #6
 8009c22:	2b04      	cmp	r3, #4
 8009c24:	bf02      	ittt	eq
 8009c26:	68e5      	ldreq	r5, [r4, #12]
 8009c28:	6833      	ldreq	r3, [r6, #0]
 8009c2a:	1aed      	subeq	r5, r5, r3
 8009c2c:	68a3      	ldr	r3, [r4, #8]
 8009c2e:	bf0c      	ite	eq
 8009c30:	ea25 75e5 	biceq.w	r5, r5, r5, asr #31
 8009c34:	2500      	movne	r5, #0
 8009c36:	4293      	cmp	r3, r2
 8009c38:	bfc4      	itt	gt
 8009c3a:	1a9b      	subgt	r3, r3, r2
 8009c3c:	18ed      	addgt	r5, r5, r3
 8009c3e:	2600      	movs	r6, #0
 8009c40:	341a      	adds	r4, #26
 8009c42:	42b5      	cmp	r5, r6
 8009c44:	d11a      	bne.n	8009c7c <_printf_common+0xc8>
 8009c46:	2000      	movs	r0, #0
 8009c48:	e008      	b.n	8009c5c <_printf_common+0xa8>
 8009c4a:	2301      	movs	r3, #1
 8009c4c:	4652      	mov	r2, sl
 8009c4e:	4641      	mov	r1, r8
 8009c50:	4638      	mov	r0, r7
 8009c52:	47c8      	blx	r9
 8009c54:	3001      	adds	r0, #1
 8009c56:	d103      	bne.n	8009c60 <_printf_common+0xac>
 8009c58:	f04f 30ff 	mov.w	r0, #4294967295
 8009c5c:	e8bd 87f0 	ldmia.w	sp!, {r4, r5, r6, r7, r8, r9, sl, pc}
 8009c60:	3501      	adds	r5, #1
 8009c62:	e7c6      	b.n	8009bf2 <_printf_common+0x3e>
 8009c64:	18e1      	adds	r1, r4, r3
 8009c66:	1c5a      	adds	r2, r3, #1
 8009c68:	2030      	movs	r0, #48	@ 0x30
 8009c6a:	f881 0043 	strb.w	r0, [r1, #67]	@ 0x43
 8009c6e:	4422      	add	r2, r4
 8009c70:	f894 1045 	ldrb.w	r1, [r4, #69]	@ 0x45
 8009c74:	f882 1043 	strb.w	r1, [r2, #67]	@ 0x43
 8009c78:	3302      	adds	r3, #2
 8009c7a:	e7c7      	b.n	8009c0c <_printf_common+0x58>
 8009c7c:	2301      	movs	r3, #1
 8009c7e:	4622      	mov	r2, r4
 8009c80:	4641      	mov	r1, r8
 8009c82:	4638      	mov	r0, r7
 8009c84:	47c8      	blx	r9
 8009c86:	3001      	adds	r0, #1
 8009c88:	d0e6      	beq.n	8009c58 <_printf_common+0xa4>
 8009c8a:	3601      	adds	r6, #1
 8009c8c:	e7d9      	b.n	8009c42 <_printf_common+0x8e>
	...

08009c90 <_printf_i>:
 8009c90:	e92d 47ff 	stmdb	sp!, {r0, r1, r2, r3, r4, r5, r6, r7, r8, r9, sl, lr}
 8009c94:	7e0f      	ldrb	r7, [r1, #24]
 8009c96:	9e0c      	ldr	r6, [sp, #48]	@ 0x30
 8009c98:	2f78      	cmp	r7, #120	@ 0x78
 8009c9a:	4691      	mov	r9, r2
 8009c9c:	4680      	mov	r8, r0
 8009c9e:	460c      	mov	r4, r1
 8009ca0:	469a      	mov	sl, r3
 8009ca2:	f101 0243 	add.w	r2, r1, #67	@ 0x43
 8009ca6:	d807      	bhi.n	8009cb8 <_printf_i+0x28>
 8009ca8:	2f62      	cmp	r7, #98	@ 0x62
 8009caa:	d80a      	bhi.n	8009cc2 <_printf_i+0x32>
 8009cac:	2f00      	cmp	r7, #0
 8009cae:	f000 80d1 	beq.w	8009e54 <_printf_i+0x1c4>
 8009cb2:	2f58      	cmp	r7, #88	@ 0x58
 8009cb4:	f000 80b8 	beq.w	8009e28 <_printf_i+0x198>
 8009cb8:	f104 0642 	add.w	r6, r4, #66	@ 0x42
 8009cbc:	f884 7042 	strb.w	r7, [r4, #66]	@ 0x42
 8009cc0:	e03a      	b.n	8009d38 <_printf_i+0xa8>
 8009cc2:	f1a7 0363 	sub.w	r3, r7, #99	@ 0x63
 8009cc6:	2b15      	cmp	r3, #21
 8009cc8:	d8f6      	bhi.n	8009cb8 <_printf_i+0x28>
 8009cca:	a101      	add	r1, pc, #4	@ (adr r1, 8009cd0 <_printf_i+0x40>)
 8009ccc:	f851 f023 	ldr.w	pc, [r1, r3, lsl #2]
 8009cd0:	08009d29 	.word	0x08009d29
 8009cd4:	08009d3d 	.word	0x08009d3d
 8009cd8:	08009cb9 	.word	0x08009cb9
 8009cdc:	08009cb9 	.word	0x08009cb9
 8009ce0:	08009cb9 	.word	0x08009cb9
 8009ce4:	08009cb9 	.word	0x08009cb9
 8009ce8:	08009d3d 	.word	0x08009d3d
 8009cec:	08009cb9 	.word	0x08009cb9
 8009cf0:	08009cb9 	.word	0x08009cb9
 8009cf4:	08009cb9 	.word	0x08009cb9
 8009cf8:	08009cb9 	.word	0x08009cb9
 8009cfc:	08009e3b 	.word	0x08009e3b
 8009d00:	08009d67 	.word	0x08009d67
 8009d04:	08009df5 	.word	0x08009df5
 8009d08:	08009cb9 	.word	0x08009cb9
 8009d0c:	08009cb9 	.word	0x08009cb9
 8009d10:	08009e5d 	.word	0x08009e5d
 8009d14:	08009cb9 	.word	0x08009cb9
 8009d18:	08009d67 	.word	0x08009d67
 8009d1c:	08009cb9 	.word	0x08009cb9
 8009d20:	08009cb9 	.word	0x08009cb9
 8009d24:	08009dfd 	.word	0x08009dfd
 8009d28:	6833      	ldr	r3, [r6, #0]
 8009d2a:	1d1a      	adds	r2, r3, #4
 8009d2c:	681b      	ldr	r3, [r3, #0]
 8009d2e:	6032      	str	r2, [r6, #0]
 8009d30:	f104 0642 	add.w	r6, r4, #66	@ 0x42
 8009d34:	f884 3042 	strb.w	r3, [r4, #66]	@ 0x42
 8009d38:	2301      	movs	r3, #1
 8009d3a:	e09c      	b.n	8009e76 <_printf_i+0x1e6>
 8009d3c:	6833      	ldr	r3, [r6, #0]
 8009d3e:	6820      	ldr	r0, [r4, #0]
 8009d40:	1d19      	adds	r1, r3, #4
 8009d42:	6031      	str	r1, [r6, #0]
 8009d44:	0606      	lsls	r6, r0, #24
 8009d46:	d501      	bpl.n	8009d4c <_printf_i+0xbc>
 8009d48:	681d      	ldr	r5, [r3, #0]
 8009d4a:	e003      	b.n	8009d54 <_printf_i+0xc4>
 8009d4c:	0645      	lsls	r5, r0, #25
 8009d4e:	d5fb      	bpl.n	8009d48 <_printf_i+0xb8>
 8009d50:	f9b3 5000 	ldrsh.w	r5, [r3]
 8009d54:	2d00      	cmp	r5, #0
 8009d56:	da03      	bge.n	8009d60 <_printf_i+0xd0>
 8009d58:	232d      	movs	r3, #45	@ 0x2d
 8009d5a:	426d      	negs	r5, r5
 8009d5c:	f884 3043 	strb.w	r3, [r4, #67]	@ 0x43
 8009d60:	4858      	ldr	r0, [pc, #352]	@ (8009ec4 <_printf_i+0x234>)
 8009d62:	230a      	movs	r3, #10
 8009d64:	e011      	b.n	8009d8a <_printf_i+0xfa>
 8009d66:	6821      	ldr	r1, [r4, #0]
 8009d68:	6833      	ldr	r3, [r6, #0]
 8009d6a:	0608      	lsls	r0, r1, #24
 8009d6c:	f853 5b04 	ldr.w	r5, [r3], #4
 8009d70:	d402      	bmi.n	8009d78 <_printf_i+0xe8>
 8009d72:	0649      	lsls	r1, r1, #25
 8009d74:	bf48      	it	mi
 8009d76:	b2ad      	uxthmi	r5, r5
 8009d78:	2f6f      	cmp	r7, #111	@ 0x6f
 8009d7a:	4852      	ldr	r0, [pc, #328]	@ (8009ec4 <_printf_i+0x234>)
 8009d7c:	6033      	str	r3, [r6, #0]
 8009d7e:	bf14      	ite	ne
 8009d80:	230a      	movne	r3, #10
 8009d82:	2308      	moveq	r3, #8
 8009d84:	2100      	movs	r1, #0
 8009d86:	f884 1043 	strb.w	r1, [r4, #67]	@ 0x43
 8009d8a:	6866      	ldr	r6, [r4, #4]
 8009d8c:	60a6      	str	r6, [r4, #8]
 8009d8e:	2e00      	cmp	r6, #0
 8009d90:	db05      	blt.n	8009d9e <_printf_i+0x10e>
 8009d92:	6821      	ldr	r1, [r4, #0]
 8009d94:	432e      	orrs	r6, r5
 8009d96:	f021 0104 	bic.w	r1, r1, #4
 8009d9a:	6021      	str	r1, [r4, #0]
 8009d9c:	d04b      	beq.n	8009e36 <_printf_i+0x1a6>
 8009d9e:	4616      	mov	r6, r2
 8009da0:	fbb5 f1f3 	udiv	r1, r5, r3
 8009da4:	fb03 5711 	mls	r7, r3, r1, r5
 8009da8:	5dc7      	ldrb	r7, [r0, r7]
 8009daa:	f806 7d01 	strb.w	r7, [r6, #-1]!
 8009dae:	462f      	mov	r7, r5
 8009db0:	42bb      	cmp	r3, r7
 8009db2:	460d      	mov	r5, r1
 8009db4:	d9f4      	bls.n	8009da0 <_printf_i+0x110>
 8009db6:	2b08      	cmp	r3, #8
 8009db8:	d10b      	bne.n	8009dd2 <_printf_i+0x142>
 8009dba:	6823      	ldr	r3, [r4, #0]
 8009dbc:	07df      	lsls	r7, r3, #31
 8009dbe:	d508      	bpl.n	8009dd2 <_printf_i+0x142>
 8009dc0:	6923      	ldr	r3, [r4, #16]
 8009dc2:	6861      	ldr	r1, [r4, #4]
 8009dc4:	4299      	cmp	r1, r3
 8009dc6:	bfde      	ittt	le
 8009dc8:	2330      	movle	r3, #48	@ 0x30
 8009dca:	f806 3c01 	strble.w	r3, [r6, #-1]
 8009dce:	f106 36ff 	addle.w	r6, r6, #4294967295
 8009dd2:	1b92      	subs	r2, r2, r6
 8009dd4:	6122      	str	r2, [r4, #16]
 8009dd6:	f8cd a000 	str.w	sl, [sp]
 8009dda:	464b      	mov	r3, r9
 8009ddc:	aa03      	add	r2, sp, #12
 8009dde:	4621      	mov	r1, r4
 8009de0:	4640      	mov	r0, r8
 8009de2:	f7ff fee7 	bl	8009bb4 <_printf_common>
 8009de6:	3001      	adds	r0, #1
 8009de8:	d14a      	bne.n	8009e80 <_printf_i+0x1f0>
 8009dea:	f04f 30ff 	mov.w	r0, #4294967295
 8009dee:	b004      	add	sp, #16
 8009df0:	e8bd 87f0 	ldmia.w	sp!, {r4, r5, r6, r7, r8, r9, sl, pc}
 8009df4:	6823      	ldr	r3, [r4, #0]
 8009df6:	f043 0320 	orr.w	r3, r3, #32
 8009dfa:	6023      	str	r3, [r4, #0]
 8009dfc:	4832      	ldr	r0, [pc, #200]	@ (8009ec8 <_printf_i+0x238>)
 8009dfe:	2778      	movs	r7, #120	@ 0x78
 8009e00:	f884 7045 	strb.w	r7, [r4, #69]	@ 0x45
 8009e04:	6823      	ldr	r3, [r4, #0]
 8009e06:	6831      	ldr	r1, [r6, #0]
 8009e08:	061f      	lsls	r7, r3, #24
 8009e0a:	f851 5b04 	ldr.w	r5, [r1], #4
 8009e0e:	d402      	bmi.n	8009e16 <_printf_i+0x186>
 8009e10:	065f      	lsls	r7, r3, #25
 8009e12:	bf48      	it	mi
 8009e14:	b2ad      	uxthmi	r5, r5
 8009e16:	6031      	str	r1, [r6, #0]
 8009e18:	07d9      	lsls	r1, r3, #31
 8009e1a:	bf44      	itt	mi
 8009e1c:	f043 0320 	orrmi.w	r3, r3, #32
 8009e20:	6023      	strmi	r3, [r4, #0]
 8009e22:	b11d      	cbz	r5, 8009e2c <_printf_i+0x19c>
 8009e24:	2310      	movs	r3, #16
 8009e26:	e7ad      	b.n	8009d84 <_printf_i+0xf4>
 8009e28:	4826      	ldr	r0, [pc, #152]	@ (8009ec4 <_printf_i+0x234>)
 8009e2a:	e7e9      	b.n	8009e00 <_printf_i+0x170>
 8009e2c:	6823      	ldr	r3, [r4, #0]
 8009e2e:	f023 0320 	bic.w	r3, r3, #32
 8009e32:	6023      	str	r3, [r4, #0]
 8009e34:	e7f6      	b.n	8009e24 <_printf_i+0x194>
 8009e36:	4616      	mov	r6, r2
 8009e38:	e7bd      	b.n	8009db6 <_printf_i+0x126>
 8009e3a:	6833      	ldr	r3, [r6, #0]
 8009e3c:	6825      	ldr	r5, [r4, #0]
 8009e3e:	6961      	ldr	r1, [r4, #20]
 8009e40:	1d18      	adds	r0, r3, #4
 8009e42:	6030      	str	r0, [r6, #0]
 8009e44:	062e      	lsls	r6, r5, #24
 8009e46:	681b      	ldr	r3, [r3, #0]
 8009e48:	d501      	bpl.n	8009e4e <_printf_i+0x1be>
 8009e4a:	6019      	str	r1, [r3, #0]
 8009e4c:	e002      	b.n	8009e54 <_printf_i+0x1c4>
 8009e4e:	0668      	lsls	r0, r5, #25
 8009e50:	d5fb      	bpl.n	8009e4a <_printf_i+0x1ba>
 8009e52:	8019      	strh	r1, [r3, #0]
 8009e54:	2300      	movs	r3, #0
 8009e56:	6123      	str	r3, [r4, #16]
 8009e58:	4616      	mov	r6, r2
 8009e5a:	e7bc      	b.n	8009dd6 <_printf_i+0x146>
 8009e5c:	6833      	ldr	r3, [r6, #0]
 8009e5e:	1d1a      	adds	r2, r3, #4
 8009e60:	6032      	str	r2, [r6, #0]
 8009e62:	681e      	ldr	r6, [r3, #0]
 8009e64:	6862      	ldr	r2, [r4, #4]
 8009e66:	2100      	movs	r1, #0
 8009e68:	4630      	mov	r0, r6
 8009e6a:	f7f6 f9c1 	bl	80001f0 <memchr>
 8009e6e:	b108      	cbz	r0, 8009e74 <_printf_i+0x1e4>
 8009e70:	1b80      	subs	r0, r0, r6
 8009e72:	6060      	str	r0, [r4, #4]
 8009e74:	6863      	ldr	r3, [r4, #4]
 8009e76:	6123      	str	r3, [r4, #16]
 8009e78:	2300      	movs	r3, #0
 8009e7a:	f884 3043 	strb.w	r3, [r4, #67]	@ 0x43
 8009e7e:	e7aa      	b.n	8009dd6 <_printf_i+0x146>
 8009e80:	6923      	ldr	r3, [r4, #16]
 8009e82:	4632      	mov	r2, r6
 8009e84:	4649      	mov	r1, r9
 8009e86:	4640      	mov	r0, r8
 8009e88:	47d0      	blx	sl
 8009e8a:	3001      	adds	r0, #1
 8009e8c:	d0ad      	beq.n	8009dea <_printf_i+0x15a>
 8009e8e:	6823      	ldr	r3, [r4, #0]
 8009e90:	079b      	lsls	r3, r3, #30
 8009e92:	d413      	bmi.n	8009ebc <_printf_i+0x22c>
 8009e94:	68e0      	ldr	r0, [r4, #12]
 8009e96:	9b03      	ldr	r3, [sp, #12]
 8009e98:	4298      	cmp	r0, r3
 8009e9a:	bfb8      	it	lt
 8009e9c:	4618      	movlt	r0, r3
 8009e9e:	e7a6      	b.n	8009dee <_printf_i+0x15e>
 8009ea0:	2301      	movs	r3, #1
 8009ea2:	4632      	mov	r2, r6
 8009ea4:	4649      	mov	r1, r9
 8009ea6:	4640      	mov	r0, r8
 8009ea8:	47d0      	blx	sl
 8009eaa:	3001      	adds	r0, #1
 8009eac:	d09d      	beq.n	8009dea <_printf_i+0x15a>
 8009eae:	3501      	adds	r5, #1
 8009eb0:	68e3      	ldr	r3, [r4, #12]
 8009eb2:	9903      	ldr	r1, [sp, #12]
 8009eb4:	1a5b      	subs	r3, r3, r1
 8009eb6:	42ab      	cmp	r3, r5
 8009eb8:	dcf2      	bgt.n	8009ea0 <_printf_i+0x210>
 8009eba:	e7eb      	b.n	8009e94 <_printf_i+0x204>
 8009ebc:	2500      	movs	r5, #0
 8009ebe:	f104 0619 	add.w	r6, r4, #25
 8009ec2:	e7f5      	b.n	8009eb0 <_printf_i+0x220>
 8009ec4:	080436fe 	.word	0x080436fe
 8009ec8:	0804370f 	.word	0x0804370f

08009ecc <__sflush_r>:
 8009ecc:	f9b1 200c 	ldrsh.w	r2, [r1, #12]
 8009ed0:	e92d 41f0 	stmdb	sp!, {r4, r5, r6, r7, r8, lr}
 8009ed4:	0716      	lsls	r6, r2, #28
 8009ed6:	4605      	mov	r5, r0
 8009ed8:	460c      	mov	r4, r1
 8009eda:	d454      	bmi.n	8009f86 <__sflush_r+0xba>
 8009edc:	684b      	ldr	r3, [r1, #4]
 8009ede:	2b00      	cmp	r3, #0
 8009ee0:	dc02      	bgt.n	8009ee8 <__sflush_r+0x1c>
 8009ee2:	6c0b      	ldr	r3, [r1, #64]	@ 0x40
 8009ee4:	2b00      	cmp	r3, #0
 8009ee6:	dd48      	ble.n	8009f7a <__sflush_r+0xae>
 8009ee8:	6ae6      	ldr	r6, [r4, #44]	@ 0x2c
 8009eea:	2e00      	cmp	r6, #0
 8009eec:	d045      	beq.n	8009f7a <__sflush_r+0xae>
 8009eee:	2300      	movs	r3, #0
 8009ef0:	f412 5280 	ands.w	r2, r2, #4096	@ 0x1000
 8009ef4:	682f      	ldr	r7, [r5, #0]
 8009ef6:	6a21      	ldr	r1, [r4, #32]
 8009ef8:	602b      	str	r3, [r5, #0]
 8009efa:	d030      	beq.n	8009f5e <__sflush_r+0x92>
 8009efc:	6d62      	ldr	r2, [r4, #84]	@ 0x54
 8009efe:	89a3      	ldrh	r3, [r4, #12]
 8009f00:	0759      	lsls	r1, r3, #29
 8009f02:	d505      	bpl.n	8009f10 <__sflush_r+0x44>
 8009f04:	6863      	ldr	r3, [r4, #4]
 8009f06:	1ad2      	subs	r2, r2, r3
 8009f08:	6b63      	ldr	r3, [r4, #52]	@ 0x34
 8009f0a:	b10b      	cbz	r3, 8009f10 <__sflush_r+0x44>
 8009f0c:	6c23      	ldr	r3, [r4, #64]	@ 0x40
 8009f0e:	1ad2      	subs	r2, r2, r3
 8009f10:	2300      	movs	r3, #0
 8009f12:	6ae6      	ldr	r6, [r4, #44]	@ 0x2c
 8009f14:	6a21      	ldr	r1, [r4, #32]
 8009f16:	4628      	mov	r0, r5
 8009f18:	47b0      	blx	r6
 8009f1a:	1c43      	adds	r3, r0, #1
 8009f1c:	89a3      	ldrh	r3, [r4, #12]
 8009f1e:	d106      	bne.n	8009f2e <__sflush_r+0x62>
 8009f20:	6829      	ldr	r1, [r5, #0]
 8009f22:	291d      	cmp	r1, #29
 8009f24:	d82b      	bhi.n	8009f7e <__sflush_r+0xb2>
 8009f26:	4a2a      	ldr	r2, [pc, #168]	@ (8009fd0 <__sflush_r+0x104>)
 8009f28:	40ca      	lsrs	r2, r1
 8009f2a:	07d6      	lsls	r6, r2, #31
 8009f2c:	d527      	bpl.n	8009f7e <__sflush_r+0xb2>
 8009f2e:	2200      	movs	r2, #0
 8009f30:	6062      	str	r2, [r4, #4]
 8009f32:	04d9      	lsls	r1, r3, #19
 8009f34:	6922      	ldr	r2, [r4, #16]
 8009f36:	6022      	str	r2, [r4, #0]
 8009f38:	d504      	bpl.n	8009f44 <__sflush_r+0x78>
 8009f3a:	1c42      	adds	r2, r0, #1
 8009f3c:	d101      	bne.n	8009f42 <__sflush_r+0x76>
 8009f3e:	682b      	ldr	r3, [r5, #0]
 8009f40:	b903      	cbnz	r3, 8009f44 <__sflush_r+0x78>
 8009f42:	6560      	str	r0, [r4, #84]	@ 0x54
 8009f44:	6b61      	ldr	r1, [r4, #52]	@ 0x34
 8009f46:	602f      	str	r7, [r5, #0]
 8009f48:	b1b9      	cbz	r1, 8009f7a <__sflush_r+0xae>
 8009f4a:	f104 0344 	add.w	r3, r4, #68	@ 0x44
 8009f4e:	4299      	cmp	r1, r3
 8009f50:	d002      	beq.n	8009f58 <__sflush_r+0x8c>
 8009f52:	4628      	mov	r0, r5
 8009f54:	f7ff fa9c 	bl	8009490 <_free_r>
 8009f58:	2300      	movs	r3, #0
 8009f5a:	6363      	str	r3, [r4, #52]	@ 0x34
 8009f5c:	e00d      	b.n	8009f7a <__sflush_r+0xae>
 8009f5e:	2301      	movs	r3, #1
 8009f60:	4628      	mov	r0, r5
 8009f62:	47b0      	blx	r6
 8009f64:	4602      	mov	r2, r0
 8009f66:	1c50      	adds	r0, r2, #1
 8009f68:	d1c9      	bne.n	8009efe <__sflush_r+0x32>
 8009f6a:	682b      	ldr	r3, [r5, #0]
 8009f6c:	2b00      	cmp	r3, #0
 8009f6e:	d0c6      	beq.n	8009efe <__sflush_r+0x32>
 8009f70:	2b1d      	cmp	r3, #29
 8009f72:	d001      	beq.n	8009f78 <__sflush_r+0xac>
 8009f74:	2b16      	cmp	r3, #22
 8009f76:	d11e      	bne.n	8009fb6 <__sflush_r+0xea>
 8009f78:	602f      	str	r7, [r5, #0]
 8009f7a:	2000      	movs	r0, #0
 8009f7c:	e022      	b.n	8009fc4 <__sflush_r+0xf8>
 8009f7e:	f043 0340 	orr.w	r3, r3, #64	@ 0x40
 8009f82:	b21b      	sxth	r3, r3
 8009f84:	e01b      	b.n	8009fbe <__sflush_r+0xf2>
 8009f86:	690f      	ldr	r7, [r1, #16]
 8009f88:	2f00      	cmp	r7, #0
 8009f8a:	d0f6      	beq.n	8009f7a <__sflush_r+0xae>
 8009f8c:	0793      	lsls	r3, r2, #30
 8009f8e:	680e      	ldr	r6, [r1, #0]
 8009f90:	bf08      	it	eq
 8009f92:	694b      	ldreq	r3, [r1, #20]
 8009f94:	600f      	str	r7, [r1, #0]
 8009f96:	bf18      	it	ne
 8009f98:	2300      	movne	r3, #0
 8009f9a:	eba6 0807 	sub.w	r8, r6, r7
 8009f9e:	608b      	str	r3, [r1, #8]
 8009fa0:	f1b8 0f00 	cmp.w	r8, #0
 8009fa4:	dde9      	ble.n	8009f7a <__sflush_r+0xae>
 8009fa6:	6a21      	ldr	r1, [r4, #32]
 8009fa8:	6aa6      	ldr	r6, [r4, #40]	@ 0x28
 8009faa:	4643      	mov	r3, r8
 8009fac:	463a      	mov	r2, r7
 8009fae:	4628      	mov	r0, r5
 8009fb0:	47b0      	blx	r6
 8009fb2:	2800      	cmp	r0, #0
 8009fb4:	dc08      	bgt.n	8009fc8 <__sflush_r+0xfc>
 8009fb6:	f9b4 300c 	ldrsh.w	r3, [r4, #12]
 8009fba:	f043 0340 	orr.w	r3, r3, #64	@ 0x40
 8009fbe:	81a3      	strh	r3, [r4, #12]
 8009fc0:	f04f 30ff 	mov.w	r0, #4294967295
 8009fc4:	e8bd 81f0 	ldmia.w	sp!, {r4, r5, r6, r7, r8, pc}
 8009fc8:	4407      	add	r7, r0
 8009fca:	eba8 0800 	sub.w	r8, r8, r0
 8009fce:	e7e7      	b.n	8009fa0 <__sflush_r+0xd4>
 8009fd0:	20400001 	.word	0x20400001

08009fd4 <_fflush_r>:
 8009fd4:	b538      	push	{r3, r4, r5, lr}
 8009fd6:	690b      	ldr	r3, [r1, #16]
 8009fd8:	4605      	mov	r5, r0
 8009fda:	460c      	mov	r4, r1
 8009fdc:	b913      	cbnz	r3, 8009fe4 <_fflush_r+0x10>
 8009fde:	2500      	movs	r5, #0
 8009fe0:	4628      	mov	r0, r5
 8009fe2:	bd38      	pop	{r3, r4, r5, pc}
 8009fe4:	b118      	cbz	r0, 8009fee <_fflush_r+0x1a>
 8009fe6:	6a03      	ldr	r3, [r0, #32]
 8009fe8:	b90b      	cbnz	r3, 8009fee <_fflush_r+0x1a>
 8009fea:	f7fe ffbb 	bl	8008f64 <__sinit>
 8009fee:	f9b4 300c 	ldrsh.w	r3, [r4, #12]
 8009ff2:	2b00      	cmp	r3, #0
 8009ff4:	d0f3      	beq.n	8009fde <_fflush_r+0xa>
 8009ff6:	6e62      	ldr	r2, [r4, #100]	@ 0x64
 8009ff8:	07d0      	lsls	r0, r2, #31
 8009ffa:	d404      	bmi.n	800a006 <_fflush_r+0x32>
 8009ffc:	0599      	lsls	r1, r3, #22
 8009ffe:	d402      	bmi.n	800a006 <_fflush_r+0x32>
 800a000:	6da0      	ldr	r0, [r4, #88]	@ 0x58
 800a002:	f7ff fa34 	bl	800946e <__retarget_lock_acquire_recursive>
 800a006:	4628      	mov	r0, r5
 800a008:	4621      	mov	r1, r4
 800a00a:	f7ff ff5f 	bl	8009ecc <__sflush_r>
 800a00e:	6e63      	ldr	r3, [r4, #100]	@ 0x64
 800a010:	07da      	lsls	r2, r3, #31
 800a012:	4605      	mov	r5, r0
 800a014:	d4e4      	bmi.n	8009fe0 <_fflush_r+0xc>
 800a016:	89a3      	ldrh	r3, [r4, #12]
 800a018:	059b      	lsls	r3, r3, #22
 800a01a:	d4e1      	bmi.n	8009fe0 <_fflush_r+0xc>
 800a01c:	6da0      	ldr	r0, [r4, #88]	@ 0x58
 800a01e:	f7ff fa27 	bl	8009470 <__retarget_lock_release_recursive>
 800a022:	e7dd      	b.n	8009fe0 <_fflush_r+0xc>

0800a024 <__swhatbuf_r>:
 800a024:	b570      	push	{r4, r5, r6, lr}
 800a026:	460c      	mov	r4, r1
 800a028:	f9b1 100e 	ldrsh.w	r1, [r1, #14]
 800a02c:	2900      	cmp	r1, #0
 800a02e:	b096      	sub	sp, #88	@ 0x58
 800a030:	4615      	mov	r5, r2
 800a032:	461e      	mov	r6, r3
 800a034:	da0d      	bge.n	800a052 <__swhatbuf_r+0x2e>
 800a036:	89a3      	ldrh	r3, [r4, #12]
 800a038:	f013 0f80 	tst.w	r3, #128	@ 0x80
 800a03c:	f04f 0100 	mov.w	r1, #0
 800a040:	bf14      	ite	ne
 800a042:	2340      	movne	r3, #64	@ 0x40
 800a044:	f44f 6380 	moveq.w	r3, #1024	@ 0x400
 800a048:	2000      	movs	r0, #0
 800a04a:	6031      	str	r1, [r6, #0]
 800a04c:	602b      	str	r3, [r5, #0]
 800a04e:	b016      	add	sp, #88	@ 0x58
 800a050:	bd70      	pop	{r4, r5, r6, pc}
 800a052:	466a      	mov	r2, sp
 800a054:	f000 f918 	bl	800a288 <_fstat_r>
 800a058:	2800      	cmp	r0, #0
 800a05a:	dbec      	blt.n	800a036 <__swhatbuf_r+0x12>
 800a05c:	9901      	ldr	r1, [sp, #4]
 800a05e:	f401 4170 	and.w	r1, r1, #61440	@ 0xf000
 800a062:	f5a1 5300 	sub.w	r3, r1, #8192	@ 0x2000
 800a066:	4259      	negs	r1, r3
 800a068:	4159      	adcs	r1, r3
 800a06a:	f44f 6380 	mov.w	r3, #1024	@ 0x400
 800a06e:	e7eb      	b.n	800a048 <__swhatbuf_r+0x24>

0800a070 <__smakebuf_r>:
 800a070:	898b      	ldrh	r3, [r1, #12]
 800a072:	b5f7      	push	{r0, r1, r2, r4, r5, r6, r7, lr}
 800a074:	079d      	lsls	r5, r3, #30
 800a076:	4606      	mov	r6, r0
 800a078:	460c      	mov	r4, r1
 800a07a:	d507      	bpl.n	800a08c <__smakebuf_r+0x1c>
 800a07c:	f104 0347 	add.w	r3, r4, #71	@ 0x47
 800a080:	6023      	str	r3, [r4, #0]
 800a082:	6123      	str	r3, [r4, #16]
 800a084:	2301      	movs	r3, #1
 800a086:	6163      	str	r3, [r4, #20]
 800a088:	b003      	add	sp, #12
 800a08a:	bdf0      	pop	{r4, r5, r6, r7, pc}
 800a08c:	ab01      	add	r3, sp, #4
 800a08e:	466a      	mov	r2, sp
 800a090:	f7ff ffc8 	bl	800a024 <__swhatbuf_r>
 800a094:	9f00      	ldr	r7, [sp, #0]
 800a096:	4605      	mov	r5, r0
 800a098:	4639      	mov	r1, r7
 800a09a:	4630      	mov	r0, r6
 800a09c:	f7ff fa64 	bl	8009568 <_malloc_r>
 800a0a0:	b948      	cbnz	r0, 800a0b6 <__smakebuf_r+0x46>
 800a0a2:	f9b4 300c 	ldrsh.w	r3, [r4, #12]
 800a0a6:	059a      	lsls	r2, r3, #22
 800a0a8:	d4ee      	bmi.n	800a088 <__smakebuf_r+0x18>
 800a0aa:	f023 0303 	bic.w	r3, r3, #3
 800a0ae:	f043 0302 	orr.w	r3, r3, #2
 800a0b2:	81a3      	strh	r3, [r4, #12]
 800a0b4:	e7e2      	b.n	800a07c <__smakebuf_r+0xc>
 800a0b6:	89a3      	ldrh	r3, [r4, #12]
 800a0b8:	6020      	str	r0, [r4, #0]
 800a0ba:	f043 0380 	orr.w	r3, r3, #128	@ 0x80
 800a0be:	81a3      	strh	r3, [r4, #12]
 800a0c0:	9b01      	ldr	r3, [sp, #4]
 800a0c2:	e9c4 0704 	strd	r0, r7, [r4, #16]
 800a0c6:	b15b      	cbz	r3, 800a0e0 <__smakebuf_r+0x70>
 800a0c8:	f9b4 100e 	ldrsh.w	r1, [r4, #14]
 800a0cc:	4630      	mov	r0, r6
 800a0ce:	f000 f8ed 	bl	800a2ac <_isatty_r>
 800a0d2:	b128      	cbz	r0, 800a0e0 <__smakebuf_r+0x70>
 800a0d4:	89a3      	ldrh	r3, [r4, #12]
 800a0d6:	f023 0303 	bic.w	r3, r3, #3
 800a0da:	f043 0301 	orr.w	r3, r3, #1
 800a0de:	81a3      	strh	r3, [r4, #12]
 800a0e0:	89a3      	ldrh	r3, [r4, #12]
 800a0e2:	431d      	orrs	r5, r3
 800a0e4:	81a5      	strh	r5, [r4, #12]
 800a0e6:	e7cf      	b.n	800a088 <__smakebuf_r+0x18>

0800a0e8 <_putc_r>:
 800a0e8:	b570      	push	{r4, r5, r6, lr}
 800a0ea:	460d      	mov	r5, r1
 800a0ec:	4614      	mov	r4, r2
 800a0ee:	4606      	mov	r6, r0
 800a0f0:	b118      	cbz	r0, 800a0fa <_putc_r+0x12>
 800a0f2:	6a03      	ldr	r3, [r0, #32]
 800a0f4:	b90b      	cbnz	r3, 800a0fa <_putc_r+0x12>
 800a0f6:	f7fe ff35 	bl	8008f64 <__sinit>
 800a0fa:	6e63      	ldr	r3, [r4, #100]	@ 0x64
 800a0fc:	07d8      	lsls	r0, r3, #31
 800a0fe:	d405      	bmi.n	800a10c <_putc_r+0x24>
 800a100:	89a3      	ldrh	r3, [r4, #12]
 800a102:	0599      	lsls	r1, r3, #22
 800a104:	d402      	bmi.n	800a10c <_putc_r+0x24>
 800a106:	6da0      	ldr	r0, [r4, #88]	@ 0x58
 800a108:	f7ff f9b1 	bl	800946e <__retarget_lock_acquire_recursive>
 800a10c:	68a3      	ldr	r3, [r4, #8]
 800a10e:	3b01      	subs	r3, #1
 800a110:	2b00      	cmp	r3, #0
 800a112:	60a3      	str	r3, [r4, #8]
 800a114:	da05      	bge.n	800a122 <_putc_r+0x3a>
 800a116:	69a2      	ldr	r2, [r4, #24]
 800a118:	4293      	cmp	r3, r2
 800a11a:	db12      	blt.n	800a142 <_putc_r+0x5a>
 800a11c:	b2eb      	uxtb	r3, r5
 800a11e:	2b0a      	cmp	r3, #10
 800a120:	d00f      	beq.n	800a142 <_putc_r+0x5a>
 800a122:	6823      	ldr	r3, [r4, #0]
 800a124:	1c5a      	adds	r2, r3, #1
 800a126:	6022      	str	r2, [r4, #0]
 800a128:	701d      	strb	r5, [r3, #0]
 800a12a:	b2ed      	uxtb	r5, r5
 800a12c:	6e63      	ldr	r3, [r4, #100]	@ 0x64
 800a12e:	07da      	lsls	r2, r3, #31
 800a130:	d405      	bmi.n	800a13e <_putc_r+0x56>
 800a132:	89a3      	ldrh	r3, [r4, #12]
 800a134:	059b      	lsls	r3, r3, #22
 800a136:	d402      	bmi.n	800a13e <_putc_r+0x56>
 800a138:	6da0      	ldr	r0, [r4, #88]	@ 0x58
 800a13a:	f7ff f999 	bl	8009470 <__retarget_lock_release_recursive>
 800a13e:	4628      	mov	r0, r5
 800a140:	bd70      	pop	{r4, r5, r6, pc}
 800a142:	4629      	mov	r1, r5
 800a144:	4622      	mov	r2, r4
 800a146:	4630      	mov	r0, r6
 800a148:	f7ff f867 	bl	800921a <__swbuf_r>
 800a14c:	4605      	mov	r5, r0
 800a14e:	e7ed      	b.n	800a12c <_putc_r+0x44>

0800a150 <lflush>:
 800a150:	898b      	ldrh	r3, [r1, #12]
 800a152:	f003 0309 	and.w	r3, r3, #9
 800a156:	2b09      	cmp	r3, #9
 800a158:	d103      	bne.n	800a162 <lflush+0x12>
 800a15a:	4b03      	ldr	r3, [pc, #12]	@ (800a168 <lflush+0x18>)
 800a15c:	6818      	ldr	r0, [r3, #0]
 800a15e:	f7ff bf39 	b.w	8009fd4 <_fflush_r>
 800a162:	2000      	movs	r0, #0
 800a164:	4770      	bx	lr
 800a166:	bf00      	nop
 800a168:	200005a4 	.word	0x200005a4

0800a16c <__srefill_r>:
 800a16c:	b570      	push	{r4, r5, r6, lr}
 800a16e:	460c      	mov	r4, r1
 800a170:	4605      	mov	r5, r0
 800a172:	b118      	cbz	r0, 800a17c <__srefill_r+0x10>
 800a174:	6a03      	ldr	r3, [r0, #32]
 800a176:	b90b      	cbnz	r3, 800a17c <__srefill_r+0x10>
 800a178:	f7fe fef4 	bl	8008f64 <__sinit>
 800a17c:	2300      	movs	r3, #0
 800a17e:	6063      	str	r3, [r4, #4]
 800a180:	f9b4 300c 	ldrsh.w	r3, [r4, #12]
 800a184:	069e      	lsls	r6, r3, #26
 800a186:	d408      	bmi.n	800a19a <__srefill_r+0x2e>
 800a188:	0758      	lsls	r0, r3, #29
 800a18a:	d445      	bmi.n	800a218 <__srefill_r+0xac>
 800a18c:	06d9      	lsls	r1, r3, #27
 800a18e:	d407      	bmi.n	800a1a0 <__srefill_r+0x34>
 800a190:	2209      	movs	r2, #9
 800a192:	602a      	str	r2, [r5, #0]
 800a194:	f043 0340 	orr.w	r3, r3, #64	@ 0x40
 800a198:	81a3      	strh	r3, [r4, #12]
 800a19a:	f04f 30ff 	mov.w	r0, #4294967295
 800a19e:	bd70      	pop	{r4, r5, r6, pc}
 800a1a0:	071a      	lsls	r2, r3, #28
 800a1a2:	d50b      	bpl.n	800a1bc <__srefill_r+0x50>
 800a1a4:	4621      	mov	r1, r4
 800a1a6:	4628      	mov	r0, r5
 800a1a8:	f7ff ff14 	bl	8009fd4 <_fflush_r>
 800a1ac:	2800      	cmp	r0, #0
 800a1ae:	d1f4      	bne.n	800a19a <__srefill_r+0x2e>
 800a1b0:	89a3      	ldrh	r3, [r4, #12]
 800a1b2:	60a0      	str	r0, [r4, #8]
 800a1b4:	f023 0308 	bic.w	r3, r3, #8
 800a1b8:	81a3      	strh	r3, [r4, #12]
 800a1ba:	61a0      	str	r0, [r4, #24]
 800a1bc:	89a3      	ldrh	r3, [r4, #12]
 800a1be:	f043 0304 	orr.w	r3, r3, #4
 800a1c2:	81a3      	strh	r3, [r4, #12]
 800a1c4:	6923      	ldr	r3, [r4, #16]
 800a1c6:	b91b      	cbnz	r3, 800a1d0 <__srefill_r+0x64>
 800a1c8:	4621      	mov	r1, r4
 800a1ca:	4628      	mov	r0, r5
 800a1cc:	f7ff ff50 	bl	800a070 <__smakebuf_r>
 800a1d0:	f9b4 600c 	ldrsh.w	r6, [r4, #12]
 800a1d4:	07b3      	lsls	r3, r6, #30
 800a1d6:	d00f      	beq.n	800a1f8 <__srefill_r+0x8c>
 800a1d8:	2301      	movs	r3, #1
 800a1da:	4a1b      	ldr	r2, [pc, #108]	@ (800a248 <__srefill_r+0xdc>)
 800a1dc:	491b      	ldr	r1, [pc, #108]	@ (800a24c <__srefill_r+0xe0>)
 800a1de:	481c      	ldr	r0, [pc, #112]	@ (800a250 <__srefill_r+0xe4>)
 800a1e0:	81a3      	strh	r3, [r4, #12]
 800a1e2:	f7fe fed7 	bl	8008f94 <_fwalk_sglue>
 800a1e6:	81a6      	strh	r6, [r4, #12]
 800a1e8:	f006 0609 	and.w	r6, r6, #9
 800a1ec:	2e09      	cmp	r6, #9
 800a1ee:	d103      	bne.n	800a1f8 <__srefill_r+0x8c>
 800a1f0:	4621      	mov	r1, r4
 800a1f2:	4628      	mov	r0, r5
 800a1f4:	f7ff fe6a 	bl	8009ecc <__sflush_r>
 800a1f8:	6922      	ldr	r2, [r4, #16]
 800a1fa:	6a66      	ldr	r6, [r4, #36]	@ 0x24
 800a1fc:	6963      	ldr	r3, [r4, #20]
 800a1fe:	6a21      	ldr	r1, [r4, #32]
 800a200:	6022      	str	r2, [r4, #0]
 800a202:	4628      	mov	r0, r5
 800a204:	47b0      	blx	r6
 800a206:	2800      	cmp	r0, #0
 800a208:	6060      	str	r0, [r4, #4]
 800a20a:	dc17      	bgt.n	800a23c <__srefill_r+0xd0>
 800a20c:	f9b4 300c 	ldrsh.w	r3, [r4, #12]
 800a210:	d116      	bne.n	800a240 <__srefill_r+0xd4>
 800a212:	f043 0320 	orr.w	r3, r3, #32
 800a216:	e7bf      	b.n	800a198 <__srefill_r+0x2c>
 800a218:	6b61      	ldr	r1, [r4, #52]	@ 0x34
 800a21a:	2900      	cmp	r1, #0
 800a21c:	d0d2      	beq.n	800a1c4 <__srefill_r+0x58>
 800a21e:	f104 0344 	add.w	r3, r4, #68	@ 0x44
 800a222:	4299      	cmp	r1, r3
 800a224:	d002      	beq.n	800a22c <__srefill_r+0xc0>
 800a226:	4628      	mov	r0, r5
 800a228:	f7ff f932 	bl	8009490 <_free_r>
 800a22c:	2300      	movs	r3, #0
 800a22e:	6363      	str	r3, [r4, #52]	@ 0x34
 800a230:	6c23      	ldr	r3, [r4, #64]	@ 0x40
 800a232:	6063      	str	r3, [r4, #4]
 800a234:	2b00      	cmp	r3, #0
 800a236:	d0c5      	beq.n	800a1c4 <__srefill_r+0x58>
 800a238:	6be3      	ldr	r3, [r4, #60]	@ 0x3c
 800a23a:	6023      	str	r3, [r4, #0]
 800a23c:	2000      	movs	r0, #0
 800a23e:	e7ae      	b.n	800a19e <__srefill_r+0x32>
 800a240:	2200      	movs	r2, #0
 800a242:	6062      	str	r2, [r4, #4]
 800a244:	e7a6      	b.n	800a194 <__srefill_r+0x28>
 800a246:	bf00      	nop
 800a248:	20000598 	.word	0x20000598
 800a24c:	0800a151 	.word	0x0800a151
 800a250:	200005a8 	.word	0x200005a8

0800a254 <memmove>:
 800a254:	4288      	cmp	r0, r1
 800a256:	b510      	push	{r4, lr}
 800a258:	eb01 0402 	add.w	r4, r1, r2
 800a25c:	d902      	bls.n	800a264 <memmove+0x10>
 800a25e:	4284      	cmp	r4, r0
 800a260:	4623      	mov	r3, r4
 800a262:	d807      	bhi.n	800a274 <memmove+0x20>
 800a264:	1e43      	subs	r3, r0, #1
 800a266:	42a1      	cmp	r1, r4
 800a268:	d008      	beq.n	800a27c <memmove+0x28>
 800a26a:	f811 2b01 	ldrb.w	r2, [r1], #1
 800a26e:	f803 2f01 	strb.w	r2, [r3, #1]!
 800a272:	e7f8      	b.n	800a266 <memmove+0x12>
 800a274:	4402      	add	r2, r0
 800a276:	4601      	mov	r1, r0
 800a278:	428a      	cmp	r2, r1
 800a27a:	d100      	bne.n	800a27e <memmove+0x2a>
 800a27c:	bd10      	pop	{r4, pc}
 800a27e:	f813 4d01 	ldrb.w	r4, [r3, #-1]!
 800a282:	f802 4d01 	strb.w	r4, [r2, #-1]!
 800a286:	e7f7      	b.n	800a278 <memmove+0x24>

0800a288 <_fstat_r>:
 800a288:	b538      	push	{r3, r4, r5, lr}
 800a28a:	4d07      	ldr	r5, [pc, #28]	@ (800a2a8 <_fstat_r+0x20>)
 800a28c:	2300      	movs	r3, #0
 800a28e:	4604      	mov	r4, r0
 800a290:	4608      	mov	r0, r1
 800a292:	4611      	mov	r1, r2
 800a294:	602b      	str	r3, [r5, #0]
 800a296:	f7fd fd8e 	bl	8007db6 <_fstat>
 800a29a:	1c43      	adds	r3, r0, #1
 800a29c:	d102      	bne.n	800a2a4 <_fstat_r+0x1c>
 800a29e:	682b      	ldr	r3, [r5, #0]
 800a2a0:	b103      	cbz	r3, 800a2a4 <_fstat_r+0x1c>
 800a2a2:	6023      	str	r3, [r4, #0]
 800a2a4:	bd38      	pop	{r3, r4, r5, pc}
 800a2a6:	bf00      	nop
 800a2a8:	200029e4 	.word	0x200029e4

0800a2ac <_isatty_r>:
 800a2ac:	b538      	push	{r3, r4, r5, lr}
 800a2ae:	4d06      	ldr	r5, [pc, #24]	@ (800a2c8 <_isatty_r+0x1c>)
 800a2b0:	2300      	movs	r3, #0
 800a2b2:	4604      	mov	r4, r0
 800a2b4:	4608      	mov	r0, r1
 800a2b6:	602b      	str	r3, [r5, #0]
 800a2b8:	f7fd fd8d 	bl	8007dd6 <_isatty>
 800a2bc:	1c43      	adds	r3, r0, #1
 800a2be:	d102      	bne.n	800a2c6 <_isatty_r+0x1a>
 800a2c0:	682b      	ldr	r3, [r5, #0]
 800a2c2:	b103      	cbz	r3, 800a2c6 <_isatty_r+0x1a>
 800a2c4:	6023      	str	r3, [r4, #0]
 800a2c6:	bd38      	pop	{r3, r4, r5, pc}
 800a2c8:	200029e4 	.word	0x200029e4

0800a2cc <_sbrk_r>:
 800a2cc:	b538      	push	{r3, r4, r5, lr}
 800a2ce:	4d06      	ldr	r5, [pc, #24]	@ (800a2e8 <_sbrk_r+0x1c>)
 800a2d0:	2300      	movs	r3, #0
 800a2d2:	4604      	mov	r4, r0
 800a2d4:	4608      	mov	r0, r1
 800a2d6:	602b      	str	r3, [r5, #0]
 800a2d8:	f7fd fd96 	bl	8007e08 <_sbrk>
 800a2dc:	1c43      	adds	r3, r0, #1
 800a2de:	d102      	bne.n	800a2e6 <_sbrk_r+0x1a>
 800a2e0:	682b      	ldr	r3, [r5, #0]
 800a2e2:	b103      	cbz	r3, 800a2e6 <_sbrk_r+0x1a>
 800a2e4:	6023      	str	r3, [r4, #0]
 800a2e6:	bd38      	pop	{r3, r4, r5, pc}
 800a2e8:	200029e4 	.word	0x200029e4

0800a2ec <_realloc_r>:
 800a2ec:	e92d 41f0 	stmdb	sp!, {r4, r5, r6, r7, r8, lr}
 800a2f0:	4607      	mov	r7, r0
 800a2f2:	4614      	mov	r4, r2
 800a2f4:	460d      	mov	r5, r1
 800a2f6:	b921      	cbnz	r1, 800a302 <_realloc_r+0x16>
 800a2f8:	e8bd 41f0 	ldmia.w	sp!, {r4, r5, r6, r7, r8, lr}
 800a2fc:	4611      	mov	r1, r2
 800a2fe:	f7ff b933 	b.w	8009568 <_malloc_r>
 800a302:	b92a      	cbnz	r2, 800a310 <_realloc_r+0x24>
 800a304:	f7ff f8c4 	bl	8009490 <_free_r>
 800a308:	4625      	mov	r5, r4
 800a30a:	4628      	mov	r0, r5
 800a30c:	e8bd 81f0 	ldmia.w	sp!, {r4, r5, r6, r7, r8, pc}
 800a310:	f000 f81a 	bl	800a348 <_malloc_usable_size_r>
 800a314:	4284      	cmp	r4, r0
 800a316:	4606      	mov	r6, r0
 800a318:	d802      	bhi.n	800a320 <_realloc_r+0x34>
 800a31a:	ebb4 0f50 	cmp.w	r4, r0, lsr #1
 800a31e:	d8f4      	bhi.n	800a30a <_realloc_r+0x1e>
 800a320:	4621      	mov	r1, r4
 800a322:	4638      	mov	r0, r7
 800a324:	f7ff f920 	bl	8009568 <_malloc_r>
 800a328:	4680      	mov	r8, r0
 800a32a:	b908      	cbnz	r0, 800a330 <_realloc_r+0x44>
 800a32c:	4645      	mov	r5, r8
 800a32e:	e7ec      	b.n	800a30a <_realloc_r+0x1e>
 800a330:	42b4      	cmp	r4, r6
 800a332:	4622      	mov	r2, r4
 800a334:	4629      	mov	r1, r5
 800a336:	bf28      	it	cs
 800a338:	4632      	movcs	r2, r6
 800a33a:	f7ff f89a 	bl	8009472 <memcpy>
 800a33e:	4629      	mov	r1, r5
 800a340:	4638      	mov	r0, r7
 800a342:	f7ff f8a5 	bl	8009490 <_free_r>
 800a346:	e7f1      	b.n	800a32c <_realloc_r+0x40>

0800a348 <_malloc_usable_size_r>:
 800a348:	f851 3c04 	ldr.w	r3, [r1, #-4]
 800a34c:	1f18      	subs	r0, r3, #4
 800a34e:	2b00      	cmp	r3, #0
 800a350:	bfbc      	itt	lt
 800a352:	580b      	ldrlt	r3, [r1, r0]
 800a354:	18c0      	addlt	r0, r0, r3
 800a356:	4770      	bx	lr

0800a358 <_init>:
 800a358:	b5f8      	push	{r3, r4, r5, r6, r7, lr}
 800a35a:	bf00      	nop
 800a35c:	bcf8      	pop	{r3, r4, r5, r6, r7}
 800a35e:	bc08      	pop	{r3}
 800a360:	469e      	mov	lr, r3
 800a362:	4770      	bx	lr

0800a364 <_fini>:
 800a364:	b5f8      	push	{r3, r4, r5, r6, r7, lr}
 800a366:	bf00      	nop
 800a368:	bcf8      	pop	{r3, r4, r5, r6, r7}
 800a36a:	bc08      	pop	{r3}
 800a36c:	469e      	mov	lr, r3
 800a36e:	4770      	bx	lr
